SF:/home/runner/_work/Gestion-inmobiliaria/Gestion-inmobiliaria/backend/src/../migrations/m20250408_000001_create_usuarios.rs
FN:6,_RNvXNtNtCskqrQbUAEY9O_18realestate_backend10migrations32m20250408_000001_create_usuariosNtB2_9MigrationNtCsfJhJy70T9TW_17sea_orm_migration13MigrationName4name
FN:13,_RNvXs_NtNtCskqrQbUAEY9O_18realestate_backend10migrations32m20250408_000001_create_usuariosNtB4_9MigrationNtCsfJhJy70T9TW_17sea_orm_migration14MigrationTrait2up
FN:83,_RNvXs_NtNtCskqrQbUAEY9O_18realestate_backend10migrations32m20250408_000001_create_usuariosNtB4_9MigrationNtCsfJhJy70T9TW_17sea_orm_migration14MigrationTrait4down
FN:6,_RNvXNtNtCsbgKgox7znE6_18realestate_backend10migrations32m20250408_000001_create_usuariosNtB2_9MigrationNtCsfJhJy70T9TW_17sea_orm_migration13MigrationName4name
FN:13,_RNvXs_NtNtCsbgKgox7znE6_18realestate_backend10migrations32m20250408_000001_create_usuariosNtB4_9MigrationNtCsfJhJy70T9TW_17sea_orm_migration14MigrationTrait2up
FN:83,_RNvXs_NtNtCsbgKgox7znE6_18realestate_backend10migrations32m20250408_000001_create_usuariosNtB4_9MigrationNtCsfJhJy70T9TW_17sea_orm_migration14MigrationTrait4down
FNDA:0,_RNvXNtNtCskqrQbUAEY9O_18realestate_backend10migrations32m20250408_000001_create_usuariosNtB2_9MigrationNtCsfJhJy70T9TW_17sea_orm_migration13MigrationName4name
FNDA:0,_RNvXs_NtNtCskqrQbUAEY9O_18realestate_backend10migrations32m20250408_000001_create_usuariosNtB4_9MigrationNtCsfJhJy70T9TW_17sea_orm_migration14MigrationTrait2up
FNDA:0,_RNvXs_NtNtCskqrQbUAEY9O_18realestate_backend10migrations32m20250408_000001_create_usuariosNtB4_9MigrationNtCsfJhJy70T9TW_17sea_orm_migration14MigrationTrait4down
FNDA:0,_RNvXNtNtCsbgKgox7znE6_18realestate_backend10migrations32m20250408_000001_create_usuariosNtB2_9MigrationNtCsfJhJy70T9TW_17sea_orm_migration13MigrationName4name
FNDA:0,_RNvXs_NtNtCsbgKgox7znE6_18realestate_backend10migrations32m20250408_000001_create_usuariosNtB4_9MigrationNtCsfJhJy70T9TW_17sea_orm_migration14MigrationTrait2up
FNDA:0,_RNvXs_NtNtCsbgKgox7znE6_18realestate_backend10migrations32m20250408_000001_create_usuariosNtB4_9MigrationNtCsfJhJy70T9TW_17sea_orm_migration14MigrationTrait4down
FNF:3
FNH:0
DA:6,0
DA:7,0
DA:8,0
DA:13,0
DA:81,0
DA:83,0
DA:87,0
BRF:0
BRH:0
LF:7
LH:0
end_of_record
SF:/home/runner/_work/Gestion-inmobiliaria/Gestion-inmobiliaria/backend/src/../migrations/m20250408_000002_create_propiedades.rs
FN:6,_RNvXNtNtCskqrQbUAEY9O_18realestate_backend10migrations35m20250408_000002_create_propiedadesNtB2_9MigrationNtCsfJhJy70T9TW_17sea_orm_migration13MigrationName4name
FN:13,_RNvXs_NtNtCskqrQbUAEY9O_18realestate_backend10migrations35m20250408_000002_create_propiedadesNtB4_9MigrationNtCsfJhJy70T9TW_17sea_orm_migration14MigrationTrait2up
FN:142,_RNvXs_NtNtCskqrQbUAEY9O_18realestate_backend10migrations35m20250408_000002_create_propiedadesNtB4_9MigrationNtCsfJhJy70T9TW_17sea_orm_migration14MigrationTrait4down
FN:6,_RNvXNtNtCsbgKgox7znE6_18realestate_backend10migrations35m20250408_000002_create_propiedadesNtB2_9MigrationNtCsfJhJy70T9TW_17sea_orm_migration13MigrationName4name
FN:13,_RNvXs_NtNtCsbgKgox7znE6_18realestate_backend10migrations35m20250408_000002_create_propiedadesNtB4_9MigrationNtCsfJhJy70T9TW_17sea_orm_migration14MigrationTrait2up
FN:142,_RNvXs_NtNtCsbgKgox7znE6_18realestate_backend10migrations35m20250408_000002_create_propiedadesNtB4_9MigrationNtCsfJhJy70T9TW_17sea_orm_migration14MigrationTrait4down
FNDA:0,_RNvXNtNtCskqrQbUAEY9O_18realestate_backend10migrations35m20250408_000002_create_propiedadesNtB2_9MigrationNtCsfJhJy70T9TW_17sea_orm_migration13MigrationName4name
FNDA:0,_RNvXs_NtNtCskqrQbUAEY9O_18realestate_backend10migrations35m20250408_000002_create_propiedadesNtB4_9MigrationNtCsfJhJy70T9TW_17sea_orm_migration14MigrationTrait2up
FNDA:0,_RNvXs_NtNtCskqrQbUAEY9O_18realestate_backend10migrations35m20250408_000002_create_propiedadesNtB4_9MigrationNtCsfJhJy70T9TW_17sea_orm_migration14MigrationTrait4down
FNDA:0,_RNvXNtNtCsbgKgox7znE6_18realestate_backend10migrations35m20250408_000002_create_propiedadesNtB2_9MigrationNtCsfJhJy70T9TW_17sea_orm_migration13MigrationName4name
FNDA:0,_RNvXs_NtNtCsbgKgox7znE6_18realestate_backend10migrations35m20250408_000002_create_propiedadesNtB4_9MigrationNtCsfJhJy70T9TW_17sea_orm_migration14MigrationTrait2up
FNDA:0,_RNvXs_NtNtCsbgKgox7znE6_18realestate_backend10migrations35m20250408_000002_create_propiedadesNtB4_9MigrationNtCsfJhJy70T9TW_17sea_orm_migration14MigrationTrait4down
FNF:3
FNH:0
DA:6,0
DA:7,0
DA:8,0
DA:13,0
DA:140,0
DA:142,0
DA:146,0
BRF:0
BRH:0
LF:7
LH:0
end_of_record
SF:/home/runner/_work/Gestion-inmobiliaria/Gestion-inmobiliaria/backend/src/../migrations/m20250408_000003_create_inquilinos.rs
FN:6,_RNvXNtNtCskqrQbUAEY9O_18realestate_backend10migrations34m20250408_000003_create_inquilinosNtB2_9MigrationNtCsfJhJy70T9TW_17sea_orm_migration13MigrationName4name
FN:13,_RNvXs_NtNtCskqrQbUAEY9O_18realestate_backend10migrations34m20250408_000003_create_inquilinosNtB4_9MigrationNtCsfJhJy70T9TW_17sea_orm_migration14MigrationTrait2up
FN:75,_RNvXs_NtNtCskqrQbUAEY9O_18realestate_backend10migrations34m20250408_000003_create_inquilinosNtB4_9MigrationNtCsfJhJy70T9TW_17sea_orm_migration14MigrationTrait4down
FN:6,_RNvXNtNtCsbgKgox7znE6_18realestate_backend10migrations34m20250408_000003_create_inquilinosNtB2_9MigrationNtCsfJhJy70T9TW_17sea_orm_migration13MigrationName4name
FN:13,_RNvXs_NtNtCsbgKgox7znE6_18realestate_backend10migrations34m20250408_000003_create_inquilinosNtB4_9MigrationNtCsfJhJy70T9TW_17sea_orm_migration14MigrationTrait2up
FN:75,_RNvXs_NtNtCsbgKgox7znE6_18realestate_backend10migrations34m20250408_000003_create_inquilinosNtB4_9MigrationNtCsfJhJy70T9TW_17sea_orm_migration14MigrationTrait4down
FNDA:0,_RNvXNtNtCskqrQbUAEY9O_18realestate_backend10migrations34m20250408_000003_create_inquilinosNtB2_9MigrationNtCsfJhJy70T9TW_17sea_orm_migration13MigrationName4name
FNDA:0,_RNvXs_NtNtCskqrQbUAEY9O_18realestate_backend10migrations34m20250408_000003_create_inquilinosNtB4_9MigrationNtCsfJhJy70T9TW_17sea_orm_migration14MigrationTrait2up
FNDA:0,_RNvXs_NtNtCskqrQbUAEY9O_18realestate_backend10migrations34m20250408_000003_create_inquilinosNtB4_9MigrationNtCsfJhJy70T9TW_17sea_orm_migration14MigrationTrait4down
FNDA:0,_RNvXNtNtCsbgKgox7znE6_18realestate_backend10migrations34m20250408_000003_create_inquilinosNtB2_9MigrationNtCsfJhJy70T9TW_17sea_orm_migration13MigrationName4name
FNDA:0,_RNvXs_NtNtCsbgKgox7znE6_18realestate_backend10migrations34m20250408_000003_create_inquilinosNtB4_9MigrationNtCsfJhJy70T9TW_17sea_orm_migration14MigrationTrait2up
FNDA:0,_RNvXs_NtNtCsbgKgox7znE6_18realestate_backend10migrations34m20250408_000003_create_inquilinosNtB4_9MigrationNtCsfJhJy70T9TW_17sea_orm_migration14MigrationTrait4down
FNF:3
FNH:0
DA:6,0
DA:7,0
DA:8,0
DA:13,0
DA:73,0
DA:75,0
DA:79,0
BRF:0
BRH:0
LF:7
LH:0
end_of_record
SF:/home/runner/_work/Gestion-inmobiliaria/Gestion-inmobiliaria/backend/src/../migrations/m20250408_000004_create_contratos.rs
FN:9,_RNvXNtNtCskqrQbUAEY9O_18realestate_backend10migrations33m20250408_000004_create_contratosNtB2_9MigrationNtCsfJhJy70T9TW_17sea_orm_migration13MigrationName4name
FN:16,_RNvXs_NtNtCskqrQbUAEY9O_18realestate_backend10migrations33m20250408_000004_create_contratosNtB4_9MigrationNtCsfJhJy70T9TW_17sea_orm_migration14MigrationTrait2up
FN:116,_RNvXs_NtNtCskqrQbUAEY9O_18realestate_backend10migrations33m20250408_000004_create_contratosNtB4_9MigrationNtCsfJhJy70T9TW_17sea_orm_migration14MigrationTrait4down
FN:9,_RNvXNtNtCsbgKgox7znE6_18realestate_backend10migrations33m20250408_000004_create_contratosNtB2_9MigrationNtCsfJhJy70T9TW_17sea_orm_migration13MigrationName4name
FN:16,_RNvXs_NtNtCsbgKgox7znE6_18realestate_backend10migrations33m20250408_000004_create_contratosNtB4_9MigrationNtCsfJhJy70T9TW_17sea_orm_migration14MigrationTrait2up
FN:116,_RNvXs_NtNtCsbgKgox7znE6_18realestate_backend10migrations33m20250408_000004_create_contratosNtB4_9MigrationNtCsfJhJy70T9TW_17sea_orm_migration14MigrationTrait4down
FNDA:0,_RNvXNtNtCskqrQbUAEY9O_18realestate_backend10migrations33m20250408_000004_create_contratosNtB2_9MigrationNtCsfJhJy70T9TW_17sea_orm_migration13MigrationName4name
FNDA:0,_RNvXs_NtNtCskqrQbUAEY9O_18realestate_backend10migrations33m20250408_000004_create_contratosNtB4_9MigrationNtCsfJhJy70T9TW_17sea_orm_migration14MigrationTrait2up
FNDA:0,_RNvXs_NtNtCskqrQbUAEY9O_18realestate_backend10migrations33m20250408_000004_create_contratosNtB4_9MigrationNtCsfJhJy70T9TW_17sea_orm_migration14MigrationTrait4down
FNDA:0,_RNvXNtNtCsbgKgox7znE6_18realestate_backend10migrations33m20250408_000004_create_contratosNtB2_9MigrationNtCsfJhJy70T9TW_17sea_orm_migration13MigrationName4name
FNDA:0,_RNvXs_NtNtCsbgKgox7znE6_18realestate_backend10migrations33m20250408_000004_create_contratosNtB4_9MigrationNtCsfJhJy70T9TW_17sea_orm_migration14MigrationTrait2up
FNDA:0,_RNvXs_NtNtCsbgKgox7znE6_18realestate_backend10migrations33m20250408_000004_create_contratosNtB4_9MigrationNtCsfJhJy70T9TW_17sea_orm_migration14MigrationTrait4down
FNF:3
FNH:0
DA:9,0
DA:10,0
DA:11,0
DA:16,0
DA:114,0
DA:116,0
DA:120,0
BRF:0
BRH:0
LF:7
LH:0
end_of_record
SF:/home/runner/_work/Gestion-inmobiliaria/Gestion-inmobiliaria/backend/src/../migrations/m20250408_000005_create_pagos.rs
FN:8,_RNvXNtNtCskqrQbUAEY9O_18realestate_backend10migrations29m20250408_000005_create_pagosNtB2_9MigrationNtCsfJhJy70T9TW_17sea_orm_migration13MigrationName4name
FN:15,_RNvXs_NtNtCskqrQbUAEY9O_18realestate_backend10migrations29m20250408_000005_create_pagosNtB4_9MigrationNtCsfJhJy70T9TW_17sea_orm_migration14MigrationTrait2up
FN:103,_RNvXs_NtNtCskqrQbUAEY9O_18realestate_backend10migrations29m20250408_000005_create_pagosNtB4_9MigrationNtCsfJhJy70T9TW_17sea_orm_migration14MigrationTrait4down
FN:8,_RNvXNtNtCsbgKgox7znE6_18realestate_backend10migrations29m20250408_000005_create_pagosNtB2_9MigrationNtCsfJhJy70T9TW_17sea_orm_migration13MigrationName4name
FN:15,_RNvXs_NtNtCsbgKgox7znE6_18realestate_backend10migrations29m20250408_000005_create_pagosNtB4_9MigrationNtCsfJhJy70T9TW_17sea_orm_migration14MigrationTrait2up
FN:103,_RNvXs_NtNtCsbgKgox7znE6_18realestate_backend10migrations29m20250408_000005_create_pagosNtB4_9MigrationNtCsfJhJy70T9TW_17sea_orm_migration14MigrationTrait4down
FNDA:0,_RNvXNtNtCskqrQbUAEY9O_18realestate_backend10migrations29m20250408_000005_create_pagosNtB2_9MigrationNtCsfJhJy70T9TW_17sea_orm_migration13MigrationName4name
FNDA:0,_RNvXs_NtNtCskqrQbUAEY9O_18realestate_backend10migrations29m20250408_000005_create_pagosNtB4_9MigrationNtCsfJhJy70T9TW_17sea_orm_migration14MigrationTrait2up
FNDA:0,_RNvXs_NtNtCskqrQbUAEY9O_18realestate_backend10migrations29m20250408_000005_create_pagosNtB4_9MigrationNtCsfJhJy70T9TW_17sea_orm_migration14MigrationTrait4down
FNDA:0,_RNvXNtNtCsbgKgox7znE6_18realestate_backend10migrations29m20250408_000005_create_pagosNtB2_9MigrationNtCsfJhJy70T9TW_17sea_orm_migration13MigrationName4name
FNDA:0,_RNvXs_NtNtCsbgKgox7znE6_18realestate_backend10migrations29m20250408_000005_create_pagosNtB4_9MigrationNtCsfJhJy70T9TW_17sea_orm_migration14MigrationTrait2up
FNDA:0,_RNvXs_NtNtCsbgKgox7znE6_18realestate_backend10migrations29m20250408_000005_create_pagosNtB4_9MigrationNtCsfJhJy70T9TW_17sea_orm_migration14MigrationTrait4down
FNF:3
FNH:0
DA:8,0
DA:9,0
DA:10,0
DA:15,0
DA:101,0
DA:103,0
DA:107,0
BRF:0
BRH:0
LF:7
LH:0
end_of_record
SF:/home/runner/_work/Gestion-inmobiliaria/Gestion-inmobiliaria/backend/src/../migrations/m20250409_000001_create_registros_auditoria.rs
FN:8,_RNvXNtNtCskqrQbUAEY9O_18realestate_backend10migrations43m20250409_000001_create_registros_auditoriaNtB2_9MigrationNtCsfJhJy70T9TW_17sea_orm_migration13MigrationName4name
FN:15,_RNvXs_NtNtCskqrQbUAEY9O_18realestate_backend10migrations43m20250409_000001_create_registros_auditoriaNtB4_9MigrationNtCsfJhJy70T9TW_17sea_orm_migration14MigrationTrait2up
FN:114,_RNvXs_NtNtCskqrQbUAEY9O_18realestate_backend10migrations43m20250409_000001_create_registros_auditoriaNtB4_9MigrationNtCsfJhJy70T9TW_17sea_orm_migration14MigrationTrait4down
FN:8,_RNvXNtNtCsbgKgox7znE6_18realestate_backend10migrations43m20250409_000001_create_registros_auditoriaNtB2_9MigrationNtCsfJhJy70T9TW_17sea_orm_migration13MigrationName4name
FN:15,_RNvXs_NtNtCsbgKgox7znE6_18realestate_backend10migrations43m20250409_000001_create_registros_auditoriaNtB4_9MigrationNtCsfJhJy70T9TW_17sea_orm_migration14MigrationTrait2up
FN:114,_RNvXs_NtNtCsbgKgox7znE6_18realestate_backend10migrations43m20250409_000001_create_registros_auditoriaNtB4_9MigrationNtCsfJhJy70T9TW_17sea_orm_migration14MigrationTrait4down
FNDA:0,_RNvXNtNtCskqrQbUAEY9O_18realestate_backend10migrations43m20250409_000001_create_registros_auditoriaNtB2_9MigrationNtCsfJhJy70T9TW_17sea_orm_migration13MigrationName4name
FNDA:0,_RNvXs_NtNtCskqrQbUAEY9O_18realestate_backend10migrations43m20250409_000001_create_registros_auditoriaNtB4_9MigrationNtCsfJhJy70T9TW_17sea_orm_migration14MigrationTrait2up
FNDA:0,_RNvXs_NtNtCskqrQbUAEY9O_18realestate_backend10migrations43m20250409_000001_create_registros_auditoriaNtB4_9MigrationNtCsfJhJy70T9TW_17sea_orm_migration14MigrationTrait4down
FNDA:0,_RNvXNtNtCsbgKgox7znE6_18realestate_backend10migrations43m20250409_000001_create_registros_auditoriaNtB2_9MigrationNtCsfJhJy70T9TW_17sea_orm_migration13MigrationName4name
FNDA:0,_RNvXs_NtNtCsbgKgox7znE6_18realestate_backend10migrations43m20250409_000001_create_registros_auditoriaNtB4_9MigrationNtCsfJhJy70T9TW_17sea_orm_migration14MigrationTrait2up
FNDA:0,_RNvXs_NtNtCsbgKgox7znE6_18realestate_backend10migrations43m20250409_000001_create_registros_auditoriaNtB4_9MigrationNtCsfJhJy70T9TW_17sea_orm_migration14MigrationTrait4down
FNF:3
FNH:0
DA:8,0
DA:9,0
DA:10,0
DA:15,0
DA:112,0
DA:114,0
DA:118,0
BRF:0
BRH:0
LF:7
LH:0
end_of_record
SF:/home/runner/_work/Gestion-inmobiliaria/Gestion-inmobiliaria/backend/src/../migrations/m20250409_000002_create_documentos.rs
FN:8,_RNvXNtNtCskqrQbUAEY9O_18realestate_backend10migrations34m20250409_000002_create_documentosNtB2_9MigrationNtCsfJhJy70T9TW_17sea_orm_migration13MigrationName4name
FN:15,_RNvXs_NtNtCskqrQbUAEY9O_18realestate_backend10migrations34m20250409_000002_create_documentosNtB4_9MigrationNtCsfJhJy70T9TW_17sea_orm_migration14MigrationTrait2up
FN:106,_RNvXs_NtNtCskqrQbUAEY9O_18realestate_backend10migrations34m20250409_000002_create_documentosNtB4_9MigrationNtCsfJhJy70T9TW_17sea_orm_migration14MigrationTrait4down
FN:8,_RNvXNtNtCsbgKgox7znE6_18realestate_backend10migrations34m20250409_000002_create_documentosNtB2_9MigrationNtCsfJhJy70T9TW_17sea_orm_migration13MigrationName4name
FN:15,_RNvXs_NtNtCsbgKgox7znE6_18realestate_backend10migrations34m20250409_000002_create_documentosNtB4_9MigrationNtCsfJhJy70T9TW_17sea_orm_migration14MigrationTrait2up
FN:106,_RNvXs_NtNtCsbgKgox7znE6_18realestate_backend10migrations34m20250409_000002_create_documentosNtB4_9MigrationNtCsfJhJy70T9TW_17sea_orm_migration14MigrationTrait4down
FNDA:0,_RNvXNtNtCskqrQbUAEY9O_18realestate_backend10migrations34m20250409_000002_create_documentosNtB2_9MigrationNtCsfJhJy70T9TW_17sea_orm_migration13MigrationName4name
FNDA:0,_RNvXs_NtNtCskqrQbUAEY9O_18realestate_backend10migrations34m20250409_000002_create_documentosNtB4_9MigrationNtCsfJhJy70T9TW_17sea_orm_migration14MigrationTrait2up
FNDA:0,_RNvXs_NtNtCskqrQbUAEY9O_18realestate_backend10migrations34m20250409_000002_create_documentosNtB4_9MigrationNtCsfJhJy70T9TW_17sea_orm_migration14MigrationTrait4down
FNDA:0,_RNvXNtNtCsbgKgox7znE6_18realestate_backend10migrations34m20250409_000002_create_documentosNtB2_9MigrationNtCsfJhJy70T9TW_17sea_orm_migration13MigrationName4name
FNDA:0,_RNvXs_NtNtCsbgKgox7znE6_18realestate_backend10migrations34m20250409_000002_create_documentosNtB4_9MigrationNtCsfJhJy70T9TW_17sea_orm_migration14MigrationTrait2up
FNDA:0,_RNvXs_NtNtCsbgKgox7znE6_18realestate_backend10migrations34m20250409_000002_create_documentosNtB4_9MigrationNtCsfJhJy70T9TW_17sea_orm_migration14MigrationTrait4down
FNF:3
FNH:0
DA:8,0
DA:9,0
DA:10,0
DA:15,0
DA:104,0
DA:106,0
DA:110,0
BRF:0
BRH:0
LF:7
LH:0
end_of_record
SF:/home/runner/_work/Gestion-inmobiliaria/Gestion-inmobiliaria/backend/src/../migrations/m20250409_000003_create_configuracion.rs
FN:8,_RNvXNtNtCskqrQbUAEY9O_18realestate_backend10migrations37m20250409_000003_create_configuracionNtB2_9MigrationNtCsfJhJy70T9TW_17sea_orm_migration13MigrationName4name
FN:15,_RNvXs_NtNtCskqrQbUAEY9O_18realestate_backend10migrations37m20250409_000003_create_configuracionNtB4_9MigrationNtCsfJhJy70T9TW_17sea_orm_migration14MigrationTrait2up
FN:58,_RNvXs_NtNtCskqrQbUAEY9O_18realestate_backend10migrations37m20250409_000003_create_configuracionNtB4_9MigrationNtCsfJhJy70T9TW_17sea_orm_migration14MigrationTrait4down
FN:8,_RNvXNtNtCsbgKgox7znE6_18realestate_backend10migrations37m20250409_000003_create_configuracionNtB2_9MigrationNtCsfJhJy70T9TW_17sea_orm_migration13MigrationName4name
FN:15,_RNvXs_NtNtCsbgKgox7znE6_18realestate_backend10migrations37m20250409_000003_create_configuracionNtB4_9MigrationNtCsfJhJy70T9TW_17sea_orm_migration14MigrationTrait2up
FN:58,_RNvXs_NtNtCsbgKgox7znE6_18realestate_backend10migrations37m20250409_000003_create_configuracionNtB4_9MigrationNtCsfJhJy70T9TW_17sea_orm_migration14MigrationTrait4down
FNDA:0,_RNvXNtNtCskqrQbUAEY9O_18realestate_backend10migrations37m20250409_000003_create_configuracionNtB2_9MigrationNtCsfJhJy70T9TW_17sea_orm_migration13MigrationName4name
FNDA:0,_RNvXs_NtNtCskqrQbUAEY9O_18realestate_backend10migrations37m20250409_000003_create_configuracionNtB4_9MigrationNtCsfJhJy70T9TW_17sea_orm_migration14MigrationTrait2up
FNDA:0,_RNvXs_NtNtCskqrQbUAEY9O_18realestate_backend10migrations37m20250409_000003_create_configuracionNtB4_9MigrationNtCsfJhJy70T9TW_17sea_orm_migration14MigrationTrait4down
FNDA:0,_RNvXNtNtCsbgKgox7znE6_18realestate_backend10migrations37m20250409_000003_create_configuracionNtB2_9MigrationNtCsfJhJy70T9TW_17sea_orm_migration13MigrationName4name
FNDA:0,_RNvXs_NtNtCsbgKgox7znE6_18realestate_backend10migrations37m20250409_000003_create_configuracionNtB4_9MigrationNtCsfJhJy70T9TW_17sea_orm_migration14MigrationTrait2up
FNDA:0,_RNvXs_NtNtCsbgKgox7znE6_18realestate_backend10migrations37m20250409_000003_create_configuracionNtB4_9MigrationNtCsfJhJy70T9TW_17sea_orm_migration14MigrationTrait4down
FNF:3
FNH:0
DA:8,0
DA:9,0
DA:10,0
DA:15,0
DA:56,0
DA:58,0
DA:62,0
BRF:0
BRH:0
LF:7
LH:0
end_of_record
SF:/home/runner/_work/Gestion-inmobiliaria/Gestion-inmobiliaria/backend/src/../migrations/m20250409_000004_add_documentos_columns.rs
FN:6,_RNvXNtNtCskqrQbUAEY9O_18realestate_backend10migrations39m20250409_000004_add_documentos_columnsNtB2_9MigrationNtCsfJhJy70T9TW_17sea_orm_migration13MigrationName4name
FN:25,_RNvXs1_NtNtCskqrQbUAEY9O_18realestate_backend10migrations39m20250409_000004_add_documentos_columnsNtB5_9MigrationNtCsfJhJy70T9TW_17sea_orm_migration14MigrationTrait2up
FN:55,_RNvXs1_NtNtCskqrQbUAEY9O_18realestate_backend10migrations39m20250409_000004_add_documentos_columnsNtB5_9MigrationNtCsfJhJy70T9TW_17sea_orm_migration14MigrationTrait4down
FN:6,_RNvXNtNtCsbgKgox7znE6_18realestate_backend10migrations39m20250409_000004_add_documentos_columnsNtB2_9MigrationNtCsfJhJy70T9TW_17sea_orm_migration13MigrationName4name
FN:25,_RNvXs1_NtNtCsbgKgox7znE6_18realestate_backend10migrations39m20250409_000004_add_documentos_columnsNtB5_9MigrationNtCsfJhJy70T9TW_17sea_orm_migration14MigrationTrait2up
FN:55,_RNvXs1_NtNtCsbgKgox7znE6_18realestate_backend10migrations39m20250409_000004_add_documentos_columnsNtB5_9MigrationNtCsfJhJy70T9TW_17sea_orm_migration14MigrationTrait4down
FNDA:0,_RNvXNtNtCskqrQbUAEY9O_18realestate_backend10migrations39m20250409_000004_add_documentos_columnsNtB2_9MigrationNtCsfJhJy70T9TW_17sea_orm_migration13MigrationName4name
FNDA:0,_RNvXs1_NtNtCskqrQbUAEY9O_18realestate_backend10migrations39m20250409_000004_add_documentos_columnsNtB5_9MigrationNtCsfJhJy70T9TW_17sea_orm_migration14MigrationTrait2up
FNDA:0,_RNvXs1_NtNtCskqrQbUAEY9O_18realestate_backend10migrations39m20250409_000004_add_documentos_columnsNtB5_9MigrationNtCsfJhJy70T9TW_17sea_orm_migration14MigrationTrait4down
FNDA:0,_RNvXNtNtCsbgKgox7znE6_18realestate_backend10migrations39m20250409_000004_add_documentos_columnsNtB2_9MigrationNtCsfJhJy70T9TW_17sea_orm_migration13MigrationName4name
FNDA:0,_RNvXs1_NtNtCsbgKgox7znE6_18realestate_backend10migrations39m20250409_000004_add_documentos_columnsNtB5_9MigrationNtCsfJhJy70T9TW_17sea_orm_migration14MigrationTrait2up
FNDA:0,_RNvXs1_NtNtCsbgKgox7znE6_18realestate_backend10migrations39m20250409_000004_add_documentos_columnsNtB5_9MigrationNtCsfJhJy70T9TW_17sea_orm_migration14MigrationTrait4down
FNF:3
FNH:0
DA:6,0
DA:7,0
DA:8,0
DA:25,0
DA:53,0
DA:55,0
DA:75,0
BRF:0
BRH:0
LF:7
LH:0
end_of_record
SF:/home/runner/_work/Gestion-inmobiliaria/Gestion-inmobiliaria/backend/src/../migrations/m20250410_000001_create_unidades.rs
FN:8,_RNvXNtNtCskqrQbUAEY9O_18realestate_backend10migrations32m20250410_000001_create_unidadesNtB2_9MigrationNtCsfJhJy70T9TW_17sea_orm_migration13MigrationName4name
FN:15,_RNvXs_NtNtCskqrQbUAEY9O_18realestate_backend10migrations32m20250410_000001_create_unidadesNtB4_9MigrationNtCsfJhJy70T9TW_17sea_orm_migration14MigrationTrait2up
FN:115,_RNvXs_NtNtCskqrQbUAEY9O_18realestate_backend10migrations32m20250410_000001_create_unidadesNtB4_9MigrationNtCsfJhJy70T9TW_17sea_orm_migration14MigrationTrait4down
FN:8,_RNvXNtNtCsbgKgox7znE6_18realestate_backend10migrations32m20250410_000001_create_unidadesNtB2_9MigrationNtCsfJhJy70T9TW_17sea_orm_migration13MigrationName4name
FN:15,_RNvXs_NtNtCsbgKgox7znE6_18realestate_backend10migrations32m20250410_000001_create_unidadesNtB4_9MigrationNtCsfJhJy70T9TW_17sea_orm_migration14MigrationTrait2up
FN:115,_RNvXs_NtNtCsbgKgox7znE6_18realestate_backend10migrations32m20250410_000001_create_unidadesNtB4_9MigrationNtCsfJhJy70T9TW_17sea_orm_migration14MigrationTrait4down
FNDA:0,_RNvXNtNtCskqrQbUAEY9O_18realestate_backend10migrations32m20250410_000001_create_unidadesNtB2_9MigrationNtCsfJhJy70T9TW_17sea_orm_migration13MigrationName4name
FNDA:0,_RNvXs_NtNtCskqrQbUAEY9O_18realestate_backend10migrations32m20250410_000001_create_unidadesNtB4_9MigrationNtCsfJhJy70T9TW_17sea_orm_migration14MigrationTrait2up
FNDA:0,_RNvXs_NtNtCskqrQbUAEY9O_18realestate_backend10migrations32m20250410_000001_create_unidadesNtB4_9MigrationNtCsfJhJy70T9TW_17sea_orm_migration14MigrationTrait4down
FNDA:0,_RNvXNtNtCsbgKgox7znE6_18realestate_backend10migrations32m20250410_000001_create_unidadesNtB2_9MigrationNtCsfJhJy70T9TW_17sea_orm_migration13MigrationName4name
FNDA:0,_RNvXs_NtNtCsbgKgox7znE6_18realestate_backend10migrations32m20250410_000001_create_unidadesNtB4_9MigrationNtCsfJhJy70T9TW_17sea_orm_migration14MigrationTrait2up
FNDA:0,_RNvXs_NtNtCsbgKgox7znE6_18realestate_backend10migrations32m20250410_000001_create_unidadesNtB4_9MigrationNtCsfJhJy70T9TW_17sea_orm_migration14MigrationTrait4down
FNF:3
FNH:0
DA:8,0
DA:9,0
DA:10,0
DA:15,0
DA:113,0
DA:115,0
DA:119,0
BRF:0
BRH:0
LF:7
LH:0
end_of_record
SF:/home/runner/_work/Gestion-inmobiliaria/Gestion-inmobiliaria/backend/src/../migrations/m20250411_000001_create_solicitudes_mantenimiento.rs
FN:10,_RNvXNtNtCskqrQbUAEY9O_18realestate_backend10migrations49m20250411_000001_create_solicitudes_mantenimientoNtB2_9MigrationNtCsfJhJy70T9TW_17sea_orm_migration13MigrationName4name
FN:17,_RNvXs_NtNtCskqrQbUAEY9O_18realestate_backend10migrations49m20250411_000001_create_solicitudes_mantenimientoNtB4_9MigrationNtCsfJhJy70T9TW_17sea_orm_migration14MigrationTrait2up
FN:160,_RNvXs_NtNtCskqrQbUAEY9O_18realestate_backend10migrations49m20250411_000001_create_solicitudes_mantenimientoNtB4_9MigrationNtCsfJhJy70T9TW_17sea_orm_migration14MigrationTrait4down
FN:10,_RNvXNtNtCsbgKgox7znE6_18realestate_backend10migrations49m20250411_000001_create_solicitudes_mantenimientoNtB2_9MigrationNtCsfJhJy70T9TW_17sea_orm_migration13MigrationName4name
FN:17,_RNvXs_NtNtCsbgKgox7znE6_18realestate_backend10migrations49m20250411_000001_create_solicitudes_mantenimientoNtB4_9MigrationNtCsfJhJy70T9TW_17sea_orm_migration14MigrationTrait2up
FN:160,_RNvXs_NtNtCsbgKgox7znE6_18realestate_backend10migrations49m20250411_000001_create_solicitudes_mantenimientoNtB4_9MigrationNtCsfJhJy70T9TW_17sea_orm_migration14MigrationTrait4down
FNDA:0,_RNvXNtNtCskqrQbUAEY9O_18realestate_backend10migrations49m20250411_000001_create_solicitudes_mantenimientoNtB2_9MigrationNtCsfJhJy70T9TW_17sea_orm_migration13MigrationName4name
FNDA:0,_RNvXs_NtNtCskqrQbUAEY9O_18realestate_backend10migrations49m20250411_000001_create_solicitudes_mantenimientoNtB4_9MigrationNtCsfJhJy70T9TW_17sea_orm_migration14MigrationTrait2up
FNDA:0,_RNvXs_NtNtCskqrQbUAEY9O_18realestate_backend10migrations49m20250411_000001_create_solicitudes_mantenimientoNtB4_9MigrationNtCsfJhJy70T9TW_17sea_orm_migration14MigrationTrait4down
FNDA:0,_RNvXNtNtCsbgKgox7znE6_18realestate_backend10migrations49m20250411_000001_create_solicitudes_mantenimientoNtB2_9MigrationNtCsfJhJy70T9TW_17sea_orm_migration13MigrationName4name
FNDA:0,_RNvXs_NtNtCsbgKgox7znE6_18realestate_backend10migrations49m20250411_000001_create_solicitudes_mantenimientoNtB4_9MigrationNtCsfJhJy70T9TW_17sea_orm_migration14MigrationTrait2up
FNDA:0,_RNvXs_NtNtCsbgKgox7znE6_18realestate_backend10migrations49m20250411_000001_create_solicitudes_mantenimientoNtB4_9MigrationNtCsfJhJy70T9TW_17sea_orm_migration14MigrationTrait4down
FNF:3
FNH:0
DA:10,0
DA:11,0
DA:12,0
DA:17,0
DA:158,0
DA:160,0
DA:168,0
BRF:0
BRH:0
LF:7
LH:0
end_of_record
SF:/home/runner/_work/Gestion-inmobiliaria/Gestion-inmobiliaria/backend/src/../migrations/m20250411_000002_create_notas_mantenimiento.rs
FN:9,_RNvXNtNtCskqrQbUAEY9O_18realestate_backend10migrations43m20250411_000002_create_notas_mantenimientoNtB2_9MigrationNtCsfJhJy70T9TW_17sea_orm_migration13MigrationName4name
FN:16,_RNvXs_NtNtCskqrQbUAEY9O_18realestate_backend10migrations43m20250411_000002_create_notas_mantenimientoNtB4_9MigrationNtCsfJhJy70T9TW_17sea_orm_migration14MigrationTrait2up
FN:86,_RNvXs_NtNtCskqrQbUAEY9O_18realestate_backend10migrations43m20250411_000002_create_notas_mantenimientoNtB4_9MigrationNtCsfJhJy70T9TW_17sea_orm_migration14MigrationTrait4down
FN:9,_RNvXNtNtCsbgKgox7znE6_18realestate_backend10migrations43m20250411_000002_create_notas_mantenimientoNtB2_9MigrationNtCsfJhJy70T9TW_17sea_orm_migration13MigrationName4name
FN:16,_RNvXs_NtNtCsbgKgox7znE6_18realestate_backend10migrations43m20250411_000002_create_notas_mantenimientoNtB4_9MigrationNtCsfJhJy70T9TW_17sea_orm_migration14MigrationTrait2up
FN:86,_RNvXs_NtNtCsbgKgox7znE6_18realestate_backend10migrations43m20250411_000002_create_notas_mantenimientoNtB4_9MigrationNtCsfJhJy70T9TW_17sea_orm_migration14MigrationTrait4down
FNDA:0,_RNvXNtNtCskqrQbUAEY9O_18realestate_backend10migrations43m20250411_000002_create_notas_mantenimientoNtB2_9MigrationNtCsfJhJy70T9TW_17sea_orm_migration13MigrationName4name
FNDA:0,_RNvXs_NtNtCskqrQbUAEY9O_18realestate_backend10migrations43m20250411_000002_create_notas_mantenimientoNtB4_9MigrationNtCsfJhJy70T9TW_17sea_orm_migration14MigrationTrait2up
FNDA:0,_RNvXs_NtNtCskqrQbUAEY9O_18realestate_backend10migrations43m20250411_000002_create_notas_mantenimientoNtB4_9MigrationNtCsfJhJy70T9TW_17sea_orm_migration14MigrationTrait4down
FNDA:0,_RNvXNtNtCsbgKgox7znE6_18realestate_backend10migrations43m20250411_000002_create_notas_mantenimientoNtB2_9MigrationNtCsfJhJy70T9TW_17sea_orm_migration13MigrationName4name
FNDA:0,_RNvXs_NtNtCsbgKgox7znE6_18realestate_backend10migrations43m20250411_000002_create_notas_mantenimientoNtB4_9MigrationNtCsfJhJy70T9TW_17sea_orm_migration14MigrationTrait2up
FNDA:0,_RNvXs_NtNtCsbgKgox7znE6_18realestate_backend10migrations43m20250411_000002_create_notas_mantenimientoNtB4_9MigrationNtCsfJhJy70T9TW_17sea_orm_migration14MigrationTrait4down
FNF:3
FNH:0
DA:9,0
DA:10,0
DA:11,0
DA:16,0
DA:84,0
DA:86,0
DA:90,0
BRF:0
BRH:0
LF:7
LH:0
end_of_record
SF:/home/runner/_work/Gestion-inmobiliaria/Gestion-inmobiliaria/backend/src/../migrations/m20250412_000001_create_gastos.rs
FN:9,_RNvXNtNtCskqrQbUAEY9O_18realestate_backend10migrations30m20250412_000001_create_gastosNtB2_9MigrationNtCsfJhJy70T9TW_17sea_orm_migration13MigrationName4name
FN:16,_RNvXs_NtNtCskqrQbUAEY9O_18realestate_backend10migrations30m20250412_000001_create_gastosNtB4_9MigrationNtCsfJhJy70T9TW_17sea_orm_migration14MigrationTrait2up
FN:139,_RNvXs_NtNtCskqrQbUAEY9O_18realestate_backend10migrations30m20250412_000001_create_gastosNtB4_9MigrationNtCsfJhJy70T9TW_17sea_orm_migration14MigrationTrait4down
FN:9,_RNvXNtNtCsbgKgox7znE6_18realestate_backend10migrations30m20250412_000001_create_gastosNtB2_9MigrationNtCsfJhJy70T9TW_17sea_orm_migration13MigrationName4name
FN:16,_RNvXs_NtNtCsbgKgox7znE6_18realestate_backend10migrations30m20250412_000001_create_gastosNtB4_9MigrationNtCsfJhJy70T9TW_17sea_orm_migration14MigrationTrait2up
FN:139,_RNvXs_NtNtCsbgKgox7znE6_18realestate_backend10migrations30m20250412_000001_create_gastosNtB4_9MigrationNtCsfJhJy70T9TW_17sea_orm_migration14MigrationTrait4down
FNDA:0,_RNvXNtNtCskqrQbUAEY9O_18realestate_backend10migrations30m20250412_000001_create_gastosNtB2_9MigrationNtCsfJhJy70T9TW_17sea_orm_migration13MigrationName4name
FNDA:0,_RNvXs_NtNtCskqrQbUAEY9O_18realestate_backend10migrations30m20250412_000001_create_gastosNtB4_9MigrationNtCsfJhJy70T9TW_17sea_orm_migration14MigrationTrait2up
FNDA:0,_RNvXs_NtNtCskqrQbUAEY9O_18realestate_backend10migrations30m20250412_000001_create_gastosNtB4_9MigrationNtCsfJhJy70T9TW_17sea_orm_migration14MigrationTrait4down
FNDA:0,_RNvXNtNtCsbgKgox7znE6_18realestate_backend10migrations30m20250412_000001_create_gastosNtB2_9MigrationNtCsfJhJy70T9TW_17sea_orm_migration13MigrationName4name
FNDA:0,_RNvXs_NtNtCsbgKgox7znE6_18realestate_backend10migrations30m20250412_000001_create_gastosNtB4_9MigrationNtCsfJhJy70T9TW_17sea_orm_migration14MigrationTrait2up
FNDA:0,_RNvXs_NtNtCsbgKgox7znE6_18realestate_backend10migrations30m20250412_000001_create_gastosNtB4_9MigrationNtCsfJhJy70T9TW_17sea_orm_migration14MigrationTrait4down
FNF:3
FNH:0
DA:9,0
DA:10,0
DA:11,0
DA:16,0
DA:137,0
DA:139,0
DA:143,0
BRF:0
BRH:0
LF:7
LH:0
end_of_record
SF:/home/runner/_work/Gestion-inmobiliaria/Gestion-inmobiliaria/backend/src/../migrations/m20250413_000001_create_organizaciones.rs
FN:6,_RNvXNtNtCskqrQbUAEY9O_18realestate_backend10migrations38m20250413_000001_create_organizacionesNtB2_9MigrationNtCsfJhJy70T9TW_17sea_orm_migration13MigrationName4name
FN:13,_RNvXs_NtNtCskqrQbUAEY9O_18realestate_backend10migrations38m20250413_000001_create_organizacionesNtB4_9MigrationNtCsfJhJy70T9TW_17sea_orm_migration14MigrationTrait2up
FN:86,_RNvXs_NtNtCskqrQbUAEY9O_18realestate_backend10migrations38m20250413_000001_create_organizacionesNtB4_9MigrationNtCsfJhJy70T9TW_17sea_orm_migration14MigrationTrait4down
FN:6,_RNvXNtNtCsbgKgox7znE6_18realestate_backend10migrations38m20250413_000001_create_organizacionesNtB2_9MigrationNtCsfJhJy70T9TW_17sea_orm_migration13MigrationName4name
FN:13,_RNvXs_NtNtCsbgKgox7znE6_18realestate_backend10migrations38m20250413_000001_create_organizacionesNtB4_9MigrationNtCsfJhJy70T9TW_17sea_orm_migration14MigrationTrait2up
FN:86,_RNvXs_NtNtCsbgKgox7znE6_18realestate_backend10migrations38m20250413_000001_create_organizacionesNtB4_9MigrationNtCsfJhJy70T9TW_17sea_orm_migration14MigrationTrait4down
FNDA:0,_RNvXNtNtCskqrQbUAEY9O_18realestate_backend10migrations38m20250413_000001_create_organizacionesNtB2_9MigrationNtCsfJhJy70T9TW_17sea_orm_migration13MigrationName4name
FNDA:0,_RNvXs_NtNtCskqrQbUAEY9O_18realestate_backend10migrations38m20250413_000001_create_organizacionesNtB4_9MigrationNtCsfJhJy70T9TW_17sea_orm_migration14MigrationTrait2up
FNDA:0,_RNvXs_NtNtCskqrQbUAEY9O_18realestate_backend10migrations38m20250413_000001_create_organizacionesNtB4_9MigrationNtCsfJhJy70T9TW_17sea_orm_migration14MigrationTrait4down
FNDA:0,_RNvXNtNtCsbgKgox7znE6_18realestate_backend10migrations38m20250413_000001_create_organizacionesNtB2_9MigrationNtCsfJhJy70T9TW_17sea_orm_migration13MigrationName4name
FNDA:0,_RNvXs_NtNtCsbgKgox7znE6_18realestate_backend10migrations38m20250413_000001_create_organizacionesNtB4_9MigrationNtCsfJhJy70T9TW_17sea_orm_migration14MigrationTrait2up
FNDA:0,_RNvXs_NtNtCsbgKgox7znE6_18realestate_backend10migrations38m20250413_000001_create_organizacionesNtB4_9MigrationNtCsfJhJy70T9TW_17sea_orm_migration14MigrationTrait4down
FNF:3
FNH:0
DA:6,0
DA:7,0
DA:8,0
DA:13,0
DA:84,0
DA:86,0
DA:90,0
BRF:0
BRH:0
LF:7
LH:0
end_of_record
SF:/home/runner/_work/Gestion-inmobiliaria/Gestion-inmobiliaria/backend/src/../migrations/m20250413_000002_add_organizacion_id.rs
FN:7,_RNvXNtNtCskqrQbUAEY9O_18realestate_backend10migrations36m20250413_000002_add_organizacion_idNtB2_9MigrationNtCsfJhJy70T9TW_17sea_orm_migration13MigrationName4name
FN:25,_RNvXs_NtNtCskqrQbUAEY9O_18realestate_backend10migrations36m20250413_000002_add_organizacion_idNtB4_9MigrationNtCsfJhJy70T9TW_17sea_orm_migration14MigrationTrait2up
FN:87,_RNvXs_NtNtCskqrQbUAEY9O_18realestate_backend10migrations36m20250413_000002_add_organizacion_idNtB4_9MigrationNtCsfJhJy70T9TW_17sea_orm_migration14MigrationTrait4down
FN:7,_RNvXNtNtCsbgKgox7znE6_18realestate_backend10migrations36m20250413_000002_add_organizacion_idNtB2_9MigrationNtCsfJhJy70T9TW_17sea_orm_migration13MigrationName4name
FN:25,_RNvXs_NtNtCsbgKgox7znE6_18realestate_backend10migrations36m20250413_000002_add_organizacion_idNtB4_9MigrationNtCsfJhJy70T9TW_17sea_orm_migration14MigrationTrait2up
FN:87,_RNvXs_NtNtCsbgKgox7znE6_18realestate_backend10migrations36m20250413_000002_add_organizacion_idNtB4_9MigrationNtCsfJhJy70T9TW_17sea_orm_migration14MigrationTrait4down
FNDA:0,_RNvXNtNtCskqrQbUAEY9O_18realestate_backend10migrations36m20250413_000002_add_organizacion_idNtB2_9MigrationNtCsfJhJy70T9TW_17sea_orm_migration13MigrationName4name
FNDA:0,_RNvXs_NtNtCskqrQbUAEY9O_18realestate_backend10migrations36m20250413_000002_add_organizacion_idNtB4_9MigrationNtCsfJhJy70T9TW_17sea_orm_migration14MigrationTrait2up
FNDA:0,_RNvXs_NtNtCskqrQbUAEY9O_18realestate_backend10migrations36m20250413_000002_add_organizacion_idNtB4_9MigrationNtCsfJhJy70T9TW_17sea_orm_migration14MigrationTrait4down
FNDA:0,_RNvXNtNtCsbgKgox7znE6_18realestate_backend10migrations36m20250413_000002_add_organizacion_idNtB2_9MigrationNtCsfJhJy70T9TW_17sea_orm_migration13MigrationName4name
FNDA:0,_RNvXs_NtNtCsbgKgox7znE6_18realestate_backend10migrations36m20250413_000002_add_organizacion_idNtB4_9MigrationNtCsfJhJy70T9TW_17sea_orm_migration14MigrationTrait2up
FNDA:0,_RNvXs_NtNtCsbgKgox7znE6_18realestate_backend10migrations36m20250413_000002_add_organizacion_idNtB4_9MigrationNtCsfJhJy70T9TW_17sea_orm_migration14MigrationTrait4down
FNF:3
FNH:0
DA:7,0
DA:8,0
DA:9,0
DA:25,0
DA:85,0
DA:87,0
DA:117,0
BRF:0
BRH:0
LF:7
LH:0
end_of_record
SF:/home/runner/_work/Gestion-inmobiliaria/Gestion-inmobiliaria/backend/src/../migrations/m20250413_000003_create_invitaciones.rs
FN:8,_RNvXNtNtCskqrQbUAEY9O_18realestate_backend10migrations36m20250413_000003_create_invitacionesNtB2_9MigrationNtCsfJhJy70T9TW_17sea_orm_migration13MigrationName4name
FN:15,_RNvXs_NtNtCskqrQbUAEY9O_18realestate_backend10migrations36m20250413_000003_create_invitacionesNtB4_9MigrationNtCsfJhJy70T9TW_17sea_orm_migration14MigrationTrait2up
FN:101,_RNvXs_NtNtCskqrQbUAEY9O_18realestate_backend10migrations36m20250413_000003_create_invitacionesNtB4_9MigrationNtCsfJhJy70T9TW_17sea_orm_migration14MigrationTrait4down
FN:8,_RNvXNtNtCsbgKgox7znE6_18realestate_backend10migrations36m20250413_000003_create_invitacionesNtB2_9MigrationNtCsfJhJy70T9TW_17sea_orm_migration13MigrationName4name
FN:15,_RNvXs_NtNtCsbgKgox7znE6_18realestate_backend10migrations36m20250413_000003_create_invitacionesNtB4_9MigrationNtCsfJhJy70T9TW_17sea_orm_migration14MigrationTrait2up
FN:101,_RNvXs_NtNtCsbgKgox7znE6_18realestate_backend10migrations36m20250413_000003_create_invitacionesNtB4_9MigrationNtCsfJhJy70T9TW_17sea_orm_migration14MigrationTrait4down
FNDA:0,_RNvXNtNtCskqrQbUAEY9O_18realestate_backend10migrations36m20250413_000003_create_invitacionesNtB2_9MigrationNtCsfJhJy70T9TW_17sea_orm_migration13MigrationName4name
FNDA:0,_RNvXs_NtNtCskqrQbUAEY9O_18realestate_backend10migrations36m20250413_000003_create_invitacionesNtB4_9MigrationNtCsfJhJy70T9TW_17sea_orm_migration14MigrationTrait2up
FNDA:0,_RNvXs_NtNtCskqrQbUAEY9O_18realestate_backend10migrations36m20250413_000003_create_invitacionesNtB4_9MigrationNtCsfJhJy70T9TW_17sea_orm_migration14MigrationTrait4down
FNDA:0,_RNvXNtNtCsbgKgox7znE6_18realestate_backend10migrations36m20250413_000003_create_invitacionesNtB2_9MigrationNtCsfJhJy70T9TW_17sea_orm_migration13MigrationName4name
FNDA:0,_RNvXs_NtNtCsbgKgox7znE6_18realestate_backend10migrations36m20250413_000003_create_invitacionesNtB4_9MigrationNtCsfJhJy70T9TW_17sea_orm_migration14MigrationTrait2up
FNDA:0,_RNvXs_NtNtCsbgKgox7znE6_18realestate_backend10migrations36m20250413_000003_create_invitacionesNtB4_9MigrationNtCsfJhJy70T9TW_17sea_orm_migration14MigrationTrait4down
FNF:3
FNH:0
DA:8,0
DA:9,0
DA:10,0
DA:15,0
DA:99,0
DA:101,0
DA:105,0
BRF:0
BRH:0
LF:7
LH:0
end_of_record
SF:/home/runner/_work/Gestion-inmobiliaria/Gestion-inmobiliaria/backend/src/../migrations/m20250430_000001_extend_documentos_legal.rs
FN:9,_RNvXNtNtCskqrQbUAEY9O_18realestate_backend10migrations40m20250430_000001_extend_documentos_legalNtB2_9MigrationNtCsfJhJy70T9TW_17sea_orm_migration13MigrationName4name
FN:27,_RNvXs0_NtNtCskqrQbUAEY9O_18realestate_backend10migrations40m20250430_000001_extend_documentos_legalNtB5_9MigrationNtCsfJhJy70T9TW_17sea_orm_migration14MigrationTrait2up
FN:158,_RNvXs0_NtNtCskqrQbUAEY9O_18realestate_backend10migrations40m20250430_000001_extend_documentos_legalNtB5_9MigrationNtCsfJhJy70T9TW_17sea_orm_migration14MigrationTrait4down
FN:9,_RNvXNtNtCsbgKgox7znE6_18realestate_backend10migrations40m20250430_000001_extend_documentos_legalNtB2_9MigrationNtCsfJhJy70T9TW_17sea_orm_migration13MigrationName4name
FN:27,_RNvXs0_NtNtCsbgKgox7znE6_18realestate_backend10migrations40m20250430_000001_extend_documentos_legalNtB5_9MigrationNtCsfJhJy70T9TW_17sea_orm_migration14MigrationTrait2up
FN:158,_RNvXs0_NtNtCsbgKgox7znE6_18realestate_backend10migrations40m20250430_000001_extend_documentos_legalNtB5_9MigrationNtCsfJhJy70T9TW_17sea_orm_migration14MigrationTrait4down
FNDA:0,_RNvXNtNtCskqrQbUAEY9O_18realestate_backend10migrations40m20250430_000001_extend_documentos_legalNtB2_9MigrationNtCsfJhJy70T9TW_17sea_orm_migration13MigrationName4name
FNDA:0,_RNvXs0_NtNtCskqrQbUAEY9O_18realestate_backend10migrations40m20250430_000001_extend_documentos_legalNtB5_9MigrationNtCsfJhJy70T9TW_17sea_orm_migration14MigrationTrait2up
FNDA:0,_RNvXs0_NtNtCskqrQbUAEY9O_18realestate_backend10migrations40m20250430_000001_extend_documentos_legalNtB5_9MigrationNtCsfJhJy70T9TW_17sea_orm_migration14MigrationTrait4down
FNDA:0,_RNvXNtNtCsbgKgox7znE6_18realestate_backend10migrations40m20250430_000001_extend_documentos_legalNtB2_9MigrationNtCsfJhJy70T9TW_17sea_orm_migration13MigrationName4name
FNDA:0,_RNvXs0_NtNtCsbgKgox7znE6_18realestate_backend10migrations40m20250430_000001_extend_documentos_legalNtB5_9MigrationNtCsfJhJy70T9TW_17sea_orm_migration14MigrationTrait2up
FNDA:0,_RNvXs0_NtNtCsbgKgox7znE6_18realestate_backend10migrations40m20250430_000001_extend_documentos_legalNtB5_9MigrationNtCsfJhJy70T9TW_17sea_orm_migration14MigrationTrait4down
FNF:3
FNH:0
DA:9,0
DA:10,0
DA:11,0
DA:27,0
DA:156,0
DA:158,0
DA:262,0
BRF:0
BRH:0
LF:7
LH:0
end_of_record
SF:/home/runner/_work/Gestion-inmobiliaria/Gestion-inmobiliaria/backend/src/../migrations/m20250430_000002_add_documentos_editor.rs
FN:8,_RNvXNtNtCskqrQbUAEY9O_18realestate_backend10migrations38m20250430_000002_add_documentos_editorNtB2_9MigrationNtCsfJhJy70T9TW_17sea_orm_migration13MigrationName4name
FN:21,_RNvXs0_NtNtCskqrQbUAEY9O_18realestate_backend10migrations38m20250430_000002_add_documentos_editorNtB5_9MigrationNtCsfJhJy70T9TW_17sea_orm_migration14MigrationTrait2up
FN:47,_RNvXs0_NtNtCskqrQbUAEY9O_18realestate_backend10migrations38m20250430_000002_add_documentos_editorNtB5_9MigrationNtCsfJhJy70T9TW_17sea_orm_migration14MigrationTrait4down
FN:8,_RNvXNtNtCsbgKgox7znE6_18realestate_backend10migrations38m20250430_000002_add_documentos_editorNtB2_9MigrationNtCsfJhJy70T9TW_17sea_orm_migration13MigrationName4name
FN:21,_RNvXs0_NtNtCsbgKgox7znE6_18realestate_backend10migrations38m20250430_000002_add_documentos_editorNtB5_9MigrationNtCsfJhJy70T9TW_17sea_orm_migration14MigrationTrait2up
FN:47,_RNvXs0_NtNtCsbgKgox7znE6_18realestate_backend10migrations38m20250430_000002_add_documentos_editorNtB5_9MigrationNtCsfJhJy70T9TW_17sea_orm_migration14MigrationTrait4down
FNDA:0,_RNvXNtNtCskqrQbUAEY9O_18realestate_backend10migrations38m20250430_000002_add_documentos_editorNtB2_9MigrationNtCsfJhJy70T9TW_17sea_orm_migration13MigrationName4name
FNDA:0,_RNvXs0_NtNtCskqrQbUAEY9O_18realestate_backend10migrations38m20250430_000002_add_documentos_editorNtB5_9MigrationNtCsfJhJy70T9TW_17sea_orm_migration14MigrationTrait2up
FNDA:0,_RNvXs0_NtNtCskqrQbUAEY9O_18realestate_backend10migrations38m20250430_000002_add_documentos_editorNtB5_9MigrationNtCsfJhJy70T9TW_17sea_orm_migration14MigrationTrait4down
FNDA:0,_RNvXNtNtCsbgKgox7znE6_18realestate_backend10migrations38m20250430_000002_add_documentos_editorNtB2_9MigrationNtCsfJhJy70T9TW_17sea_orm_migration13MigrationName4name
FNDA:0,_RNvXs0_NtNtCsbgKgox7znE6_18realestate_backend10migrations38m20250430_000002_add_documentos_editorNtB5_9MigrationNtCsfJhJy70T9TW_17sea_orm_migration14MigrationTrait2up
FNDA:0,_RNvXs0_NtNtCsbgKgox7znE6_18realestate_backend10migrations38m20250430_000002_add_documentos_editorNtB5_9MigrationNtCsfJhJy70T9TW_17sea_orm_migration14MigrationTrait4down
FNF:3
FNH:0
DA:8,0
DA:9,0
DA:10,0
DA:21,0
DA:45,0
DA:47,0
DA:67,0
BRF:0
BRH:0
LF:7
LH:0
end_of_record
SF:/home/runner/_work/Gestion-inmobiliaria/Gestion-inmobiliaria/backend/src/../migrations/m20250430_000003_create_plantillas_documento.rs
FN:6,_RNvXNtNtCskqrQbUAEY9O_18realestate_backend10migrations44m20250430_000003_create_plantillas_documentoNtB2_9MigrationNtCsfJhJy70T9TW_17sea_orm_migration13MigrationName4name
FN:26,_RNvXs0_NtNtCskqrQbUAEY9O_18realestate_backend10migrations44m20250430_000003_create_plantillas_documentoNtB5_9MigrationNtCsfJhJy70T9TW_17sea_orm_migration14MigrationTrait2up
FN:235,_RNvXs0_NtNtCskqrQbUAEY9O_18realestate_backend10migrations44m20250430_000003_create_plantillas_documentoNtB5_9MigrationNtCsfJhJy70T9TW_17sea_orm_migration14MigrationTrait4down
FN:6,_RNvXNtNtCsbgKgox7znE6_18realestate_backend10migrations44m20250430_000003_create_plantillas_documentoNtB2_9MigrationNtCsfJhJy70T9TW_17sea_orm_migration13MigrationName4name
FN:26,_RNvXs0_NtNtCsbgKgox7znE6_18realestate_backend10migrations44m20250430_000003_create_plantillas_documentoNtB5_9MigrationNtCsfJhJy70T9TW_17sea_orm_migration14MigrationTrait2up
FN:235,_RNvXs0_NtNtCsbgKgox7znE6_18realestate_backend10migrations44m20250430_000003_create_plantillas_documentoNtB5_9MigrationNtCsfJhJy70T9TW_17sea_orm_migration14MigrationTrait4down
FNDA:0,_RNvXNtNtCskqrQbUAEY9O_18realestate_backend10migrations44m20250430_000003_create_plantillas_documentoNtB2_9MigrationNtCsfJhJy70T9TW_17sea_orm_migration13MigrationName4name
FNDA:0,_RNvXs0_NtNtCskqrQbUAEY9O_18realestate_backend10migrations44m20250430_000003_create_plantillas_documentoNtB5_9MigrationNtCsfJhJy70T9TW_17sea_orm_migration14MigrationTrait2up
FNDA:0,_RNvXs0_NtNtCskqrQbUAEY9O_18realestate_backend10migrations44m20250430_000003_create_plantillas_documentoNtB5_9MigrationNtCsfJhJy70T9TW_17sea_orm_migration14MigrationTrait4down
FNDA:0,_RNvXNtNtCsbgKgox7znE6_18realestate_backend10migrations44m20250430_000003_create_plantillas_documentoNtB2_9MigrationNtCsfJhJy70T9TW_17sea_orm_migration13MigrationName4name
FNDA:0,_RNvXs0_NtNtCsbgKgox7znE6_18realestate_backend10migrations44m20250430_000003_create_plantillas_documentoNtB5_9MigrationNtCsfJhJy70T9TW_17sea_orm_migration14MigrationTrait2up
FNDA:0,_RNvXs0_NtNtCsbgKgox7znE6_18realestate_backend10migrations44m20250430_000003_create_plantillas_documentoNtB5_9MigrationNtCsfJhJy70T9TW_17sea_orm_migration14MigrationTrait4down
FNF:3
FNH:0
DA:6,0
DA:7,0
DA:8,0
DA:26,0
DA:233,0
DA:235,0
DA:239,0
BRF:0
BRH:0
LF:7
LH:0
end_of_record
SF:/home/runner/_work/Gestion-inmobiliaria/Gestion-inmobiliaria/backend/src/../migrations/m20250501_000001_create_notificaciones.rs
FN:9,_RNvXNtNtCskqrQbUAEY9O_18realestate_backend10migrations38m20250501_000001_create_notificacionesNtB2_9MigrationNtCsfJhJy70T9TW_17sea_orm_migration13MigrationName4name
FN:16,_RNvXs_NtNtCskqrQbUAEY9O_18realestate_backend10migrations38m20250501_000001_create_notificacionesNtB4_9MigrationNtCsfJhJy70T9TW_17sea_orm_migration14MigrationTrait2up
FN:142,_RNvXs_NtNtCskqrQbUAEY9O_18realestate_backend10migrations38m20250501_000001_create_notificacionesNtB4_9MigrationNtCsfJhJy70T9TW_17sea_orm_migration14MigrationTrait4down
FN:9,_RNvXNtNtCsbgKgox7znE6_18realestate_backend10migrations38m20250501_000001_create_notificacionesNtB2_9MigrationNtCsfJhJy70T9TW_17sea_orm_migration13MigrationName4name
FN:16,_RNvXs_NtNtCsbgKgox7znE6_18realestate_backend10migrations38m20250501_000001_create_notificacionesNtB4_9MigrationNtCsfJhJy70T9TW_17sea_orm_migration14MigrationTrait2up
FN:142,_RNvXs_NtNtCsbgKgox7znE6_18realestate_backend10migrations38m20250501_000001_create_notificacionesNtB4_9MigrationNtCsfJhJy70T9TW_17sea_orm_migration14MigrationTrait4down
FNDA:0,_RNvXNtNtCskqrQbUAEY9O_18realestate_backend10migrations38m20250501_000001_create_notificacionesNtB2_9MigrationNtCsfJhJy70T9TW_17sea_orm_migration13MigrationName4name
FNDA:0,_RNvXs_NtNtCskqrQbUAEY9O_18realestate_backend10migrations38m20250501_000001_create_notificacionesNtB4_9MigrationNtCsfJhJy70T9TW_17sea_orm_migration14MigrationTrait2up
FNDA:0,_RNvXs_NtNtCskqrQbUAEY9O_18realestate_backend10migrations38m20250501_000001_create_notificacionesNtB4_9MigrationNtCsfJhJy70T9TW_17sea_orm_migration14MigrationTrait4down
FNDA:0,_RNvXNtNtCsbgKgox7znE6_18realestate_backend10migrations38m20250501_000001_create_notificacionesNtB2_9MigrationNtCsfJhJy70T9TW_17sea_orm_migration13MigrationName4name
FNDA:0,_RNvXs_NtNtCsbgKgox7znE6_18realestate_backend10migrations38m20250501_000001_create_notificacionesNtB4_9MigrationNtCsfJhJy70T9TW_17sea_orm_migration14MigrationTrait2up
FNDA:0,_RNvXs_NtNtCsbgKgox7znE6_18realestate_backend10migrations38m20250501_000001_create_notificacionesNtB4_9MigrationNtCsfJhJy70T9TW_17sea_orm_migration14MigrationTrait4down
FNF:3
FNH:0
DA:9,0
DA:10,0
DA:11,0
DA:16,0
DA:140,0
DA:142,0
DA:146,0
BRF:0
BRH:0
LF:7
LH:0
end_of_record
SF:/home/runner/_work/Gestion-inmobiliaria/Gestion-inmobiliaria/backend/src/../migrations/m20250601_000001_create_ejecuciones_tareas.rs
FN:6,_RNvXNtNtCskqrQbUAEY9O_18realestate_backend10migrations42m20250601_000001_create_ejecuciones_tareasNtB2_9MigrationNtCsfJhJy70T9TW_17sea_orm_migration13MigrationName4name
FN:13,_RNvXs_NtNtCskqrQbUAEY9O_18realestate_backend10migrations42m20250601_000001_create_ejecuciones_tareasNtB4_9MigrationNtCsfJhJy70T9TW_17sea_orm_migration14MigrationTrait2up
FN:92,_RNvXs_NtNtCskqrQbUAEY9O_18realestate_backend10migrations42m20250601_000001_create_ejecuciones_tareasNtB4_9MigrationNtCsfJhJy70T9TW_17sea_orm_migration14MigrationTrait4down
FN:6,_RNvXNtNtCsbgKgox7znE6_18realestate_backend10migrations42m20250601_000001_create_ejecuciones_tareasNtB2_9MigrationNtCsfJhJy70T9TW_17sea_orm_migration13MigrationName4name
FN:13,_RNvXs_NtNtCsbgKgox7znE6_18realestate_backend10migrations42m20250601_000001_create_ejecuciones_tareasNtB4_9MigrationNtCsfJhJy70T9TW_17sea_orm_migration14MigrationTrait2up
FN:92,_RNvXs_NtNtCsbgKgox7znE6_18realestate_backend10migrations42m20250601_000001_create_ejecuciones_tareasNtB4_9MigrationNtCsfJhJy70T9TW_17sea_orm_migration14MigrationTrait4down
FNDA:0,_RNvXNtNtCskqrQbUAEY9O_18realestate_backend10migrations42m20250601_000001_create_ejecuciones_tareasNtB2_9MigrationNtCsfJhJy70T9TW_17sea_orm_migration13MigrationName4name
FNDA:0,_RNvXs_NtNtCskqrQbUAEY9O_18realestate_backend10migrations42m20250601_000001_create_ejecuciones_tareasNtB4_9MigrationNtCsfJhJy70T9TW_17sea_orm_migration14MigrationTrait2up
FNDA:0,_RNvXs_NtNtCskqrQbUAEY9O_18realestate_backend10migrations42m20250601_000001_create_ejecuciones_tareasNtB4_9MigrationNtCsfJhJy70T9TW_17sea_orm_migration14MigrationTrait4down
FNDA:0,_RNvXNtNtCsbgKgox7znE6_18realestate_backend10migrations42m20250601_000001_create_ejecuciones_tareasNtB2_9MigrationNtCsfJhJy70T9TW_17sea_orm_migration13MigrationName4name
FNDA:0,_RNvXs_NtNtCsbgKgox7znE6_18realestate_backend10migrations42m20250601_000001_create_ejecuciones_tareasNtB4_9MigrationNtCsfJhJy70T9TW_17sea_orm_migration14MigrationTrait2up
FNDA:0,_RNvXs_NtNtCsbgKgox7znE6_18realestate_backend10migrations42m20250601_000001_create_ejecuciones_tareasNtB4_9MigrationNtCsfJhJy70T9TW_17sea_orm_migration14MigrationTrait4down
FNF:3
FNH:0
DA:6,0
DA:7,0
DA:8,0
DA:13,0
DA:90,0
DA:92,0
DA:96,0
BRF:0
BRH:0
LF:7
LH:0
end_of_record
SF:/home/runner/_work/Gestion-inmobiliaria/Gestion-inmobiliaria/backend/src/../migrations/m20250615_000001_add_deposit_tracking_to_contratos.rs
FN:8,_RNvXNtNtCskqrQbUAEY9O_18realestate_backend10migrations50m20250615_000001_add_deposit_tracking_to_contratosNtB2_9MigrationNtCsfJhJy70T9TW_17sea_orm_migration13MigrationName4name
FN:24,_RNvXs0_NtNtCskqrQbUAEY9O_18realestate_backend10migrations50m20250615_000001_add_deposit_tracking_to_contratosNtB5_9MigrationNtCsfJhJy70T9TW_17sea_orm_migration14MigrationTrait2up
FN:91,_RNvXs0_NtNtCskqrQbUAEY9O_18realestate_backend10migrations50m20250615_000001_add_deposit_tracking_to_contratosNtB5_9MigrationNtCsfJhJy70T9TW_17sea_orm_migration14MigrationTrait4down
FN:8,_RNvXNtNtCsbgKgox7znE6_18realestate_backend10migrations50m20250615_000001_add_deposit_tracking_to_contratosNtB2_9MigrationNtCsfJhJy70T9TW_17sea_orm_migration13MigrationName4name
FN:24,_RNvXs0_NtNtCsbgKgox7znE6_18realestate_backend10migrations50m20250615_000001_add_deposit_tracking_to_contratosNtB5_9MigrationNtCsfJhJy70T9TW_17sea_orm_migration14MigrationTrait2up
FN:91,_RNvXs0_NtNtCsbgKgox7znE6_18realestate_backend10migrations50m20250615_000001_add_deposit_tracking_to_contratosNtB5_9MigrationNtCsfJhJy70T9TW_17sea_orm_migration14MigrationTrait4down
FNDA:0,_RNvXNtNtCskqrQbUAEY9O_18realestate_backend10migrations50m20250615_000001_add_deposit_tracking_to_contratosNtB2_9MigrationNtCsfJhJy70T9TW_17sea_orm_migration13MigrationName4name
FNDA:0,_RNvXs0_NtNtCskqrQbUAEY9O_18realestate_backend10migrations50m20250615_000001_add_deposit_tracking_to_contratosNtB5_9MigrationNtCsfJhJy70T9TW_17sea_orm_migration14MigrationTrait2up
FNDA:0,_RNvXs0_NtNtCskqrQbUAEY9O_18realestate_backend10migrations50m20250615_000001_add_deposit_tracking_to_contratosNtB5_9MigrationNtCsfJhJy70T9TW_17sea_orm_migration14MigrationTrait4down
FNDA:0,_RNvXNtNtCsbgKgox7znE6_18realestate_backend10migrations50m20250615_000001_add_deposit_tracking_to_contratosNtB2_9MigrationNtCsfJhJy70T9TW_17sea_orm_migration13MigrationName4name
FNDA:0,_RNvXs0_NtNtCsbgKgox7znE6_18realestate_backend10migrations50m20250615_000001_add_deposit_tracking_to_contratosNtB5_9MigrationNtCsfJhJy70T9TW_17sea_orm_migration14MigrationTrait2up
FNDA:0,_RNvXs0_NtNtCsbgKgox7znE6_18realestate_backend10migrations50m20250615_000001_add_deposit_tracking_to_contratosNtB5_9MigrationNtCsfJhJy70T9TW_17sea_orm_migration14MigrationTrait4down
FNF:3
FNH:0
DA:8,0
DA:9,0
DA:10,0
DA:24,0
DA:89,0
DA:91,0
DA:139,0
BRF:0
BRH:0
LF:7
LH:0
end_of_record
SF:/home/runner/_work/Gestion-inmobiliaria/Gestion-inmobiliaria/backend/src/../migrations/m20250615_000002_add_recargo_fields.rs
FN:9,_RNvXNtNtCskqrQbUAEY9O_18realestate_backend10migrations35m20250615_000002_add_recargo_fieldsNtB2_9MigrationNtCsfJhJy70T9TW_17sea_orm_migration13MigrationName4name
FN:23,_RNvXs0_NtNtCskqrQbUAEY9O_18realestate_backend10migrations35m20250615_000002_add_recargo_fieldsNtB5_9MigrationNtCsfJhJy70T9TW_17sea_orm_migration14MigrationTrait2up
FN:57,_RNvXs0_NtNtCskqrQbUAEY9O_18realestate_backend10migrations35m20250615_000002_add_recargo_fieldsNtB5_9MigrationNtCsfJhJy70T9TW_17sea_orm_migration14MigrationTrait4down
FN:9,_RNvXNtNtCsbgKgox7znE6_18realestate_backend10migrations35m20250615_000002_add_recargo_fieldsNtB2_9MigrationNtCsfJhJy70T9TW_17sea_orm_migration13MigrationName4name
FN:23,_RNvXs0_NtNtCsbgKgox7znE6_18realestate_backend10migrations35m20250615_000002_add_recargo_fieldsNtB5_9MigrationNtCsfJhJy70T9TW_17sea_orm_migration14MigrationTrait2up
FN:57,_RNvXs0_NtNtCsbgKgox7znE6_18realestate_backend10migrations35m20250615_000002_add_recargo_fieldsNtB5_9MigrationNtCsfJhJy70T9TW_17sea_orm_migration14MigrationTrait4down
FNDA:0,_RNvXNtNtCskqrQbUAEY9O_18realestate_backend10migrations35m20250615_000002_add_recargo_fieldsNtB2_9MigrationNtCsfJhJy70T9TW_17sea_orm_migration13MigrationName4name
FNDA:0,_RNvXs0_NtNtCskqrQbUAEY9O_18realestate_backend10migrations35m20250615_000002_add_recargo_fieldsNtB5_9MigrationNtCsfJhJy70T9TW_17sea_orm_migration14MigrationTrait2up
FNDA:0,_RNvXs0_NtNtCskqrQbUAEY9O_18realestate_backend10migrations35m20250615_000002_add_recargo_fieldsNtB5_9MigrationNtCsfJhJy70T9TW_17sea_orm_migration14MigrationTrait4down
FNDA:0,_RNvXNtNtCsbgKgox7znE6_18realestate_backend10migrations35m20250615_000002_add_recargo_fieldsNtB2_9MigrationNtCsfJhJy70T9TW_17sea_orm_migration13MigrationName4name
FNDA:0,_RNvXs0_NtNtCsbgKgox7znE6_18realestate_backend10migrations35m20250615_000002_add_recargo_fieldsNtB5_9MigrationNtCsfJhJy70T9TW_17sea_orm_migration14MigrationTrait2up
FNDA:0,_RNvXs0_NtNtCsbgKgox7znE6_18realestate_backend10migrations35m20250615_000002_add_recargo_fieldsNtB5_9MigrationNtCsfJhJy70T9TW_17sea_orm_migration14MigrationTrait4down
FNF:3
FNH:0
DA:9,0
DA:10,0
DA:11,0
DA:23,0
DA:55,0
DA:57,0
DA:87,0
BRF:0
BRH:0
LF:7
LH:0
end_of_record
SF:/home/runner/_work/Gestion-inmobiliaria/Gestion-inmobiliaria/backend/src/../migrations/m20250620_000001_create_firmas_documento.rs
FN:8,_RNvXNtNtCskqrQbUAEY9O_18realestate_backend10migrations40m20250620_000001_create_firmas_documentoNtB2_9MigrationNtCsfJhJy70T9TW_17sea_orm_migration13MigrationName4name
FN:39,_RNvXs1_NtNtCskqrQbUAEY9O_18realestate_backend10migrations40m20250620_000001_create_firmas_documentoNtB5_9MigrationNtCsfJhJy70T9TW_17sea_orm_migration14MigrationTrait2up
FN:146,_RNvXs1_NtNtCskqrQbUAEY9O_18realestate_backend10migrations40m20250620_000001_create_firmas_documentoNtB5_9MigrationNtCsfJhJy70T9TW_17sea_orm_migration14MigrationTrait4down
FN:8,_RNvXNtNtCsbgKgox7znE6_18realestate_backend10migrations40m20250620_000001_create_firmas_documentoNtB2_9MigrationNtCsfJhJy70T9TW_17sea_orm_migration13MigrationName4name
FN:39,_RNvXs1_NtNtCsbgKgox7znE6_18realestate_backend10migrations40m20250620_000001_create_firmas_documentoNtB5_9MigrationNtCsfJhJy70T9TW_17sea_orm_migration14MigrationTrait2up
FN:146,_RNvXs1_NtNtCsbgKgox7znE6_18realestate_backend10migrations40m20250620_000001_create_firmas_documentoNtB5_9MigrationNtCsfJhJy70T9TW_17sea_orm_migration14MigrationTrait4down
FNDA:0,_RNvXNtNtCskqrQbUAEY9O_18realestate_backend10migrations40m20250620_000001_create_firmas_documentoNtB2_9MigrationNtCsfJhJy70T9TW_17sea_orm_migration13MigrationName4name
FNDA:0,_RNvXs1_NtNtCskqrQbUAEY9O_18realestate_backend10migrations40m20250620_000001_create_firmas_documentoNtB5_9MigrationNtCsfJhJy70T9TW_17sea_orm_migration14MigrationTrait2up
FNDA:0,_RNvXs1_NtNtCskqrQbUAEY9O_18realestate_backend10migrations40m20250620_000001_create_firmas_documentoNtB5_9MigrationNtCsfJhJy70T9TW_17sea_orm_migration14MigrationTrait4down
FNDA:0,_RNvXNtNtCsbgKgox7znE6_18realestate_backend10migrations40m20250620_000001_create_firmas_documentoNtB2_9MigrationNtCsfJhJy70T9TW_17sea_orm_migration13MigrationName4name
FNDA:0,_RNvXs1_NtNtCsbgKgox7znE6_18realestate_backend10migrations40m20250620_000001_create_firmas_documentoNtB5_9MigrationNtCsfJhJy70T9TW_17sea_orm_migration14MigrationTrait2up
FNDA:0,_RNvXs1_NtNtCsbgKgox7znE6_18realestate_backend10migrations40m20250620_000001_create_firmas_documentoNtB5_9MigrationNtCsfJhJy70T9TW_17sea_orm_migration14MigrationTrait4down
FNF:3
FNH:0
DA:8,0
DA:9,0
DA:10,0
DA:39,0
DA:144,0
DA:146,0
DA:170,0
BRF:0
BRH:0
LF:7
LH:0
end_of_record
SF:/home/runner/_work/Gestion-inmobiliaria/Gestion-inmobiliaria/backend/src/../migrations/m20260415_001_add_documento_origen_id.rs
FN:9,_RNvXNtNtCskqrQbUAEY9O_18realestate_backend10migrations37m20260415_001_add_documento_origen_idNtB2_9MigrationNtCsfJhJy70T9TW_17sea_orm_migration13MigrationName4name
FN:21,_RNvXs0_NtNtCskqrQbUAEY9O_18realestate_backend10migrations37m20260415_001_add_documento_origen_idNtB5_9MigrationNtCsfJhJy70T9TW_17sea_orm_migration14MigrationTrait2up
FN:59,_RNvXs0_NtNtCskqrQbUAEY9O_18realestate_backend10migrations37m20260415_001_add_documento_origen_idNtB5_9MigrationNtCsfJhJy70T9TW_17sea_orm_migration14MigrationTrait4down
FN:9,_RNvXNtNtCsbgKgox7znE6_18realestate_backend10migrations37m20260415_001_add_documento_origen_idNtB2_9MigrationNtCsfJhJy70T9TW_17sea_orm_migration13MigrationName4name
FN:21,_RNvXs0_NtNtCsbgKgox7znE6_18realestate_backend10migrations37m20260415_001_add_documento_origen_idNtB5_9MigrationNtCsfJhJy70T9TW_17sea_orm_migration14MigrationTrait2up
FN:59,_RNvXs0_NtNtCsbgKgox7znE6_18realestate_backend10migrations37m20260415_001_add_documento_origen_idNtB5_9MigrationNtCsfJhJy70T9TW_17sea_orm_migration14MigrationTrait4down
FNDA:0,_RNvXNtNtCskqrQbUAEY9O_18realestate_backend10migrations37m20260415_001_add_documento_origen_idNtB2_9MigrationNtCsfJhJy70T9TW_17sea_orm_migration13MigrationName4name
FNDA:0,_RNvXs0_NtNtCskqrQbUAEY9O_18realestate_backend10migrations37m20260415_001_add_documento_origen_idNtB5_9MigrationNtCsfJhJy70T9TW_17sea_orm_migration14MigrationTrait2up
FNDA:0,_RNvXs0_NtNtCskqrQbUAEY9O_18realestate_backend10migrations37m20260415_001_add_documento_origen_idNtB5_9MigrationNtCsfJhJy70T9TW_17sea_orm_migration14MigrationTrait4down
FNDA:0,_RNvXNtNtCsbgKgox7znE6_18realestate_backend10migrations37m20260415_001_add_documento_origen_idNtB2_9MigrationNtCsfJhJy70T9TW_17sea_orm_migration13MigrationName4name
FNDA:0,_RNvXs0_NtNtCsbgKgox7znE6_18realestate_backend10migrations37m20260415_001_add_documento_origen_idNtB5_9MigrationNtCsfJhJy70T9TW_17sea_orm_migration14MigrationTrait2up
FNDA:0,_RNvXs0_NtNtCsbgKgox7znE6_18realestate_backend10migrations37m20260415_001_add_documento_origen_idNtB5_9MigrationNtCsfJhJy70T9TW_17sea_orm_migration14MigrationTrait4down
FNF:3
FNH:0
DA:9,0
DA:10,0
DA:11,0
DA:21,0
DA:57,0
DA:59,0
DA:88,0
BRF:0
BRH:0
LF:7
LH:0
end_of_record
SF:/home/runner/_work/Gestion-inmobiliaria/Gestion-inmobiliaria/backend/src/../migrations/m20260415_002_add_gasto_utility_fields.rs
FN:8,_RNvXNtNtCskqrQbUAEY9O_18realestate_backend10migrations38m20260415_002_add_gasto_utility_fieldsNtB2_9MigrationNtCsfJhJy70T9TW_17sea_orm_migration13MigrationName4name
FN:22,_RNvXs0_NtNtCskqrQbUAEY9O_18realestate_backend10migrations38m20260415_002_add_gasto_utility_fieldsNtB5_9MigrationNtCsfJhJy70T9TW_17sea_orm_migration14MigrationTrait2up
FN:56,_RNvXs0_NtNtCskqrQbUAEY9O_18realestate_backend10migrations38m20260415_002_add_gasto_utility_fieldsNtB5_9MigrationNtCsfJhJy70T9TW_17sea_orm_migration14MigrationTrait4down
FN:8,_RNvXNtNtCsbgKgox7znE6_18realestate_backend10migrations38m20260415_002_add_gasto_utility_fieldsNtB2_9MigrationNtCsfJhJy70T9TW_17sea_orm_migration13MigrationName4name
FN:22,_RNvXs0_NtNtCsbgKgox7znE6_18realestate_backend10migrations38m20260415_002_add_gasto_utility_fieldsNtB5_9MigrationNtCsfJhJy70T9TW_17sea_orm_migration14MigrationTrait2up
FN:56,_RNvXs0_NtNtCsbgKgox7znE6_18realestate_backend10migrations38m20260415_002_add_gasto_utility_fieldsNtB5_9MigrationNtCsfJhJy70T9TW_17sea_orm_migration14MigrationTrait4down
FNDA:0,_RNvXNtNtCskqrQbUAEY9O_18realestate_backend10migrations38m20260415_002_add_gasto_utility_fieldsNtB2_9MigrationNtCsfJhJy70T9TW_17sea_orm_migration13MigrationName4name
FNDA:0,_RNvXs0_NtNtCskqrQbUAEY9O_18realestate_backend10migrations38m20260415_002_add_gasto_utility_fieldsNtB5_9MigrationNtCsfJhJy70T9TW_17sea_orm_migration14MigrationTrait2up
FNDA:0,_RNvXs0_NtNtCskqrQbUAEY9O_18realestate_backend10migrations38m20260415_002_add_gasto_utility_fieldsNtB5_9MigrationNtCsfJhJy70T9TW_17sea_orm_migration14MigrationTrait4down
FNDA:0,_RNvXNtNtCsbgKgox7znE6_18realestate_backend10migrations38m20260415_002_add_gasto_utility_fieldsNtB2_9MigrationNtCsfJhJy70T9TW_17sea_orm_migration13MigrationName4name
FNDA:0,_RNvXs0_NtNtCsbgKgox7znE6_18realestate_backend10migrations38m20260415_002_add_gasto_utility_fieldsNtB5_9MigrationNtCsfJhJy70T9TW_17sea_orm_migration14MigrationTrait2up
FNDA:0,_RNvXs0_NtNtCsbgKgox7znE6_18realestate_backend10migrations38m20260415_002_add_gasto_utility_fieldsNtB5_9MigrationNtCsfJhJy70T9TW_17sea_orm_migration14MigrationTrait4down
FNF:3
FNH:0
DA:8,0
DA:9,0
DA:10,0
DA:22,0
DA:54,0
DA:56,0
DA:85,0
BRF:0
BRH:0
LF:7
LH:0
end_of_record
SF:/home/runner/_work/Gestion-inmobiliaria/Gestion-inmobiliaria/backend/src/../migrations/m20260509_000001_create_chatbot_tables.rs
FN:11,_RNvXNtNtCskqrQbUAEY9O_18realestate_backend10migrations38m20260509_000001_create_chatbot_tablesNtB2_9MigrationNtCsfJhJy70T9TW_17sea_orm_migration13MigrationName4name
FN:18,_RNvXs_NtNtCskqrQbUAEY9O_18realestate_backend10migrations38m20260509_000001_create_chatbot_tablesNtB4_9MigrationNtCsfJhJy70T9TW_17sea_orm_migration14MigrationTrait2up
FN:342,_RNvXs_NtNtCskqrQbUAEY9O_18realestate_backend10migrations38m20260509_000001_create_chatbot_tablesNtB4_9MigrationNtCsfJhJy70T9TW_17sea_orm_migration14MigrationTrait4down
FN:11,_RNvXNtNtCsbgKgox7znE6_18realestate_backend10migrations38m20260509_000001_create_chatbot_tablesNtB2_9MigrationNtCsfJhJy70T9TW_17sea_orm_migration13MigrationName4name
FN:18,_RNvXs_NtNtCsbgKgox7znE6_18realestate_backend10migrations38m20260509_000001_create_chatbot_tablesNtB4_9MigrationNtCsfJhJy70T9TW_17sea_orm_migration14MigrationTrait2up
FN:342,_RNvXs_NtNtCsbgKgox7znE6_18realestate_backend10migrations38m20260509_000001_create_chatbot_tablesNtB4_9MigrationNtCsfJhJy70T9TW_17sea_orm_migration14MigrationTrait4down
FNDA:0,_RNvXNtNtCskqrQbUAEY9O_18realestate_backend10migrations38m20260509_000001_create_chatbot_tablesNtB2_9MigrationNtCsfJhJy70T9TW_17sea_orm_migration13MigrationName4name
FNDA:0,_RNvXs_NtNtCskqrQbUAEY9O_18realestate_backend10migrations38m20260509_000001_create_chatbot_tablesNtB4_9MigrationNtCsfJhJy70T9TW_17sea_orm_migration14MigrationTrait2up
FNDA:0,_RNvXs_NtNtCskqrQbUAEY9O_18realestate_backend10migrations38m20260509_000001_create_chatbot_tablesNtB4_9MigrationNtCsfJhJy70T9TW_17sea_orm_migration14MigrationTrait4down
FNDA:0,_RNvXNtNtCsbgKgox7znE6_18realestate_backend10migrations38m20260509_000001_create_chatbot_tablesNtB2_9MigrationNtCsfJhJy70T9TW_17sea_orm_migration13MigrationName4name
FNDA:0,_RNvXs_NtNtCsbgKgox7znE6_18realestate_backend10migrations38m20260509_000001_create_chatbot_tablesNtB4_9MigrationNtCsfJhJy70T9TW_17sea_orm_migration14MigrationTrait2up
FNDA:0,_RNvXs_NtNtCsbgKgox7znE6_18realestate_backend10migrations38m20260509_000001_create_chatbot_tablesNtB4_9MigrationNtCsfJhJy70T9TW_17sea_orm_migration14MigrationTrait4down
FNF:3
FNH:0
DA:11,0
DA:12,0
DA:13,0
DA:18,0
DA:340,0
DA:342,0
DA:360,0
BRF:0
BRH:0
LF:7
LH:0
end_of_record
SF:/home/runner/_work/Gestion-inmobiliaria/Gestion-inmobiliaria/backend/src/../migrations/m20260510_000001_make_auditoria_usuario_nullable.rs
FN:6,_RNvXNtNtCskqrQbUAEY9O_18realestate_backend10migrations48m20260510_000001_make_auditoria_usuario_nullableNtB2_9MigrationNtCsfJhJy70T9TW_17sea_orm_migration13MigrationName4name
FN:13,_RNvXs_NtNtCskqrQbUAEY9O_18realestate_backend10migrations48m20260510_000001_make_auditoria_usuario_nullableNtB4_9MigrationNtCsfJhJy70T9TW_17sea_orm_migration14MigrationTrait2up
FN:57,_RNvXs_NtNtCskqrQbUAEY9O_18realestate_backend10migrations48m20260510_000001_make_auditoria_usuario_nullableNtB4_9MigrationNtCsfJhJy70T9TW_17sea_orm_migration14MigrationTrait4down
FN:6,_RNvXNtNtCsbgKgox7znE6_18realestate_backend10migrations48m20260510_000001_make_auditoria_usuario_nullableNtB2_9MigrationNtCsfJhJy70T9TW_17sea_orm_migration13MigrationName4name
FN:13,_RNvXs_NtNtCsbgKgox7znE6_18realestate_backend10migrations48m20260510_000001_make_auditoria_usuario_nullableNtB4_9MigrationNtCsfJhJy70T9TW_17sea_orm_migration14MigrationTrait2up
FN:57,_RNvXs_NtNtCsbgKgox7znE6_18realestate_backend10migrations48m20260510_000001_make_auditoria_usuario_nullableNtB4_9MigrationNtCsfJhJy70T9TW_17sea_orm_migration14MigrationTrait4down
FNDA:0,_RNvXNtNtCskqrQbUAEY9O_18realestate_backend10migrations48m20260510_000001_make_auditoria_usuario_nullableNtB2_9MigrationNtCsfJhJy70T9TW_17sea_orm_migration13MigrationName4name
FNDA:0,_RNvXs_NtNtCskqrQbUAEY9O_18realestate_backend10migrations48m20260510_000001_make_auditoria_usuario_nullableNtB4_9MigrationNtCsfJhJy70T9TW_17sea_orm_migration14MigrationTrait2up
FNDA:0,_RNvXs_NtNtCskqrQbUAEY9O_18realestate_backend10migrations48m20260510_000001_make_auditoria_usuario_nullableNtB4_9MigrationNtCsfJhJy70T9TW_17sea_orm_migration14MigrationTrait4down
FNDA:0,_RNvXNtNtCsbgKgox7znE6_18realestate_backend10migrations48m20260510_000001_make_auditoria_usuario_nullableNtB2_9MigrationNtCsfJhJy70T9TW_17sea_orm_migration13MigrationName4name
FNDA:0,_RNvXs_NtNtCsbgKgox7znE6_18realestate_backend10migrations48m20260510_000001_make_auditoria_usuario_nullableNtB4_9MigrationNtCsfJhJy70T9TW_17sea_orm_migration14MigrationTrait2up
FNDA:0,_RNvXs_NtNtCsbgKgox7znE6_18realestate_backend10migrations48m20260510_000001_make_auditoria_usuario_nullableNtB4_9MigrationNtCsfJhJy70T9TW_17sea_orm_migration14MigrationTrait4down
FNF:3
FNH:0
DA:6,0
DA:7,0
DA:8,0
DA:13,0
DA:55,0
DA:57,0
DA:103,0
BRF:0
BRH:0
LF:7
LH:0
end_of_record
SF:/home/runner/_work/Gestion-inmobiliaria/Gestion-inmobiliaria/backend/src/../migrations/m20260510_000002_create_whatsapp_auth_tables.rs
FN:6,_RNvXNtNtCskqrQbUAEY9O_18realestate_backend10migrations44m20260510_000002_create_whatsapp_auth_tablesNtB2_9MigrationNtCsfJhJy70T9TW_17sea_orm_migration13MigrationName4name
FN:13,_RNvXs_NtNtCskqrQbUAEY9O_18realestate_backend10migrations44m20260510_000002_create_whatsapp_auth_tablesNtB4_9MigrationNtCsfJhJy70T9TW_17sea_orm_migration14MigrationTrait2up
FN:131,_RNvXs_NtNtCskqrQbUAEY9O_18realestate_backend10migrations44m20260510_000002_create_whatsapp_auth_tablesNtB4_9MigrationNtCsfJhJy70T9TW_17sea_orm_migration14MigrationTrait4down
FN:6,_RNvXNtNtCsbgKgox7znE6_18realestate_backend10migrations44m20260510_000002_create_whatsapp_auth_tablesNtB2_9MigrationNtCsfJhJy70T9TW_17sea_orm_migration13MigrationName4name
FN:13,_RNvXs_NtNtCsbgKgox7znE6_18realestate_backend10migrations44m20260510_000002_create_whatsapp_auth_tablesNtB4_9MigrationNtCsfJhJy70T9TW_17sea_orm_migration14MigrationTrait2up
FN:131,_RNvXs_NtNtCsbgKgox7znE6_18realestate_backend10migrations44m20260510_000002_create_whatsapp_auth_tablesNtB4_9MigrationNtCsfJhJy70T9TW_17sea_orm_migration14MigrationTrait4down
FNDA:0,_RNvXNtNtCskqrQbUAEY9O_18realestate_backend10migrations44m20260510_000002_create_whatsapp_auth_tablesNtB2_9MigrationNtCsfJhJy70T9TW_17sea_orm_migration13MigrationName4name
FNDA:0,_RNvXs_NtNtCskqrQbUAEY9O_18realestate_backend10migrations44m20260510_000002_create_whatsapp_auth_tablesNtB4_9MigrationNtCsfJhJy70T9TW_17sea_orm_migration14MigrationTrait2up
FNDA:0,_RNvXs_NtNtCskqrQbUAEY9O_18realestate_backend10migrations44m20260510_000002_create_whatsapp_auth_tablesNtB4_9MigrationNtCsfJhJy70T9TW_17sea_orm_migration14MigrationTrait4down
FNDA:0,_RNvXNtNtCsbgKgox7znE6_18realestate_backend10migrations44m20260510_000002_create_whatsapp_auth_tablesNtB2_9MigrationNtCsfJhJy70T9TW_17sea_orm_migration13MigrationName4name
FNDA:0,_RNvXs_NtNtCsbgKgox7znE6_18realestate_backend10migrations44m20260510_000002_create_whatsapp_auth_tablesNtB4_9MigrationNtCsfJhJy70T9TW_17sea_orm_migration14MigrationTrait2up
FNDA:0,_RNvXs_NtNtCsbgKgox7znE6_18realestate_backend10migrations44m20260510_000002_create_whatsapp_auth_tablesNtB4_9MigrationNtCsfJhJy70T9TW_17sea_orm_migration14MigrationTrait4down
FNF:3
FNH:0
DA:6,0
DA:7,0
DA:8,0
DA:13,0
DA:129,0
DA:131,0
DA:156,0
BRF:0
BRH:0
LF:7
LH:0
end_of_record
SF:/home/runner/_work/Gestion-inmobiliaria/Gestion-inmobiliaria/backend/src/../migrations/m20260512_000001_add_utility_fields_to_gastos.rs
FN:8,_RNvXNtNtCskqrQbUAEY9O_18realestate_backend10migrations45m20260512_000001_add_utility_fields_to_gastosNtB2_9MigrationNtCsfJhJy70T9TW_17sea_orm_migration13MigrationName4name
FN:25,_RNvXs0_NtNtCskqrQbUAEY9O_18realestate_backend10migrations45m20260512_000001_add_utility_fields_to_gastosNtB5_9MigrationNtCsfJhJy70T9TW_17sea_orm_migration14MigrationTrait2up
FN:112,_RNvXs0_NtNtCskqrQbUAEY9O_18realestate_backend10migrations45m20260512_000001_add_utility_fields_to_gastosNtB5_9MigrationNtCsfJhJy70T9TW_17sea_orm_migration14MigrationTrait4down
FN:8,_RNvXNtNtCsbgKgox7znE6_18realestate_backend10migrations45m20260512_000001_add_utility_fields_to_gastosNtB2_9MigrationNtCsfJhJy70T9TW_17sea_orm_migration13MigrationName4name
FN:25,_RNvXs0_NtNtCsbgKgox7znE6_18realestate_backend10migrations45m20260512_000001_add_utility_fields_to_gastosNtB5_9MigrationNtCsfJhJy70T9TW_17sea_orm_migration14MigrationTrait2up
FN:112,_RNvXs0_NtNtCsbgKgox7znE6_18realestate_backend10migrations45m20260512_000001_add_utility_fields_to_gastosNtB5_9MigrationNtCsfJhJy70T9TW_17sea_orm_migration14MigrationTrait4down
FNDA:0,_RNvXNtNtCskqrQbUAEY9O_18realestate_backend10migrations45m20260512_000001_add_utility_fields_to_gastosNtB2_9MigrationNtCsfJhJy70T9TW_17sea_orm_migration13MigrationName4name
FNDA:0,_RNvXs0_NtNtCskqrQbUAEY9O_18realestate_backend10migrations45m20260512_000001_add_utility_fields_to_gastosNtB5_9MigrationNtCsfJhJy70T9TW_17sea_orm_migration14MigrationTrait2up
FNDA:0,_RNvXs0_NtNtCskqrQbUAEY9O_18realestate_backend10migrations45m20260512_000001_add_utility_fields_to_gastosNtB5_9MigrationNtCsfJhJy70T9TW_17sea_orm_migration14MigrationTrait4down
FNDA:0,_RNvXNtNtCsbgKgox7znE6_18realestate_backend10migrations45m20260512_000001_add_utility_fields_to_gastosNtB2_9MigrationNtCsfJhJy70T9TW_17sea_orm_migration13MigrationName4name
FNDA:0,_RNvXs0_NtNtCsbgKgox7znE6_18realestate_backend10migrations45m20260512_000001_add_utility_fields_to_gastosNtB5_9MigrationNtCsfJhJy70T9TW_17sea_orm_migration14MigrationTrait2up
FNDA:0,_RNvXs0_NtNtCsbgKgox7znE6_18realestate_backend10migrations45m20260512_000001_add_utility_fields_to_gastosNtB5_9MigrationNtCsfJhJy70T9TW_17sea_orm_migration14MigrationTrait4down
FNF:3
FNH:0
DA:8,0
DA:9,0
DA:10,0
DA:25,0
DA:110,0
DA:112,0
DA:188,0
BRF:0
BRH:0
LF:7
LH:0
end_of_record
SF:/home/runner/_work/Gestion-inmobiliaria/Gestion-inmobiliaria/backend/src/../migrations/m20260512_000002_create_desahucios.rs
FN:9,_RNvXNtNtCskqrQbUAEY9O_18realestate_backend10migrations34m20260512_000002_create_desahuciosNtB2_9MigrationNtCsfJhJy70T9TW_17sea_orm_migration13MigrationName4name
FN:16,_RNvXs_NtNtCskqrQbUAEY9O_18realestate_backend10migrations34m20260512_000002_create_desahuciosNtB4_9MigrationNtCsfJhJy70T9TW_17sea_orm_migration14MigrationTrait2up
FN:90,_RNvXs_NtNtCskqrQbUAEY9O_18realestate_backend10migrations34m20260512_000002_create_desahuciosNtB4_9MigrationNtCsfJhJy70T9TW_17sea_orm_migration14MigrationTrait4down
FN:9,_RNvXNtNtCsbgKgox7znE6_18realestate_backend10migrations34m20260512_000002_create_desahuciosNtB2_9MigrationNtCsfJhJy70T9TW_17sea_orm_migration13MigrationName4name
FN:16,_RNvXs_NtNtCsbgKgox7znE6_18realestate_backend10migrations34m20260512_000002_create_desahuciosNtB4_9MigrationNtCsfJhJy70T9TW_17sea_orm_migration14MigrationTrait2up
FN:90,_RNvXs_NtNtCsbgKgox7znE6_18realestate_backend10migrations34m20260512_000002_create_desahuciosNtB4_9MigrationNtCsfJhJy70T9TW_17sea_orm_migration14MigrationTrait4down
FNDA:0,_RNvXNtNtCskqrQbUAEY9O_18realestate_backend10migrations34m20260512_000002_create_desahuciosNtB2_9MigrationNtCsfJhJy70T9TW_17sea_orm_migration13MigrationName4name
FNDA:0,_RNvXs_NtNtCskqrQbUAEY9O_18realestate_backend10migrations34m20260512_000002_create_desahuciosNtB4_9MigrationNtCsfJhJy70T9TW_17sea_orm_migration14MigrationTrait2up
FNDA:0,_RNvXs_NtNtCskqrQbUAEY9O_18realestate_backend10migrations34m20260512_000002_create_desahuciosNtB4_9MigrationNtCsfJhJy70T9TW_17sea_orm_migration14MigrationTrait4down
FNDA:0,_RNvXNtNtCsbgKgox7znE6_18realestate_backend10migrations34m20260512_000002_create_desahuciosNtB2_9MigrationNtCsfJhJy70T9TW_17sea_orm_migration13MigrationName4name
FNDA:0,_RNvXs_NtNtCsbgKgox7znE6_18realestate_backend10migrations34m20260512_000002_create_desahuciosNtB4_9MigrationNtCsfJhJy70T9TW_17sea_orm_migration14MigrationTrait2up
FNDA:0,_RNvXs_NtNtCsbgKgox7znE6_18realestate_backend10migrations34m20260512_000002_create_desahuciosNtB4_9MigrationNtCsfJhJy70T9TW_17sea_orm_migration14MigrationTrait4down
FNF:3
FNH:0
DA:9,0
DA:10,0
DA:11,0
DA:16,0
DA:88,0
DA:90,0
DA:94,0
BRF:0
BRH:0
LF:7
LH:0
end_of_record
SF:/home/runner/_work/Gestion-inmobiliaria/Gestion-inmobiliaria/backend/src/../migrations/m20260512_000003_create_responsabilidad_servicios.rs
FN:10,_RNvXNtNtCskqrQbUAEY9O_18realestate_backend10migrations49m20260512_000003_create_responsabilidad_serviciosNtB2_9MigrationNtCsfJhJy70T9TW_17sea_orm_migration13MigrationName4name
FN:17,_RNvXs_NtNtCskqrQbUAEY9O_18realestate_backend10migrations49m20260512_000003_create_responsabilidad_serviciosNtB4_9MigrationNtCsfJhJy70T9TW_17sea_orm_migration14MigrationTrait2up
FN:127,_RNvXs_NtNtCskqrQbUAEY9O_18realestate_backend10migrations49m20260512_000003_create_responsabilidad_serviciosNtB4_9MigrationNtCsfJhJy70T9TW_17sea_orm_migration14MigrationTrait4down
FN:10,_RNvXNtNtCsbgKgox7znE6_18realestate_backend10migrations49m20260512_000003_create_responsabilidad_serviciosNtB2_9MigrationNtCsfJhJy70T9TW_17sea_orm_migration13MigrationName4name
FN:17,_RNvXs_NtNtCsbgKgox7znE6_18realestate_backend10migrations49m20260512_000003_create_responsabilidad_serviciosNtB4_9MigrationNtCsfJhJy70T9TW_17sea_orm_migration14MigrationTrait2up
FN:127,_RNvXs_NtNtCsbgKgox7znE6_18realestate_backend10migrations49m20260512_000003_create_responsabilidad_serviciosNtB4_9MigrationNtCsfJhJy70T9TW_17sea_orm_migration14MigrationTrait4down
FNDA:0,_RNvXNtNtCskqrQbUAEY9O_18realestate_backend10migrations49m20260512_000003_create_responsabilidad_serviciosNtB2_9MigrationNtCsfJhJy70T9TW_17sea_orm_migration13MigrationName4name
FNDA:0,_RNvXs_NtNtCskqrQbUAEY9O_18realestate_backend10migrations49m20260512_000003_create_responsabilidad_serviciosNtB4_9MigrationNtCsfJhJy70T9TW_17sea_orm_migration14MigrationTrait2up
FNDA:0,_RNvXs_NtNtCskqrQbUAEY9O_18realestate_backend10migrations49m20260512_000003_create_responsabilidad_serviciosNtB4_9MigrationNtCsfJhJy70T9TW_17sea_orm_migration14MigrationTrait4down
FNDA:0,_RNvXNtNtCsbgKgox7znE6_18realestate_backend10migrations49m20260512_000003_create_responsabilidad_serviciosNtB2_9MigrationNtCsfJhJy70T9TW_17sea_orm_migration13MigrationName4name
FNDA:0,_RNvXs_NtNtCsbgKgox7znE6_18realestate_backend10migrations49m20260512_000003_create_responsabilidad_serviciosNtB4_9MigrationNtCsfJhJy70T9TW_17sea_orm_migration14MigrationTrait2up
FNDA:0,_RNvXs_NtNtCsbgKgox7znE6_18realestate_backend10migrations49m20260512_000003_create_responsabilidad_serviciosNtB4_9MigrationNtCsfJhJy70T9TW_17sea_orm_migration14MigrationTrait4down
FNF:3
FNH:0
DA:10,0
DA:11,0
DA:12,0
DA:17,0
DA:125,0
DA:127,0
DA:135,0
BRF:0
BRH:0
LF:7
LH:0
end_of_record
SF:/home/runner/_work/Gestion-inmobiliaria/Gestion-inmobiliaria/backend/src/../migrations/m20260512_000004_create_cache_dgii.rs
FN:8,_RNvXNtNtCskqrQbUAEY9O_18realestate_backend10migrations34m20260512_000004_create_cache_dgiiNtB2_9MigrationNtCsfJhJy70T9TW_17sea_orm_migration13MigrationName4name
FN:15,_RNvXs_NtNtCskqrQbUAEY9O_18realestate_backend10migrations34m20260512_000004_create_cache_dgiiNtB4_9MigrationNtCsfJhJy70T9TW_17sea_orm_migration14MigrationTrait2up
FN:127,_RNvXs_NtNtCskqrQbUAEY9O_18realestate_backend10migrations34m20260512_000004_create_cache_dgiiNtB4_9MigrationNtCsfJhJy70T9TW_17sea_orm_migration14MigrationTrait4down
FN:8,_RNvXNtNtCsbgKgox7znE6_18realestate_backend10migrations34m20260512_000004_create_cache_dgiiNtB2_9MigrationNtCsfJhJy70T9TW_17sea_orm_migration13MigrationName4name
FN:15,_RNvXs_NtNtCsbgKgox7znE6_18realestate_backend10migrations34m20260512_000004_create_cache_dgiiNtB4_9MigrationNtCsfJhJy70T9TW_17sea_orm_migration14MigrationTrait2up
FN:127,_RNvXs_NtNtCsbgKgox7znE6_18realestate_backend10migrations34m20260512_000004_create_cache_dgiiNtB4_9MigrationNtCsfJhJy70T9TW_17sea_orm_migration14MigrationTrait4down
FNDA:0,_RNvXNtNtCskqrQbUAEY9O_18realestate_backend10migrations34m20260512_000004_create_cache_dgiiNtB2_9MigrationNtCsfJhJy70T9TW_17sea_orm_migration13MigrationName4name
FNDA:0,_RNvXs_NtNtCskqrQbUAEY9O_18realestate_backend10migrations34m20260512_000004_create_cache_dgiiNtB4_9MigrationNtCsfJhJy70T9TW_17sea_orm_migration14MigrationTrait2up
FNDA:0,_RNvXs_NtNtCskqrQbUAEY9O_18realestate_backend10migrations34m20260512_000004_create_cache_dgiiNtB4_9MigrationNtCsfJhJy70T9TW_17sea_orm_migration14MigrationTrait4down
FNDA:0,_RNvXNtNtCsbgKgox7znE6_18realestate_backend10migrations34m20260512_000004_create_cache_dgiiNtB2_9MigrationNtCsfJhJy70T9TW_17sea_orm_migration13MigrationName4name
FNDA:0,_RNvXs_NtNtCsbgKgox7znE6_18realestate_backend10migrations34m20260512_000004_create_cache_dgiiNtB4_9MigrationNtCsfJhJy70T9TW_17sea_orm_migration14MigrationTrait2up
FNDA:0,_RNvXs_NtNtCsbgKgox7znE6_18realestate_backend10migrations34m20260512_000004_create_cache_dgiiNtB4_9MigrationNtCsfJhJy70T9TW_17sea_orm_migration14MigrationTrait4down
FNF:3
FNH:0
DA:8,0
DA:9,0
DA:10,0
DA:15,0
DA:125,0
DA:127,0
DA:131,0
BRF:0
BRH:0
LF:7
LH:0
end_of_record
SF:/home/runner/_work/Gestion-inmobiliaria/Gestion-inmobiliaria/backend/src/../migrations/m20260513_000001_create_preview_index.rs
FN:10,_RNvXs_NtNtCskqrQbUAEY9O_18realestate_backend10migrations37m20260513_000001_create_preview_indexNtB4_9MigrationNtCsfJhJy70T9TW_17sea_orm_migration14MigrationTrait2up
FN:67,_RNvXs_NtNtCskqrQbUAEY9O_18realestate_backend10migrations37m20260513_000001_create_preview_indexNtB4_9MigrationNtCsfJhJy70T9TW_17sea_orm_migration14MigrationTrait4down
FN:10,_RNvXs_NtNtCsbgKgox7znE6_18realestate_backend10migrations37m20260513_000001_create_preview_indexNtB4_9MigrationNtCsfJhJy70T9TW_17sea_orm_migration14MigrationTrait2up
FN:67,_RNvXs_NtNtCsbgKgox7znE6_18realestate_backend10migrations37m20260513_000001_create_preview_indexNtB4_9MigrationNtCsfJhJy70T9TW_17sea_orm_migration14MigrationTrait4down
FNDA:0,_RNvXs_NtNtCskqrQbUAEY9O_18realestate_backend10migrations37m20260513_000001_create_preview_indexNtB4_9MigrationNtCsfJhJy70T9TW_17sea_orm_migration14MigrationTrait2up
FNDA:0,_RNvXs_NtNtCskqrQbUAEY9O_18realestate_backend10migrations37m20260513_000001_create_preview_indexNtB4_9MigrationNtCsfJhJy70T9TW_17sea_orm_migration14MigrationTrait4down
FNDA:0,_RNvXs_NtNtCsbgKgox7znE6_18realestate_backend10migrations37m20260513_000001_create_preview_indexNtB4_9MigrationNtCsfJhJy70T9TW_17sea_orm_migration14MigrationTrait2up
FNDA:0,_RNvXs_NtNtCsbgKgox7znE6_18realestate_backend10migrations37m20260513_000001_create_preview_indexNtB4_9MigrationNtCsfJhJy70T9TW_17sea_orm_migration14MigrationTrait4down
FNF:2
FNH:0
DA:10,0
DA:65,0
DA:67,0
DA:71,0
BRF:0
BRH:0
LF:4
LH:0
end_of_record
SF:/home/runner/_work/Gestion-inmobiliaria/Gestion-inmobiliaria/backend/src/../migrations/m20260514_000001_add_agent_config_and_eval_tables.rs
FN:11,_RNvXs_NtNtCskqrQbUAEY9O_18realestate_backend10migrations49m20260514_000001_add_agent_config_and_eval_tablesNtB4_9MigrationNtCsfJhJy70T9TW_17sea_orm_migration14MigrationTrait2up
FN:172,_RNvXs_NtNtCskqrQbUAEY9O_18realestate_backend10migrations49m20260514_000001_add_agent_config_and_eval_tablesNtB4_9MigrationNtCsfJhJy70T9TW_17sea_orm_migration14MigrationTrait4down
FN:11,_RNvXs_NtNtCsbgKgox7znE6_18realestate_backend10migrations49m20260514_000001_add_agent_config_and_eval_tablesNtB4_9MigrationNtCsfJhJy70T9TW_17sea_orm_migration14MigrationTrait2up
FN:172,_RNvXs_NtNtCsbgKgox7znE6_18realestate_backend10migrations49m20260514_000001_add_agent_config_and_eval_tablesNtB4_9MigrationNtCsfJhJy70T9TW_17sea_orm_migration14MigrationTrait4down
FNDA:0,_RNvXs_NtNtCskqrQbUAEY9O_18realestate_backend10migrations49m20260514_000001_add_agent_config_and_eval_tablesNtB4_9MigrationNtCsfJhJy70T9TW_17sea_orm_migration14MigrationTrait2up
FNDA:0,_RNvXs_NtNtCskqrQbUAEY9O_18realestate_backend10migrations49m20260514_000001_add_agent_config_and_eval_tablesNtB4_9MigrationNtCsfJhJy70T9TW_17sea_orm_migration14MigrationTrait4down
FNDA:0,_RNvXs_NtNtCsbgKgox7znE6_18realestate_backend10migrations49m20260514_000001_add_agent_config_and_eval_tablesNtB4_9MigrationNtCsfJhJy70T9TW_17sea_orm_migration14MigrationTrait2up
FNDA:0,_RNvXs_NtNtCsbgKgox7znE6_18realestate_backend10migrations49m20260514_000001_add_agent_config_and_eval_tablesNtB4_9MigrationNtCsfJhJy70T9TW_17sea_orm_migration14MigrationTrait4down
FNF:2
FNH:0
DA:11,0
DA:170,0
DA:172,0
DA:191,0
BRF:0
BRH:0
LF:4
LH:0
end_of_record
SF:/home/runner/_work/Gestion-inmobiliaria/Gestion-inmobiliaria/backend/src/../migrations/m20260601_000001_add_tipo_fiscal_to_organizaciones.rs
FN:8,_RNvXNtNtCskqrQbUAEY9O_18realestate_backend10migrations50m20260601_000001_add_tipo_fiscal_to_organizacionesNtB2_9MigrationNtCsfJhJy70T9TW_17sea_orm_migration13MigrationName4name
FN:23,_RNvXs0_NtNtCskqrQbUAEY9O_18realestate_backend10migrations50m20260601_000001_add_tipo_fiscal_to_organizacionesNtB5_9MigrationNtCsfJhJy70T9TW_17sea_orm_migration14MigrationTrait2up
FN:77,_RNvXs0_NtNtCskqrQbUAEY9O_18realestate_backend10migrations50m20260601_000001_add_tipo_fiscal_to_organizacionesNtB5_9MigrationNtCsfJhJy70T9TW_17sea_orm_migration14MigrationTrait4down
FN:8,_RNvXNtNtCsbgKgox7znE6_18realestate_backend10migrations50m20260601_000001_add_tipo_fiscal_to_organizacionesNtB2_9MigrationNtCsfJhJy70T9TW_17sea_orm_migration13MigrationName4name
FN:23,_RNvXs0_NtNtCsbgKgox7znE6_18realestate_backend10migrations50m20260601_000001_add_tipo_fiscal_to_organizacionesNtB5_9MigrationNtCsfJhJy70T9TW_17sea_orm_migration14MigrationTrait2up
FN:77,_RNvXs0_NtNtCsbgKgox7znE6_18realestate_backend10migrations50m20260601_000001_add_tipo_fiscal_to_organizacionesNtB5_9MigrationNtCsfJhJy70T9TW_17sea_orm_migration14MigrationTrait4down
FNDA:0,_RNvXNtNtCskqrQbUAEY9O_18realestate_backend10migrations50m20260601_000001_add_tipo_fiscal_to_organizacionesNtB2_9MigrationNtCsfJhJy70T9TW_17sea_orm_migration13MigrationName4name
FNDA:0,_RNvXs0_NtNtCskqrQbUAEY9O_18realestate_backend10migrations50m20260601_000001_add_tipo_fiscal_to_organizacionesNtB5_9MigrationNtCsfJhJy70T9TW_17sea_orm_migration14MigrationTrait2up
FNDA:0,_RNvXs0_NtNtCskqrQbUAEY9O_18realestate_backend10migrations50m20260601_000001_add_tipo_fiscal_to_organizacionesNtB5_9MigrationNtCsfJhJy70T9TW_17sea_orm_migration14MigrationTrait4down
FNDA:0,_RNvXNtNtCsbgKgox7znE6_18realestate_backend10migrations50m20260601_000001_add_tipo_fiscal_to_organizacionesNtB2_9MigrationNtCsfJhJy70T9TW_17sea_orm_migration13MigrationName4name
FNDA:0,_RNvXs0_NtNtCsbgKgox7znE6_18realestate_backend10migrations50m20260601_000001_add_tipo_fiscal_to_organizacionesNtB5_9MigrationNtCsfJhJy70T9TW_17sea_orm_migration14MigrationTrait2up
FNDA:0,_RNvXs0_NtNtCsbgKgox7znE6_18realestate_backend10migrations50m20260601_000001_add_tipo_fiscal_to_organizacionesNtB5_9MigrationNtCsfJhJy70T9TW_17sea_orm_migration14MigrationTrait4down
FNF:3
FNH:0
DA:8,0
DA:9,0
DA:10,0
DA:23,0
DA:75,0
DA:77,0
DA:115,0
BRF:0
BRH:0
LF:7
LH:0
end_of_record
SF:/home/runner/_work/Gestion-inmobiliaria/Gestion-inmobiliaria/backend/src/../migrations/m20260601_000002_add_fiscal_columns_to_pagos.rs
FN:8,_RNvXNtNtCskqrQbUAEY9O_18realestate_backend10migrations44m20260601_000002_add_fiscal_columns_to_pagosNtB2_9MigrationNtCsfJhJy70T9TW_17sea_orm_migration13MigrationName4name
FN:28,_RNvXs0_NtNtCskqrQbUAEY9O_18realestate_backend10migrations44m20260601_000002_add_fiscal_columns_to_pagosNtB5_9MigrationNtCsfJhJy70T9TW_17sea_orm_migration14MigrationTrait2up
FN:127,_RNvXs0_NtNtCskqrQbUAEY9O_18realestate_backend10migrations44m20260601_000002_add_fiscal_columns_to_pagosNtB5_9MigrationNtCsfJhJy70T9TW_17sea_orm_migration14MigrationTrait4down
FN:8,_RNvXNtNtCsbgKgox7znE6_18realestate_backend10migrations44m20260601_000002_add_fiscal_columns_to_pagosNtB2_9MigrationNtCsfJhJy70T9TW_17sea_orm_migration13MigrationName4name
FN:28,_RNvXs0_NtNtCsbgKgox7znE6_18realestate_backend10migrations44m20260601_000002_add_fiscal_columns_to_pagosNtB5_9MigrationNtCsfJhJy70T9TW_17sea_orm_migration14MigrationTrait2up
FN:127,_RNvXs0_NtNtCsbgKgox7znE6_18realestate_backend10migrations44m20260601_000002_add_fiscal_columns_to_pagosNtB5_9MigrationNtCsfJhJy70T9TW_17sea_orm_migration14MigrationTrait4down
FNDA:0,_RNvXNtNtCskqrQbUAEY9O_18realestate_backend10migrations44m20260601_000002_add_fiscal_columns_to_pagosNtB2_9MigrationNtCsfJhJy70T9TW_17sea_orm_migration13MigrationName4name
FNDA:0,_RNvXs0_NtNtCskqrQbUAEY9O_18realestate_backend10migrations44m20260601_000002_add_fiscal_columns_to_pagosNtB5_9MigrationNtCsfJhJy70T9TW_17sea_orm_migration14MigrationTrait2up
FNDA:0,_RNvXs0_NtNtCskqrQbUAEY9O_18realestate_backend10migrations44m20260601_000002_add_fiscal_columns_to_pagosNtB5_9MigrationNtCsfJhJy70T9TW_17sea_orm_migration14MigrationTrait4down
FNDA:0,_RNvXNtNtCsbgKgox7znE6_18realestate_backend10migrations44m20260601_000002_add_fiscal_columns_to_pagosNtB2_9MigrationNtCsfJhJy70T9TW_17sea_orm_migration13MigrationName4name
FNDA:0,_RNvXs0_NtNtCsbgKgox7znE6_18realestate_backend10migrations44m20260601_000002_add_fiscal_columns_to_pagosNtB5_9MigrationNtCsfJhJy70T9TW_17sea_orm_migration14MigrationTrait2up
FNDA:0,_RNvXs0_NtNtCsbgKgox7znE6_18realestate_backend10migrations44m20260601_000002_add_fiscal_columns_to_pagosNtB5_9MigrationNtCsfJhJy70T9TW_17sea_orm_migration14MigrationTrait4down
FNF:3
FNH:0
DA:8,0
DA:9,0
DA:10,0
DA:28,0
DA:125,0
DA:127,0
DA:210,0
BRF:0
BRH:0
LF:7
LH:0
end_of_record
SF:/home/runner/_work/Gestion-inmobiliaria/Gestion-inmobiliaria/backend/src/../migrations/m20260601_000003_add_catastral_to_propiedades.rs
FN:8,_RNvXNtNtCskqrQbUAEY9O_18realestate_backend10migrations45m20260601_000003_add_catastral_to_propiedadesNtB2_9MigrationNtCsfJhJy70T9TW_17sea_orm_migration13MigrationName4name
FN:22,_RNvXs0_NtNtCskqrQbUAEY9O_18realestate_backend10migrations45m20260601_000003_add_catastral_to_propiedadesNtB5_9MigrationNtCsfJhJy70T9TW_17sea_orm_migration14MigrationTrait2up
FN:63,_RNvXs0_NtNtCskqrQbUAEY9O_18realestate_backend10migrations45m20260601_000003_add_catastral_to_propiedadesNtB5_9MigrationNtCsfJhJy70T9TW_17sea_orm_migration14MigrationTrait4down
FN:8,_RNvXNtNtCsbgKgox7znE6_18realestate_backend10migrations45m20260601_000003_add_catastral_to_propiedadesNtB2_9MigrationNtCsfJhJy70T9TW_17sea_orm_migration13MigrationName4name
FN:22,_RNvXs0_NtNtCsbgKgox7znE6_18realestate_backend10migrations45m20260601_000003_add_catastral_to_propiedadesNtB5_9MigrationNtCsfJhJy70T9TW_17sea_orm_migration14MigrationTrait2up
FN:63,_RNvXs0_NtNtCsbgKgox7znE6_18realestate_backend10migrations45m20260601_000003_add_catastral_to_propiedadesNtB5_9MigrationNtCsfJhJy70T9TW_17sea_orm_migration14MigrationTrait4down
FNDA:0,_RNvXNtNtCskqrQbUAEY9O_18realestate_backend10migrations45m20260601_000003_add_catastral_to_propiedadesNtB2_9MigrationNtCsfJhJy70T9TW_17sea_orm_migration13MigrationName4name
FNDA:0,_RNvXs0_NtNtCskqrQbUAEY9O_18realestate_backend10migrations45m20260601_000003_add_catastral_to_propiedadesNtB5_9MigrationNtCsfJhJy70T9TW_17sea_orm_migration14MigrationTrait2up
FNDA:0,_RNvXs0_NtNtCskqrQbUAEY9O_18realestate_backend10migrations45m20260601_000003_add_catastral_to_propiedadesNtB5_9MigrationNtCsfJhJy70T9TW_17sea_orm_migration14MigrationTrait4down
FNDA:0,_RNvXNtNtCsbgKgox7znE6_18realestate_backend10migrations45m20260601_000003_add_catastral_to_propiedadesNtB2_9MigrationNtCsfJhJy70T9TW_17sea_orm_migration13MigrationName4name
FNDA:0,_RNvXs0_NtNtCsbgKgox7znE6_18realestate_backend10migrations45m20260601_000003_add_catastral_to_propiedadesNtB5_9MigrationNtCsfJhJy70T9TW_17sea_orm_migration14MigrationTrait2up
FNDA:0,_RNvXs0_NtNtCsbgKgox7znE6_18realestate_backend10migrations45m20260601_000003_add_catastral_to_propiedadesNtB5_9MigrationNtCsfJhJy70T9TW_17sea_orm_migration14MigrationTrait4down
FNF:3
FNH:0
DA:8,0
DA:9,0
DA:10,0
DA:22,0
DA:61,0
DA:63,0
DA:92,0
BRF:0
BRH:0
LF:7
LH:0
end_of_record
SF:/home/runner/_work/Gestion-inmobiliaria/Gestion-inmobiliaria/backend/src/../migrations/m20260601_000004_create_cuotas_condominio.rs
FN:10,_RNvXNtNtCskqrQbUAEY9O_18realestate_backend10migrations41m20260601_000004_create_cuotas_condominioNtB2_9MigrationNtCsfJhJy70T9TW_17sea_orm_migration13MigrationName4name
FN:17,_RNvXs_NtNtCskqrQbUAEY9O_18realestate_backend10migrations41m20260601_000004_create_cuotas_condominioNtB4_9MigrationNtCsfJhJy70T9TW_17sea_orm_migration14MigrationTrait2up
FN:141,_RNvXs_NtNtCskqrQbUAEY9O_18realestate_backend10migrations41m20260601_000004_create_cuotas_condominioNtB4_9MigrationNtCsfJhJy70T9TW_17sea_orm_migration14MigrationTrait4down
FN:10,_RNvXNtNtCsbgKgox7znE6_18realestate_backend10migrations41m20260601_000004_create_cuotas_condominioNtB2_9MigrationNtCsfJhJy70T9TW_17sea_orm_migration13MigrationName4name
FN:17,_RNvXs_NtNtCsbgKgox7znE6_18realestate_backend10migrations41m20260601_000004_create_cuotas_condominioNtB4_9MigrationNtCsfJhJy70T9TW_17sea_orm_migration14MigrationTrait2up
FN:141,_RNvXs_NtNtCsbgKgox7znE6_18realestate_backend10migrations41m20260601_000004_create_cuotas_condominioNtB4_9MigrationNtCsfJhJy70T9TW_17sea_orm_migration14MigrationTrait4down
FNDA:0,_RNvXNtNtCskqrQbUAEY9O_18realestate_backend10migrations41m20260601_000004_create_cuotas_condominioNtB2_9MigrationNtCsfJhJy70T9TW_17sea_orm_migration13MigrationName4name
FNDA:0,_RNvXs_NtNtCskqrQbUAEY9O_18realestate_backend10migrations41m20260601_000004_create_cuotas_condominioNtB4_9MigrationNtCsfJhJy70T9TW_17sea_orm_migration14MigrationTrait2up
FNDA:0,_RNvXs_NtNtCskqrQbUAEY9O_18realestate_backend10migrations41m20260601_000004_create_cuotas_condominioNtB4_9MigrationNtCsfJhJy70T9TW_17sea_orm_migration14MigrationTrait4down
FNDA:0,_RNvXNtNtCsbgKgox7znE6_18realestate_backend10migrations41m20260601_000004_create_cuotas_condominioNtB2_9MigrationNtCsfJhJy70T9TW_17sea_orm_migration13MigrationName4name
FNDA:0,_RNvXs_NtNtCsbgKgox7znE6_18realestate_backend10migrations41m20260601_000004_create_cuotas_condominioNtB4_9MigrationNtCsfJhJy70T9TW_17sea_orm_migration14MigrationTrait2up
FNDA:0,_RNvXs_NtNtCsbgKgox7znE6_18realestate_backend10migrations41m20260601_000004_create_cuotas_condominioNtB4_9MigrationNtCsfJhJy70T9TW_17sea_orm_migration14MigrationTrait4down
FNF:3
FNH:0
DA:10,0
DA:11,0
DA:12,0
DA:17,0
DA:139,0
DA:141,0
DA:145,0
BRF:0
BRH:0
LF:7
LH:0
end_of_record
SF:/home/runner/_work/Gestion-inmobiliaria/Gestion-inmobiliaria/backend/src/../migrations/m20260601_000005_create_secuencias_ncf.rs
FN:10,_RNvXs_NtNtCskqrQbUAEY9O_18realestate_backend10migrations38m20260601_000005_create_secuencias_ncfNtB4_9MigrationNtCsfJhJy70T9TW_17sea_orm_migration14MigrationTrait2up
FN:117,_RNvXs_NtNtCskqrQbUAEY9O_18realestate_backend10migrations38m20260601_000005_create_secuencias_ncfNtB4_9MigrationNtCsfJhJy70T9TW_17sea_orm_migration14MigrationTrait4down
FN:10,_RNvXs_NtNtCsbgKgox7znE6_18realestate_backend10migrations38m20260601_000005_create_secuencias_ncfNtB4_9MigrationNtCsfJhJy70T9TW_17sea_orm_migration14MigrationTrait2up
FN:117,_RNvXs_NtNtCsbgKgox7znE6_18realestate_backend10migrations38m20260601_000005_create_secuencias_ncfNtB4_9MigrationNtCsfJhJy70T9TW_17sea_orm_migration14MigrationTrait4down
FNDA:0,_RNvXs_NtNtCskqrQbUAEY9O_18realestate_backend10migrations38m20260601_000005_create_secuencias_ncfNtB4_9MigrationNtCsfJhJy70T9TW_17sea_orm_migration14MigrationTrait2up
FNDA:0,_RNvXs_NtNtCskqrQbUAEY9O_18realestate_backend10migrations38m20260601_000005_create_secuencias_ncfNtB4_9MigrationNtCsfJhJy70T9TW_17sea_orm_migration14MigrationTrait4down
FNDA:0,_RNvXs_NtNtCsbgKgox7znE6_18realestate_backend10migrations38m20260601_000005_create_secuencias_ncfNtB4_9MigrationNtCsfJhJy70T9TW_17sea_orm_migration14MigrationTrait2up
FNDA:0,_RNvXs_NtNtCsbgKgox7znE6_18realestate_backend10migrations38m20260601_000005_create_secuencias_ncfNtB4_9MigrationNtCsfJhJy70T9TW_17sea_orm_migration14MigrationTrait4down
FNF:2
FNH:0
DA:10,0
DA:115,0
DA:117,0
DA:121,0
BRF:0
BRH:0
LF:4
LH:0
end_of_record
SF:/home/runner/_work/Gestion-inmobiliaria/Gestion-inmobiliaria/backend/src/../migrations/m20260601_000006_create_reportes_dgii.rs
FN:11,_RNvXs_NtNtCskqrQbUAEY9O_18realestate_backend10migrations37m20260601_000006_create_reportes_dgiiNtB4_9MigrationNtCsfJhJy70T9TW_17sea_orm_migration14MigrationTrait2up
FN:136,_RNvXs_NtNtCskqrQbUAEY9O_18realestate_backend10migrations37m20260601_000006_create_reportes_dgiiNtB4_9MigrationNtCsfJhJy70T9TW_17sea_orm_migration14MigrationTrait4down
FN:11,_RNvXs_NtNtCsbgKgox7znE6_18realestate_backend10migrations37m20260601_000006_create_reportes_dgiiNtB4_9MigrationNtCsfJhJy70T9TW_17sea_orm_migration14MigrationTrait2up
FN:136,_RNvXs_NtNtCsbgKgox7znE6_18realestate_backend10migrations37m20260601_000006_create_reportes_dgiiNtB4_9MigrationNtCsfJhJy70T9TW_17sea_orm_migration14MigrationTrait4down
FNDA:0,_RNvXs_NtNtCskqrQbUAEY9O_18realestate_backend10migrations37m20260601_000006_create_reportes_dgiiNtB4_9MigrationNtCsfJhJy70T9TW_17sea_orm_migration14MigrationTrait2up
FNDA:0,_RNvXs_NtNtCskqrQbUAEY9O_18realestate_backend10migrations37m20260601_000006_create_reportes_dgiiNtB4_9MigrationNtCsfJhJy70T9TW_17sea_orm_migration14MigrationTrait4down
FNDA:0,_RNvXs_NtNtCsbgKgox7znE6_18realestate_backend10migrations37m20260601_000006_create_reportes_dgiiNtB4_9MigrationNtCsfJhJy70T9TW_17sea_orm_migration14MigrationTrait2up
FNDA:0,_RNvXs_NtNtCsbgKgox7znE6_18realestate_backend10migrations37m20260601_000006_create_reportes_dgiiNtB4_9MigrationNtCsfJhJy70T9TW_17sea_orm_migration14MigrationTrait4down
FNF:2
FNH:0
DA:11,0
DA:134,0
DA:136,0
DA:140,0
BRF:0
BRH:0
LF:4
LH:0
end_of_record
SF:/home/runner/_work/Gestion-inmobiliaria/Gestion-inmobiliaria/backend/src/../migrations/m20260601_000007_create_configuraciones_ipi.rs
FN:10,_RNvXs_NtNtCskqrQbUAEY9O_18realestate_backend10migrations43m20260601_000007_create_configuraciones_ipiNtB4_9MigrationNtCsfJhJy70T9TW_17sea_orm_migration14MigrationTrait2up
FN:89,_RNvXs_NtNtCskqrQbUAEY9O_18realestate_backend10migrations43m20260601_000007_create_configuraciones_ipiNtB4_9MigrationNtCsfJhJy70T9TW_17sea_orm_migration14MigrationTrait4down
FN:10,_RNvXs_NtNtCsbgKgox7znE6_18realestate_backend10migrations43m20260601_000007_create_configuraciones_ipiNtB4_9MigrationNtCsfJhJy70T9TW_17sea_orm_migration14MigrationTrait2up
FN:89,_RNvXs_NtNtCsbgKgox7znE6_18realestate_backend10migrations43m20260601_000007_create_configuraciones_ipiNtB4_9MigrationNtCsfJhJy70T9TW_17sea_orm_migration14MigrationTrait4down
FNDA:0,_RNvXs_NtNtCskqrQbUAEY9O_18realestate_backend10migrations43m20260601_000007_create_configuraciones_ipiNtB4_9MigrationNtCsfJhJy70T9TW_17sea_orm_migration14MigrationTrait2up
FNDA:0,_RNvXs_NtNtCskqrQbUAEY9O_18realestate_backend10migrations43m20260601_000007_create_configuraciones_ipiNtB4_9MigrationNtCsfJhJy70T9TW_17sea_orm_migration14MigrationTrait4down
FNDA:0,_RNvXs_NtNtCsbgKgox7znE6_18realestate_backend10migrations43m20260601_000007_create_configuraciones_ipiNtB4_9MigrationNtCsfJhJy70T9TW_17sea_orm_migration14MigrationTrait2up
FNDA:0,_RNvXs_NtNtCsbgKgox7znE6_18realestate_backend10migrations43m20260601_000007_create_configuraciones_ipiNtB4_9MigrationNtCsfJhJy70T9TW_17sea_orm_migration14MigrationTrait4down
FNF:2
FNH:0
DA:10,0
DA:87,0
DA:89,0
DA:93,0
BRF:0
BRH:0
LF:4
LH:0
end_of_record
SF:/home/runner/_work/Gestion-inmobiliaria/Gestion-inmobiliaria/backend/src/../migrations/m20260601_000008_create_recibos_informales.rs
FN:11,_RNvXs_NtNtCskqrQbUAEY9O_18realestate_backend10migrations42m20260601_000008_create_recibos_informalesNtB4_9MigrationNtCsfJhJy70T9TW_17sea_orm_migration14MigrationTrait2up
FN:98,_RNvXs_NtNtCskqrQbUAEY9O_18realestate_backend10migrations42m20260601_000008_create_recibos_informalesNtB4_9MigrationNtCsfJhJy70T9TW_17sea_orm_migration14MigrationTrait4down
FN:11,_RNvXs_NtNtCsbgKgox7znE6_18realestate_backend10migrations42m20260601_000008_create_recibos_informalesNtB4_9MigrationNtCsfJhJy70T9TW_17sea_orm_migration14MigrationTrait2up
FN:98,_RNvXs_NtNtCsbgKgox7znE6_18realestate_backend10migrations42m20260601_000008_create_recibos_informalesNtB4_9MigrationNtCsfJhJy70T9TW_17sea_orm_migration14MigrationTrait4down
FNDA:0,_RNvXs_NtNtCskqrQbUAEY9O_18realestate_backend10migrations42m20260601_000008_create_recibos_informalesNtB4_9MigrationNtCsfJhJy70T9TW_17sea_orm_migration14MigrationTrait2up
FNDA:0,_RNvXs_NtNtCskqrQbUAEY9O_18realestate_backend10migrations42m20260601_000008_create_recibos_informalesNtB4_9MigrationNtCsfJhJy70T9TW_17sea_orm_migration14MigrationTrait4down
FNDA:0,_RNvXs_NtNtCsbgKgox7znE6_18realestate_backend10migrations42m20260601_000008_create_recibos_informalesNtB4_9MigrationNtCsfJhJy70T9TW_17sea_orm_migration14MigrationTrait2up
FNDA:0,_RNvXs_NtNtCsbgKgox7znE6_18realestate_backend10migrations42m20260601_000008_create_recibos_informalesNtB4_9MigrationNtCsfJhJy70T9TW_17sea_orm_migration14MigrationTrait4down
FNF:2
FNH:0
DA:11,0
DA:96,0
DA:98,0
DA:102,0
BRF:0
BRH:0
LF:4
LH:0
end_of_record
SF:/home/runner/_work/Gestion-inmobiliaria/Gestion-inmobiliaria/backend/src/../migrations/m20260601_000009_create_copropietarios.rs
FN:11,_RNvXs_NtNtCskqrQbUAEY9O_18realestate_backend10migrations38m20260601_000009_create_copropietariosNtB4_9MigrationNtCsfJhJy70T9TW_17sea_orm_migration14MigrationTrait2up
FN:102,_RNvXs_NtNtCskqrQbUAEY9O_18realestate_backend10migrations38m20260601_000009_create_copropietariosNtB4_9MigrationNtCsfJhJy70T9TW_17sea_orm_migration14MigrationTrait4down
FN:11,_RNvXs_NtNtCsbgKgox7znE6_18realestate_backend10migrations38m20260601_000009_create_copropietariosNtB4_9MigrationNtCsfJhJy70T9TW_17sea_orm_migration14MigrationTrait2up
FN:102,_RNvXs_NtNtCsbgKgox7znE6_18realestate_backend10migrations38m20260601_000009_create_copropietariosNtB4_9MigrationNtCsfJhJy70T9TW_17sea_orm_migration14MigrationTrait4down
FNDA:0,_RNvXs_NtNtCskqrQbUAEY9O_18realestate_backend10migrations38m20260601_000009_create_copropietariosNtB4_9MigrationNtCsfJhJy70T9TW_17sea_orm_migration14MigrationTrait2up
FNDA:0,_RNvXs_NtNtCskqrQbUAEY9O_18realestate_backend10migrations38m20260601_000009_create_copropietariosNtB4_9MigrationNtCsfJhJy70T9TW_17sea_orm_migration14MigrationTrait4down
FNDA:0,_RNvXs_NtNtCsbgKgox7znE6_18realestate_backend10migrations38m20260601_000009_create_copropietariosNtB4_9MigrationNtCsfJhJy70T9TW_17sea_orm_migration14MigrationTrait2up
FNDA:0,_RNvXs_NtNtCsbgKgox7znE6_18realestate_backend10migrations38m20260601_000009_create_copropietariosNtB4_9MigrationNtCsfJhJy70T9TW_17sea_orm_migration14MigrationTrait4down
FNF:2
FNH:0
DA:11,0
DA:100,0
DA:102,0
DA:106,0
BRF:0
BRH:0
LF:4
LH:0
end_of_record
SF:/home/runner/_work/Gestion-inmobiliaria/Gestion-inmobiliaria/backend/src/../migrations/m20260606_000001_add_missing_indexes.rs
FN:6,_RNvXNtNtCskqrQbUAEY9O_18realestate_backend10migrations36m20260606_000001_add_missing_indexesNtB2_9MigrationNtCsfJhJy70T9TW_17sea_orm_migration13MigrationName4name
FN:13,_RNvXs_NtNtCskqrQbUAEY9O_18realestate_backend10migrations36m20260606_000001_add_missing_indexesNtB4_9MigrationNtCsfJhJy70T9TW_17sea_orm_migration14MigrationTrait2up
FN:29,_RNvXs_NtNtCskqrQbUAEY9O_18realestate_backend10migrations36m20260606_000001_add_missing_indexesNtB4_9MigrationNtCsfJhJy70T9TW_17sea_orm_migration14MigrationTrait4down
FN:6,_RNvXNtNtCsbgKgox7znE6_18realestate_backend10migrations36m20260606_000001_add_missing_indexesNtB2_9MigrationNtCsfJhJy70T9TW_17sea_orm_migration13MigrationName4name
FN:13,_RNvXs_NtNtCsbgKgox7znE6_18realestate_backend10migrations36m20260606_000001_add_missing_indexesNtB4_9MigrationNtCsfJhJy70T9TW_17sea_orm_migration14MigrationTrait2up
FN:29,_RNvXs_NtNtCsbgKgox7znE6_18realestate_backend10migrations36m20260606_000001_add_missing_indexesNtB4_9MigrationNtCsfJhJy70T9TW_17sea_orm_migration14MigrationTrait4down
FNDA:0,_RNvXNtNtCskqrQbUAEY9O_18realestate_backend10migrations36m20260606_000001_add_missing_indexesNtB2_9MigrationNtCsfJhJy70T9TW_17sea_orm_migration13MigrationName4name
FNDA:0,_RNvXs_NtNtCskqrQbUAEY9O_18realestate_backend10migrations36m20260606_000001_add_missing_indexesNtB4_9MigrationNtCsfJhJy70T9TW_17sea_orm_migration14MigrationTrait2up
FNDA:0,_RNvXs_NtNtCskqrQbUAEY9O_18realestate_backend10migrations36m20260606_000001_add_missing_indexesNtB4_9MigrationNtCsfJhJy70T9TW_17sea_orm_migration14MigrationTrait4down
FNDA:0,_RNvXNtNtCsbgKgox7znE6_18realestate_backend10migrations36m20260606_000001_add_missing_indexesNtB2_9MigrationNtCsfJhJy70T9TW_17sea_orm_migration13MigrationName4name
FNDA:0,_RNvXs_NtNtCsbgKgox7znE6_18realestate_backend10migrations36m20260606_000001_add_missing_indexesNtB4_9MigrationNtCsfJhJy70T9TW_17sea_orm_migration14MigrationTrait2up
FNDA:0,_RNvXs_NtNtCsbgKgox7znE6_18realestate_backend10migrations36m20260606_000001_add_missing_indexesNtB4_9MigrationNtCsfJhJy70T9TW_17sea_orm_migration14MigrationTrait4down
FNF:3
FNH:0
DA:6,0
DA:7,0
DA:8,0
DA:13,0
DA:27,0
DA:29,0
DA:40,0
BRF:0
BRH:0
LF:7
LH:0
end_of_record
SF:/home/runner/_work/Gestion-inmobiliaria/Gestion-inmobiliaria/backend/src/../migrations/m20260606_000002_create_gastos_recurrentes.rs
FN:8,_RNvXs_NtNtCskqrQbUAEY9O_18realestate_backend10migrations42m20260606_000002_create_gastos_recurrentesNtB4_9MigrationNtCsfJhJy70T9TW_17sea_orm_migration14MigrationTrait2up
FN:107,_RNvXs_NtNtCskqrQbUAEY9O_18realestate_backend10migrations42m20260606_000002_create_gastos_recurrentesNtB4_9MigrationNtCsfJhJy70T9TW_17sea_orm_migration14MigrationTrait4down
FN:8,_RNvXs_NtNtCsbgKgox7znE6_18realestate_backend10migrations42m20260606_000002_create_gastos_recurrentesNtB4_9MigrationNtCsfJhJy70T9TW_17sea_orm_migration14MigrationTrait2up
FN:107,_RNvXs_NtNtCsbgKgox7znE6_18realestate_backend10migrations42m20260606_000002_create_gastos_recurrentesNtB4_9MigrationNtCsfJhJy70T9TW_17sea_orm_migration14MigrationTrait4down
FNDA:0,_RNvXs_NtNtCskqrQbUAEY9O_18realestate_backend10migrations42m20260606_000002_create_gastos_recurrentesNtB4_9MigrationNtCsfJhJy70T9TW_17sea_orm_migration14MigrationTrait2up
FNDA:0,_RNvXs_NtNtCskqrQbUAEY9O_18realestate_backend10migrations42m20260606_000002_create_gastos_recurrentesNtB4_9MigrationNtCsfJhJy70T9TW_17sea_orm_migration14MigrationTrait4down
FNDA:0,_RNvXs_NtNtCsbgKgox7znE6_18realestate_backend10migrations42m20260606_000002_create_gastos_recurrentesNtB4_9MigrationNtCsfJhJy70T9TW_17sea_orm_migration14MigrationTrait2up
FNDA:0,_RNvXs_NtNtCsbgKgox7znE6_18realestate_backend10migrations42m20260606_000002_create_gastos_recurrentesNtB4_9MigrationNtCsfJhJy70T9TW_17sea_orm_migration14MigrationTrait4down
FNF:2
FNH:0
DA:8,0
DA:105,0
DA:107,0
DA:111,0
BRF:0
BRH:0
LF:4
LH:0
end_of_record
SF:/home/runner/_work/Gestion-inmobiliaria/Gestion-inmobiliaria/backend/src/../migrations/m20260606_000003_create_mantenimiento_programado.rs
FN:8,_RNvXs_NtNtCskqrQbUAEY9O_18realestate_backend10migrations48m20260606_000003_create_mantenimiento_programadoNtB4_9MigrationNtCsfJhJy70T9TW_17sea_orm_migration14MigrationTrait2up
FN:130,_RNvXs_NtNtCskqrQbUAEY9O_18realestate_backend10migrations48m20260606_000003_create_mantenimiento_programadoNtB4_9MigrationNtCsfJhJy70T9TW_17sea_orm_migration14MigrationTrait4down
FN:8,_RNvXs_NtNtCsbgKgox7znE6_18realestate_backend10migrations48m20260606_000003_create_mantenimiento_programadoNtB4_9MigrationNtCsfJhJy70T9TW_17sea_orm_migration14MigrationTrait2up
FN:130,_RNvXs_NtNtCsbgKgox7znE6_18realestate_backend10migrations48m20260606_000003_create_mantenimiento_programadoNtB4_9MigrationNtCsfJhJy70T9TW_17sea_orm_migration14MigrationTrait4down
FNDA:0,_RNvXs_NtNtCskqrQbUAEY9O_18realestate_backend10migrations48m20260606_000003_create_mantenimiento_programadoNtB4_9MigrationNtCsfJhJy70T9TW_17sea_orm_migration14MigrationTrait2up
FNDA:0,_RNvXs_NtNtCskqrQbUAEY9O_18realestate_backend10migrations48m20260606_000003_create_mantenimiento_programadoNtB4_9MigrationNtCsfJhJy70T9TW_17sea_orm_migration14MigrationTrait4down
FNDA:0,_RNvXs_NtNtCsbgKgox7znE6_18realestate_backend10migrations48m20260606_000003_create_mantenimiento_programadoNtB4_9MigrationNtCsfJhJy70T9TW_17sea_orm_migration14MigrationTrait2up
FNDA:0,_RNvXs_NtNtCsbgKgox7znE6_18realestate_backend10migrations48m20260606_000003_create_mantenimiento_programadoNtB4_9MigrationNtCsfJhJy70T9TW_17sea_orm_migration14MigrationTrait4down
FNF:2
FNH:0
DA:8,0
DA:128,0
DA:130,0
DA:138,0
BRF:0
BRH:0
LF:4
LH:0
end_of_record
SF:/home/runner/_work/Gestion-inmobiliaria/Gestion-inmobiliaria/backend/src/../migrations/m20260607_000001_add_guidance_rules_to_chatbot_config.rs
FN:10,_RNvXs_NtNtCskqrQbUAEY9O_18realestate_backend10migrations53m20260607_000001_add_guidance_rules_to_chatbot_configNtB4_9MigrationNtCsfJhJy70T9TW_17sea_orm_migration14MigrationTrait2up
FN:28,_RNvXs_NtNtCskqrQbUAEY9O_18realestate_backend10migrations53m20260607_000001_add_guidance_rules_to_chatbot_configNtB4_9MigrationNtCsfJhJy70T9TW_17sea_orm_migration14MigrationTrait4down
FN:10,_RNvXs_NtNtCsbgKgox7znE6_18realestate_backend10migrations53m20260607_000001_add_guidance_rules_to_chatbot_configNtB4_9MigrationNtCsfJhJy70T9TW_17sea_orm_migration14MigrationTrait2up
FN:28,_RNvXs_NtNtCsbgKgox7znE6_18realestate_backend10migrations53m20260607_000001_add_guidance_rules_to_chatbot_configNtB4_9MigrationNtCsfJhJy70T9TW_17sea_orm_migration14MigrationTrait4down
FNDA:0,_RNvXs_NtNtCskqrQbUAEY9O_18realestate_backend10migrations53m20260607_000001_add_guidance_rules_to_chatbot_configNtB4_9MigrationNtCsfJhJy70T9TW_17sea_orm_migration14MigrationTrait2up
FNDA:0,_RNvXs_NtNtCskqrQbUAEY9O_18realestate_backend10migrations53m20260607_000001_add_guidance_rules_to_chatbot_configNtB4_9MigrationNtCsfJhJy70T9TW_17sea_orm_migration14MigrationTrait4down
FNDA:0,_RNvXs_NtNtCsbgKgox7znE6_18realestate_backend10migrations53m20260607_000001_add_guidance_rules_to_chatbot_configNtB4_9MigrationNtCsfJhJy70T9TW_17sea_orm_migration14MigrationTrait2up
FNDA:0,_RNvXs_NtNtCsbgKgox7znE6_18realestate_backend10migrations53m20260607_000001_add_guidance_rules_to_chatbot_configNtB4_9MigrationNtCsfJhJy70T9TW_17sea_orm_migration14MigrationTrait4down
FNF:2
FNH:0
DA:10,0
DA:26,0
DA:28,0
DA:39,0
BRF:0
BRH:0
LF:4
LH:0
end_of_record
SF:/home/runner/_work/Gestion-inmobiliaria/Gestion-inmobiliaria/backend/src/../migrations/m20260607_000002_seed_guidance_rule_templates.rs
FN:105,_RNCNCNvXs_NtNtCskqrQbUAEY9O_18realestate_backend10migrations45m20260607_000002_seed_guidance_rule_templatesNtB8_9MigrationNtCsfJhJy70T9TW_17sea_orm_migration14MigrationTrait2up00Bc_
FN:7,_RNvNtNtCskqrQbUAEY9O_18realestate_backend10migrations45m20260607_000002_seed_guidance_rule_templates14rule_json_expr
FN:26,_RNvXs_NtNtCskqrQbUAEY9O_18realestate_backend10migrations45m20260607_000002_seed_guidance_rule_templatesNtB4_9MigrationNtCsfJhJy70T9TW_17sea_orm_migration14MigrationTrait2up
FN:142,_RNvXs_NtNtCskqrQbUAEY9O_18realestate_backend10migrations45m20260607_000002_seed_guidance_rule_templatesNtB4_9MigrationNtCsfJhJy70T9TW_17sea_orm_migration14MigrationTrait4down
FN:105,_RNCNCNvXs_NtNtCsbgKgox7znE6_18realestate_backend10migrations45m20260607_000002_seed_guidance_rule_templatesNtB8_9MigrationNtCsfJhJy70T9TW_17sea_orm_migration14MigrationTrait2up00Bc_
FN:7,_RNvNtNtCsbgKgox7znE6_18realestate_backend10migrations45m20260607_000002_seed_guidance_rule_templates14rule_json_expr
FN:26,_RNvXs_NtNtCsbgKgox7znE6_18realestate_backend10migrations45m20260607_000002_seed_guidance_rule_templatesNtB4_9MigrationNtCsfJhJy70T9TW_17sea_orm_migration14MigrationTrait2up
FN:142,_RNvXs_NtNtCsbgKgox7znE6_18realestate_backend10migrations45m20260607_000002_seed_guidance_rule_templatesNtB4_9MigrationNtCsfJhJy70T9TW_17sea_orm_migration14MigrationTrait4down
FNDA:0,_RNCNCNvXs_NtNtCskqrQbUAEY9O_18realestate_backend10migrations45m20260607_000002_seed_guidance_rule_templatesNtB8_9MigrationNtCsfJhJy70T9TW_17sea_orm_migration14MigrationTrait2up00Bc_
FNDA:0,_RNvNtNtCskqrQbUAEY9O_18realestate_backend10migrations45m20260607_000002_seed_guidance_rule_templates14rule_json_expr
FNDA:0,_RNvXs_NtNtCskqrQbUAEY9O_18realestate_backend10migrations45m20260607_000002_seed_guidance_rule_templatesNtB4_9MigrationNtCsfJhJy70T9TW_17sea_orm_migration14MigrationTrait2up
FNDA:0,_RNvXs_NtNtCskqrQbUAEY9O_18realestate_backend10migrations45m20260607_000002_seed_guidance_rule_templatesNtB4_9MigrationNtCsfJhJy70T9TW_17sea_orm_migration14MigrationTrait4down
FNDA:0,_RNCNCNvXs_NtNtCsbgKgox7znE6_18realestate_backend10migrations45m20260607_000002_seed_guidance_rule_templatesNtB8_9MigrationNtCsfJhJy70T9TW_17sea_orm_migration14MigrationTrait2up00Bc_
FNDA:0,_RNvNtNtCsbgKgox7znE6_18realestate_backend10migrations45m20260607_000002_seed_guidance_rule_templates14rule_json_expr
FNDA:0,_RNvXs_NtNtCsbgKgox7znE6_18realestate_backend10migrations45m20260607_000002_seed_guidance_rule_templatesNtB4_9MigrationNtCsfJhJy70T9TW_17sea_orm_migration14MigrationTrait2up
FNDA:0,_RNvXs_NtNtCsbgKgox7znE6_18realestate_backend10migrations45m20260607_000002_seed_guidance_rule_templatesNtB4_9MigrationNtCsfJhJy70T9TW_17sea_orm_migration14MigrationTrait4down
FNF:4
FNH:0
DA:7,0
DA:9,0
DA:10,0
DA:22,0
DA:26,0
DA:105,0
DA:107,0
DA:108,0
DA:109,0
DA:140,0
DA:142,0
DA:150,0
BRF:0
BRH:0
LF:12
LH:0
end_of_record
SF:/home/runner/_work/Gestion-inmobiliaria/Gestion-inmobiliaria/backend/src/../migrations/m20260608_000001_add_password_changed_at.rs
FN:6,_RNvXNtNtCskqrQbUAEY9O_18realestate_backend10migrations40m20260608_000001_add_password_changed_atNtB2_9MigrationNtCsfJhJy70T9TW_17sea_orm_migration13MigrationName4name
FN:19,_RNvXs0_NtNtCskqrQbUAEY9O_18realestate_backend10migrations40m20260608_000001_add_password_changed_atNtB5_9MigrationNtCsfJhJy70T9TW_17sea_orm_migration14MigrationTrait2up
FN:43,_RNvXs0_NtNtCskqrQbUAEY9O_18realestate_backend10migrations40m20260608_000001_add_password_changed_atNtB5_9MigrationNtCsfJhJy70T9TW_17sea_orm_migration14MigrationTrait4down
FN:6,_RNvXNtNtCsbgKgox7znE6_18realestate_backend10migrations40m20260608_000001_add_password_changed_atNtB2_9MigrationNtCsfJhJy70T9TW_17sea_orm_migration13MigrationName4name
FN:19,_RNvXs0_NtNtCsbgKgox7znE6_18realestate_backend10migrations40m20260608_000001_add_password_changed_atNtB5_9MigrationNtCsfJhJy70T9TW_17sea_orm_migration14MigrationTrait2up
FN:43,_RNvXs0_NtNtCsbgKgox7znE6_18realestate_backend10migrations40m20260608_000001_add_password_changed_atNtB5_9MigrationNtCsfJhJy70T9TW_17sea_orm_migration14MigrationTrait4down
FNDA:0,_RNvXNtNtCskqrQbUAEY9O_18realestate_backend10migrations40m20260608_000001_add_password_changed_atNtB2_9MigrationNtCsfJhJy70T9TW_17sea_orm_migration13MigrationName4name
FNDA:0,_RNvXs0_NtNtCskqrQbUAEY9O_18realestate_backend10migrations40m20260608_000001_add_password_changed_atNtB5_9MigrationNtCsfJhJy70T9TW_17sea_orm_migration14MigrationTrait2up
FNDA:0,_RNvXs0_NtNtCskqrQbUAEY9O_18realestate_backend10migrations40m20260608_000001_add_password_changed_atNtB5_9MigrationNtCsfJhJy70T9TW_17sea_orm_migration14MigrationTrait4down
FNDA:0,_RNvXNtNtCsbgKgox7znE6_18realestate_backend10migrations40m20260608_000001_add_password_changed_atNtB2_9MigrationNtCsfJhJy70T9TW_17sea_orm_migration13MigrationName4name
FNDA:0,_RNvXs0_NtNtCsbgKgox7znE6_18realestate_backend10migrations40m20260608_000001_add_password_changed_atNtB5_9MigrationNtCsfJhJy70T9TW_17sea_orm_migration14MigrationTrait2up
FNDA:0,_RNvXs0_NtNtCsbgKgox7znE6_18realestate_backend10migrations40m20260608_000001_add_password_changed_atNtB5_9MigrationNtCsfJhJy70T9TW_17sea_orm_migration14MigrationTrait4down
FNF:3
FNH:0
DA:6,0
DA:7,0
DA:8,0
DA:19,0
DA:41,0
DA:43,0
DA:54,0
BRF:0
BRH:0
LF:7
LH:0
end_of_record
SF:/home/runner/_work/Gestion-inmobiliaria/Gestion-inmobiliaria/backend/src/../migrations/m20260609_000001_add_organizacion_id_to_plantillas.rs
FN:6,_RNvXNtNtCskqrQbUAEY9O_18realestate_backend10migrations50m20260609_000001_add_organizacion_id_to_plantillasNtB2_9MigrationNtCsfJhJy70T9TW_17sea_orm_migration13MigrationName4name
FN:13,_RNvXs_NtNtCskqrQbUAEY9O_18realestate_backend10migrations50m20260609_000001_add_organizacion_id_to_plantillasNtB4_9MigrationNtCsfJhJy70T9TW_17sea_orm_migration14MigrationTrait2up
FN:48,_RNvXs_NtNtCskqrQbUAEY9O_18realestate_backend10migrations50m20260609_000001_add_organizacion_id_to_plantillasNtB4_9MigrationNtCsfJhJy70T9TW_17sea_orm_migration14MigrationTrait4down
FN:6,_RNvXNtNtCsbgKgox7znE6_18realestate_backend10migrations50m20260609_000001_add_organizacion_id_to_plantillasNtB2_9MigrationNtCsfJhJy70T9TW_17sea_orm_migration13MigrationName4name
FN:13,_RNvXs_NtNtCsbgKgox7znE6_18realestate_backend10migrations50m20260609_000001_add_organizacion_id_to_plantillasNtB4_9MigrationNtCsfJhJy70T9TW_17sea_orm_migration14MigrationTrait2up
FN:48,_RNvXs_NtNtCsbgKgox7znE6_18realestate_backend10migrations50m20260609_000001_add_organizacion_id_to_plantillasNtB4_9MigrationNtCsfJhJy70T9TW_17sea_orm_migration14MigrationTrait4down
FNDA:0,_RNvXNtNtCskqrQbUAEY9O_18realestate_backend10migrations50m20260609_000001_add_organizacion_id_to_plantillasNtB2_9MigrationNtCsfJhJy70T9TW_17sea_orm_migration13MigrationName4name
FNDA:0,_RNvXs_NtNtCskqrQbUAEY9O_18realestate_backend10migrations50m20260609_000001_add_organizacion_id_to_plantillasNtB4_9MigrationNtCsfJhJy70T9TW_17sea_orm_migration14MigrationTrait2up
FNDA:0,_RNvXs_NtNtCskqrQbUAEY9O_18realestate_backend10migrations50m20260609_000001_add_organizacion_id_to_plantillasNtB4_9MigrationNtCsfJhJy70T9TW_17sea_orm_migration14MigrationTrait4down
FNDA:0,_RNvXNtNtCsbgKgox7znE6_18realestate_backend10migrations50m20260609_000001_add_organizacion_id_to_plantillasNtB2_9MigrationNtCsfJhJy70T9TW_17sea_orm_migration13MigrationName4name
FNDA:0,_RNvXs_NtNtCsbgKgox7znE6_18realestate_backend10migrations50m20260609_000001_add_organizacion_id_to_plantillasNtB4_9MigrationNtCsfJhJy70T9TW_17sea_orm_migration14MigrationTrait2up
FNDA:0,_RNvXs_NtNtCsbgKgox7znE6_18realestate_backend10migrations50m20260609_000001_add_organizacion_id_to_plantillasNtB4_9MigrationNtCsfJhJy70T9TW_17sea_orm_migration14MigrationTrait4down
FNF:3
FNH:0
DA:6,0
DA:7,0
DA:8,0
DA:13,0
DA:46,0
DA:48,0
DA:65,0
BRF:0
BRH:0
LF:7
LH:0
end_of_record
SF:/home/runner/_work/Gestion-inmobiliaria/Gestion-inmobiliaria/backend/src/../migrations/m20260609_000002_add_performance_indexes.rs
FN:6,_RNvXNtNtCskqrQbUAEY9O_18realestate_backend10migrations40m20260609_000002_add_performance_indexesNtB2_9MigrationNtCsfJhJy70T9TW_17sea_orm_migration13MigrationName4name
FN:13,_RNvXs_NtNtCskqrQbUAEY9O_18realestate_backend10migrations40m20260609_000002_add_performance_indexesNtB4_9MigrationNtCsfJhJy70T9TW_17sea_orm_migration14MigrationTrait2up
FN:82,_RNvXs_NtNtCskqrQbUAEY9O_18realestate_backend10migrations40m20260609_000002_add_performance_indexesNtB4_9MigrationNtCsfJhJy70T9TW_17sea_orm_migration14MigrationTrait4down
FN:6,_RNvXNtNtCsbgKgox7znE6_18realestate_backend10migrations40m20260609_000002_add_performance_indexesNtB2_9MigrationNtCsfJhJy70T9TW_17sea_orm_migration13MigrationName4name
FN:13,_RNvXs_NtNtCsbgKgox7znE6_18realestate_backend10migrations40m20260609_000002_add_performance_indexesNtB4_9MigrationNtCsfJhJy70T9TW_17sea_orm_migration14MigrationTrait2up
FN:82,_RNvXs_NtNtCsbgKgox7znE6_18realestate_backend10migrations40m20260609_000002_add_performance_indexesNtB4_9MigrationNtCsfJhJy70T9TW_17sea_orm_migration14MigrationTrait4down
FNDA:0,_RNvXNtNtCskqrQbUAEY9O_18realestate_backend10migrations40m20260609_000002_add_performance_indexesNtB2_9MigrationNtCsfJhJy70T9TW_17sea_orm_migration13MigrationName4name
FNDA:0,_RNvXs_NtNtCskqrQbUAEY9O_18realestate_backend10migrations40m20260609_000002_add_performance_indexesNtB4_9MigrationNtCsfJhJy70T9TW_17sea_orm_migration14MigrationTrait2up
FNDA:0,_RNvXs_NtNtCskqrQbUAEY9O_18realestate_backend10migrations40m20260609_000002_add_performance_indexesNtB4_9MigrationNtCsfJhJy70T9TW_17sea_orm_migration14MigrationTrait4down
FNDA:0,_RNvXNtNtCsbgKgox7znE6_18realestate_backend10migrations40m20260609_000002_add_performance_indexesNtB2_9MigrationNtCsfJhJy70T9TW_17sea_orm_migration13MigrationName4name
FNDA:0,_RNvXs_NtNtCsbgKgox7znE6_18realestate_backend10migrations40m20260609_000002_add_performance_indexesNtB4_9MigrationNtCsfJhJy70T9TW_17sea_orm_migration14MigrationTrait2up
FNDA:0,_RNvXs_NtNtCsbgKgox7znE6_18realestate_backend10migrations40m20260609_000002_add_performance_indexesNtB4_9MigrationNtCsfJhJy70T9TW_17sea_orm_migration14MigrationTrait4down
FNF:3
FNH:0
DA:6,0
DA:7,0
DA:8,0
DA:13,0
DA:80,0
DA:82,0
DA:129,0
BRF:0
BRH:0
LF:7
LH:0
end_of_record
SF:/home/runner/_work/Gestion-inmobiliaria/Gestion-inmobiliaria/backend/src/../migrations/m20260613_000001_add_overdue_payments_indexes.rs
FN:6,_RNvXNtNtCskqrQbUAEY9O_18realestate_backend10migrations45m20260613_000001_add_overdue_payments_indexesNtB2_9MigrationNtCsfJhJy70T9TW_17sea_orm_migration13MigrationName4name
FN:13,_RNvXs_NtNtCskqrQbUAEY9O_18realestate_backend10migrations45m20260613_000001_add_overdue_payments_indexesNtB4_9MigrationNtCsfJhJy70T9TW_17sea_orm_migration14MigrationTrait2up
FN:29,_RNvXs_NtNtCskqrQbUAEY9O_18realestate_backend10migrations45m20260613_000001_add_overdue_payments_indexesNtB4_9MigrationNtCsfJhJy70T9TW_17sea_orm_migration14MigrationTrait4down
FN:6,_RNvXNtNtCsbgKgox7znE6_18realestate_backend10migrations45m20260613_000001_add_overdue_payments_indexesNtB2_9MigrationNtCsfJhJy70T9TW_17sea_orm_migration13MigrationName4name
FN:13,_RNvXs_NtNtCsbgKgox7znE6_18realestate_backend10migrations45m20260613_000001_add_overdue_payments_indexesNtB4_9MigrationNtCsfJhJy70T9TW_17sea_orm_migration14MigrationTrait2up
FN:29,_RNvXs_NtNtCsbgKgox7znE6_18realestate_backend10migrations45m20260613_000001_add_overdue_payments_indexesNtB4_9MigrationNtCsfJhJy70T9TW_17sea_orm_migration14MigrationTrait4down
FNDA:0,_RNvXNtNtCskqrQbUAEY9O_18realestate_backend10migrations45m20260613_000001_add_overdue_payments_indexesNtB2_9MigrationNtCsfJhJy70T9TW_17sea_orm_migration13MigrationName4name
FNDA:0,_RNvXs_NtNtCskqrQbUAEY9O_18realestate_backend10migrations45m20260613_000001_add_overdue_payments_indexesNtB4_9MigrationNtCsfJhJy70T9TW_17sea_orm_migration14MigrationTrait2up
FNDA:0,_RNvXs_NtNtCskqrQbUAEY9O_18realestate_backend10migrations45m20260613_000001_add_overdue_payments_indexesNtB4_9MigrationNtCsfJhJy70T9TW_17sea_orm_migration14MigrationTrait4down
FNDA:0,_RNvXNtNtCsbgKgox7znE6_18realestate_backend10migrations45m20260613_000001_add_overdue_payments_indexesNtB2_9MigrationNtCsfJhJy70T9TW_17sea_orm_migration13MigrationName4name
FNDA:0,_RNvXs_NtNtCsbgKgox7znE6_18realestate_backend10migrations45m20260613_000001_add_overdue_payments_indexesNtB4_9MigrationNtCsfJhJy70T9TW_17sea_orm_migration14MigrationTrait2up
FNDA:0,_RNvXs_NtNtCsbgKgox7znE6_18realestate_backend10migrations45m20260613_000001_add_overdue_payments_indexesNtB4_9MigrationNtCsfJhJy70T9TW_17sea_orm_migration14MigrationTrait4down
FNF:3
FNH:0
DA:6,0
DA:7,0
DA:8,0
DA:13,0
DA:27,0
DA:29,0
DA:40,0
BRF:0
BRH:0
LF:7
LH:0
end_of_record
SF:/home/runner/_work/Gestion-inmobiliaria/Gestion-inmobiliaria/backend/src/../migrations/m20260614_000001_create_metrics_exporter_role.rs
FN:6,_RNvXNtNtCskqrQbUAEY9O_18realestate_backend10migrations45m20260614_000001_create_metrics_exporter_roleNtB2_9MigrationNtCsfJhJy70T9TW_17sea_orm_migration13MigrationName4name
FN:13,_RNvXs_NtNtCskqrQbUAEY9O_18realestate_backend10migrations45m20260614_000001_create_metrics_exporter_roleNtB4_9MigrationNtCsfJhJy70T9TW_17sea_orm_migration14MigrationTrait2up
FN:56,_RNvXs_NtNtCskqrQbUAEY9O_18realestate_backend10migrations45m20260614_000001_create_metrics_exporter_roleNtB4_9MigrationNtCsfJhJy70T9TW_17sea_orm_migration14MigrationTrait4down
FN:6,_RNvXNtNtCsbgKgox7znE6_18realestate_backend10migrations45m20260614_000001_create_metrics_exporter_roleNtB2_9MigrationNtCsfJhJy70T9TW_17sea_orm_migration13MigrationName4name
FN:13,_RNvXs_NtNtCsbgKgox7znE6_18realestate_backend10migrations45m20260614_000001_create_metrics_exporter_roleNtB4_9MigrationNtCsfJhJy70T9TW_17sea_orm_migration14MigrationTrait2up
FN:56,_RNvXs_NtNtCsbgKgox7znE6_18realestate_backend10migrations45m20260614_000001_create_metrics_exporter_roleNtB4_9MigrationNtCsfJhJy70T9TW_17sea_orm_migration14MigrationTrait4down
FNDA:0,_RNvXNtNtCskqrQbUAEY9O_18realestate_backend10migrations45m20260614_000001_create_metrics_exporter_roleNtB2_9MigrationNtCsfJhJy70T9TW_17sea_orm_migration13MigrationName4name
FNDA:0,_RNvXs_NtNtCskqrQbUAEY9O_18realestate_backend10migrations45m20260614_000001_create_metrics_exporter_roleNtB4_9MigrationNtCsfJhJy70T9TW_17sea_orm_migration14MigrationTrait2up
FNDA:0,_RNvXs_NtNtCskqrQbUAEY9O_18realestate_backend10migrations45m20260614_000001_create_metrics_exporter_roleNtB4_9MigrationNtCsfJhJy70T9TW_17sea_orm_migration14MigrationTrait4down
FNDA:0,_RNvXNtNtCsbgKgox7znE6_18realestate_backend10migrations45m20260614_000001_create_metrics_exporter_roleNtB2_9MigrationNtCsfJhJy70T9TW_17sea_orm_migration13MigrationName4name
FNDA:0,_RNvXs_NtNtCsbgKgox7znE6_18realestate_backend10migrations45m20260614_000001_create_metrics_exporter_roleNtB4_9MigrationNtCsfJhJy70T9TW_17sea_orm_migration14MigrationTrait2up
FNDA:0,_RNvXs_NtNtCsbgKgox7znE6_18realestate_backend10migrations45m20260614_000001_create_metrics_exporter_roleNtB4_9MigrationNtCsfJhJy70T9TW_17sea_orm_migration14MigrationTrait4down
FNF:3
FNH:0
DA:6,0
DA:7,0
DA:8,0
DA:13,0
DA:54,0
DA:56,0
DA:84,0
BRF:0
BRH:0
LF:7
LH:0
end_of_record
SF:/home/runner/_work/Gestion-inmobiliaria/Gestion-inmobiliaria/backend/src/../migrations/mod.rs
FN:63,_RNvXNtCskqrQbUAEY9O_18realestate_backend10migrationsNtB2_8MigratorNtNtCsfJhJy70T9TW_17sea_orm_migration8migrator13MigratorTrait10migrations
FN:63,_RNvXNtCsbgKgox7znE6_18realestate_backend10migrationsNtB2_8MigratorNtNtCsfJhJy70T9TW_17sea_orm_migration8migrator13MigratorTrait10migrations
FNDA:0,_RNvXNtCskqrQbUAEY9O_18realestate_backend10migrationsNtB2_8MigratorNtNtCsfJhJy70T9TW_17sea_orm_migration8migrator13MigratorTrait10migrations
FNDA:0,_RNvXNtCsbgKgox7znE6_18realestate_backend10migrationsNtB2_8MigratorNtNtCsfJhJy70T9TW_17sea_orm_migration8migrator13MigratorTrait10migrations
FNF:1
FNH:0
DA:63,0
DA:64,0
DA:65,0
DA:66,0
DA:67,0
DA:68,0
DA:69,0
DA:70,0
DA:71,0
DA:72,0
DA:73,0
DA:74,0
DA:75,0
DA:76,0
DA:77,0
DA:78,0
DA:79,0
DA:80,0
DA:81,0
DA:82,0
DA:83,0
DA:84,0
DA:85,0
DA:86,0
DA:87,0
DA:88,0
DA:89,0
DA:90,0
DA:91,0
DA:92,0
DA:93,0
DA:94,0
DA:95,0
DA:96,0
DA:97,0
DA:98,0
DA:99,0
DA:100,0
DA:101,0
DA:102,0
DA:103,0
DA:104,0
DA:105,0
DA:106,0
DA:107,0
DA:108,0
DA:109,0
DA:110,0
DA:111,0
DA:112,0
DA:113,0
DA:114,0
DA:115,0
DA:116,0
DA:117,0
DA:118,0
DA:120,0
BRF:0
BRH:0
LF:57
LH:0
end_of_record
SF:/home/runner/_work/Gestion-inmobiliaria/Gestion-inmobiliaria/backend/src/app.rs
FN:99,_RNCNCNCNvNtCsjO1mwjW04O1_18realestate_backend3app12serve_upload0s_00B9_
FN:101,_RNCNCNCNvNtCsjO1mwjW04O1_18realestate_backend3app12serve_upload0s_0s_0B9_
FN:85,_RNCNCNvNtCsjO1mwjW04O1_18realestate_backend3app12serve_upload00B7_
FN:110,_RNCNCNvNtCsjO1mwjW04O1_18realestate_backend3app12serve_upload0s0_0B7_
FN:114,_RNCNCNvNtCsjO1mwjW04O1_18realestate_backend3app12serve_upload0s1_0B7_
FN:120,_RNCNCNvNtCsjO1mwjW04O1_18realestate_backend3app12serve_upload0s2_0B7_
FN:97,_RNCNCNvNtCsjO1mwjW04O1_18realestate_backend3app12serve_upload0s_0B7_
FN:61,_RNCNCNvNtCsjO1mwjW04O1_18realestate_backend3app16internal_metrics00B7_
FN:63,_RNCNCNvNtCsjO1mwjW04O1_18realestate_backend3app16internal_metrics0s0_0B7_
FN:62,_RNCNCNvNtCsjO1mwjW04O1_18realestate_backend3app16internal_metrics0s_0B7_
FN:125,_RNCNvNtCsjO1mwjW04O1_18realestate_backend3app10build_cors0B5_
FN:132,_RNCNvNtCsjO1mwjW04O1_18realestate_backend3app10build_corss_0B5_
FN:161,_RNCNvNtCsjO1mwjW04O1_18realestate_backend3app10create_app0B5_
FN:181,_RNCNvNtCsjO1mwjW04O1_18realestate_backend3app10create_apps0_0B5_
FN:165,_RNCNvNtCsjO1mwjW04O1_18realestate_backend3app10create_apps_0B5_
FN:84,_RNCNvNtCsjO1mwjW04O1_18realestate_backend3app12serve_upload0B5_
FN:39,_RNCNvNtCsjO1mwjW04O1_18realestate_backend3app15metrics_handler0B5_
FN:56,_RNCNvNtCsjO1mwjW04O1_18realestate_backend3app16internal_metrics0B5_
FN:24,_RNCNvNtCsjO1mwjW04O1_18realestate_backend3app5livez0B5_
FN:28,_RNCNvNtCsjO1mwjW04O1_18realestate_backend3app6health0B5_
FN:255,_RNCNvXNtCsjO1mwjW04O1_18realestate_backend3appNtB4_14NoopMailClientNtNtNtNtB6_8services4mail6client10MailClient4send0B6_
FN:123,_RNvNtCsjO1mwjW04O1_18realestate_backend3app10build_cors
FN:143,_RNvNtCsjO1mwjW04O1_18realestate_backend3app10create_app
FN:81,_RNvNtCsjO1mwjW04O1_18realestate_backend3app12serve_upload
FN:39,_RNvNtCsjO1mwjW04O1_18realestate_backend3app15metrics_handler
FN:53,_RNvNtCsjO1mwjW04O1_18realestate_backend3app16internal_metrics
FN:24,_RNvNtCsjO1mwjW04O1_18realestate_backend3app5livez
FN:28,_RNvNtCsjO1mwjW04O1_18realestate_backend3app6health
FN:250,_RNvXNtCsjO1mwjW04O1_18realestate_backend3appNtB2_14NoopMailClientNtNtNtNtB4_8services4mail6client10MailClient4send
FN:99,_RNCNCNCNvNtCshWAJ4lei3LP_18realestate_backend3app12serve_upload0s_00B9_
FN:101,_RNCNCNCNvNtCshWAJ4lei3LP_18realestate_backend3app12serve_upload0s_0s_0B9_
FN:85,_RNCNCNvNtCshWAJ4lei3LP_18realestate_backend3app12serve_upload00B7_
FN:110,_RNCNCNvNtCshWAJ4lei3LP_18realestate_backend3app12serve_upload0s0_0B7_
FN:114,_RNCNCNvNtCshWAJ4lei3LP_18realestate_backend3app12serve_upload0s1_0B7_
FN:120,_RNCNCNvNtCshWAJ4lei3LP_18realestate_backend3app12serve_upload0s2_0B7_
FN:97,_RNCNCNvNtCshWAJ4lei3LP_18realestate_backend3app12serve_upload0s_0B7_
FN:61,_RNCNCNvNtCshWAJ4lei3LP_18realestate_backend3app16internal_metrics00B7_
FN:63,_RNCNCNvNtCshWAJ4lei3LP_18realestate_backend3app16internal_metrics0s0_0B7_
FN:62,_RNCNCNvNtCshWAJ4lei3LP_18realestate_backend3app16internal_metrics0s_0B7_
FN:125,_RNCNvNtCshWAJ4lei3LP_18realestate_backend3app10build_cors0B5_
FN:132,_RNCNvNtCshWAJ4lei3LP_18realestate_backend3app10build_corss_0B5_
FN:161,_RNCNvNtCshWAJ4lei3LP_18realestate_backend3app10create_app0B5_
FN:181,_RNCNvNtCshWAJ4lei3LP_18realestate_backend3app10create_apps0_0B5_
FN:165,_RNCNvNtCshWAJ4lei3LP_18realestate_backend3app10create_apps_0B5_
FN:84,_RNCNvNtCshWAJ4lei3LP_18realestate_backend3app12serve_upload0B5_
FN:39,_RNCNvNtCshWAJ4lei3LP_18realestate_backend3app15metrics_handler0B5_
FN:56,_RNCNvNtCshWAJ4lei3LP_18realestate_backend3app16internal_metrics0B5_
FN:24,_RNCNvNtCshWAJ4lei3LP_18realestate_backend3app5livez0B5_
FN:28,_RNCNvNtCshWAJ4lei3LP_18realestate_backend3app6health0B5_
FN:255,_RNCNvXNtCshWAJ4lei3LP_18realestate_backend3appNtB4_14NoopMailClientNtNtNtNtB6_8services4mail6client10MailClient4send0B6_
FN:123,_RNvNtCshWAJ4lei3LP_18realestate_backend3app10build_cors
FN:143,_RNvNtCshWAJ4lei3LP_18realestate_backend3app10create_app
FN:81,_RNvNtCshWAJ4lei3LP_18realestate_backend3app12serve_upload
FN:39,_RNvNtCshWAJ4lei3LP_18realestate_backend3app15metrics_handler
FN:53,_RNvNtCshWAJ4lei3LP_18realestate_backend3app16internal_metrics
FN:24,_RNvNtCshWAJ4lei3LP_18realestate_backend3app5livez
FN:28,_RNvNtCshWAJ4lei3LP_18realestate_backend3app6health
FN:250,_RNvXNtCshWAJ4lei3LP_18realestate_backend3appNtB2_14NoopMailClientNtNtNtNtB4_8services4mail6client10MailClient4send
FNDA:0,_RNCNCNCNvNtCsjO1mwjW04O1_18realestate_backend3app12serve_upload0s_00B9_
FNDA:0,_RNCNCNCNvNtCsjO1mwjW04O1_18realestate_backend3app12serve_upload0s_0s_0B9_
FNDA:0,_RNCNCNvNtCsjO1mwjW04O1_18realestate_backend3app12serve_upload00B7_
FNDA:0,_RNCNCNvNtCsjO1mwjW04O1_18realestate_backend3app12serve_upload0s0_0B7_
FNDA:0,_RNCNCNvNtCsjO1mwjW04O1_18realestate_backend3app12serve_upload0s1_0B7_
FNDA:0,_RNCNCNvNtCsjO1mwjW04O1_18realestate_backend3app12serve_upload0s2_0B7_
FNDA:0,_RNCNCNvNtCsjO1mwjW04O1_18realestate_backend3app12serve_upload0s_0B7_
FNDA:0,_RNCNCNvNtCsjO1mwjW04O1_18realestate_backend3app16internal_metrics00B7_
FNDA:0,_RNCNCNvNtCsjO1mwjW04O1_18realestate_backend3app16internal_metrics0s0_0B7_
FNDA:0,_RNCNCNvNtCsjO1mwjW04O1_18realestate_backend3app16internal_metrics0s_0B7_
FNDA:0,_RNCNvNtCsjO1mwjW04O1_18realestate_backend3app10build_cors0B5_
FNDA:0,_RNCNvNtCsjO1mwjW04O1_18realestate_backend3app10build_corss_0B5_
FNDA:0,_RNCNvNtCsjO1mwjW04O1_18realestate_backend3app10create_app0B5_
FNDA:0,_RNCNvNtCsjO1mwjW04O1_18realestate_backend3app10create_apps0_0B5_
FNDA:0,_RNCNvNtCsjO1mwjW04O1_18realestate_backend3app10create_apps_0B5_
FNDA:0,_RNCNvNtCsjO1mwjW04O1_18realestate_backend3app12serve_upload0B5_
FNDA:0,_RNCNvNtCsjO1mwjW04O1_18realestate_backend3app15metrics_handler0B5_
FNDA:0,_RNCNvNtCsjO1mwjW04O1_18realestate_backend3app16internal_metrics0B5_
FNDA:0,_RNCNvNtCsjO1mwjW04O1_18realestate_backend3app5livez0B5_
FNDA:0,_RNCNvNtCsjO1mwjW04O1_18realestate_backend3app6health0B5_
FNDA:0,_RNCNvXNtCsjO1mwjW04O1_18realestate_backend3appNtB4_14NoopMailClientNtNtNtNtB6_8services4mail6client10MailClient4send0B6_
FNDA:0,_RNvNtCsjO1mwjW04O1_18realestate_backend3app10build_cors
FNDA:0,_RNvNtCsjO1mwjW04O1_18realestate_backend3app10create_app
FNDA:0,_RNvNtCsjO1mwjW04O1_18realestate_backend3app12serve_upload
FNDA:0,_RNvNtCsjO1mwjW04O1_18realestate_backend3app15metrics_handler
FNDA:0,_RNvNtCsjO1mwjW04O1_18realestate_backend3app16internal_metrics
FNDA:0,_RNvNtCsjO1mwjW04O1_18realestate_backend3app5livez
FNDA:0,_RNvNtCsjO1mwjW04O1_18realestate_backend3app6health
FNDA:0,_RNvXNtCsjO1mwjW04O1_18realestate_backend3appNtB2_14NoopMailClientNtNtNtNtB4_8services4mail6client10MailClient4send
FNDA:0,_RNCNCNCNvNtCshWAJ4lei3LP_18realestate_backend3app12serve_upload0s_00B9_
FNDA:0,_RNCNCNCNvNtCshWAJ4lei3LP_18realestate_backend3app12serve_upload0s_0s_0B9_
FNDA:0,_RNCNCNvNtCshWAJ4lei3LP_18realestate_backend3app12serve_upload00B7_
FNDA:0,_RNCNCNvNtCshWAJ4lei3LP_18realestate_backend3app12serve_upload0s0_0B7_
FNDA:0,_RNCNCNvNtCshWAJ4lei3LP_18realestate_backend3app12serve_upload0s1_0B7_
FNDA:0,_RNCNCNvNtCshWAJ4lei3LP_18realestate_backend3app12serve_upload0s2_0B7_
FNDA:0,_RNCNCNvNtCshWAJ4lei3LP_18realestate_backend3app12serve_upload0s_0B7_
FNDA:0,_RNCNCNvNtCshWAJ4lei3LP_18realestate_backend3app16internal_metrics00B7_
FNDA:0,_RNCNCNvNtCshWAJ4lei3LP_18realestate_backend3app16internal_metrics0s0_0B7_
FNDA:0,_RNCNCNvNtCshWAJ4lei3LP_18realestate_backend3app16internal_metrics0s_0B7_
FNDA:0,_RNCNvNtCshWAJ4lei3LP_18realestate_backend3app10build_cors0B5_
FNDA:0,_RNCNvNtCshWAJ4lei3LP_18realestate_backend3app10build_corss_0B5_
FNDA:0,_RNCNvNtCshWAJ4lei3LP_18realestate_backend3app10create_app0B5_
FNDA:0,_RNCNvNtCshWAJ4lei3LP_18realestate_backend3app10create_apps0_0B5_
FNDA:0,_RNCNvNtCshWAJ4lei3LP_18realestate_backend3app10create_apps_0B5_
FNDA:0,_RNCNvNtCshWAJ4lei3LP_18realestate_backend3app12serve_upload0B5_
FNDA:0,_RNCNvNtCshWAJ4lei3LP_18realestate_backend3app15metrics_handler0B5_
FNDA:0,_RNCNvNtCshWAJ4lei3LP_18realestate_backend3app16internal_metrics0B5_
FNDA:0,_RNCNvNtCshWAJ4lei3LP_18realestate_backend3app5livez0B5_
FNDA:0,_RNCNvNtCshWAJ4lei3LP_18realestate_backend3app6health0B5_
FNDA:0,_RNCNvXNtCshWAJ4lei3LP_18realestate_backend3appNtB4_14NoopMailClientNtNtNtNtB6_8services4mail6client10MailClient4send0B6_
FNDA:0,_RNvNtCshWAJ4lei3LP_18realestate_backend3app10build_cors
FNDA:0,_RNvNtCshWAJ4lei3LP_18realestate_backend3app10create_app
FNDA:0,_RNvNtCshWAJ4lei3LP_18realestate_backend3app12serve_upload
FNDA:0,_RNvNtCshWAJ4lei3LP_18realestate_backend3app15metrics_handler
FNDA:0,_RNvNtCshWAJ4lei3LP_18realestate_backend3app16internal_metrics
FNDA:0,_RNvNtCshWAJ4lei3LP_18realestate_backend3app5livez
FNDA:0,_RNvNtCshWAJ4lei3LP_18realestate_backend3app6health
FNDA:0,_RNvXNtCshWAJ4lei3LP_18realestate_backend3appNtB2_14NoopMailClientNtNtNtNtB4_8services4mail6client10MailClient4send
FNF:29
FNH:0
DA:24,0
DA:25,0
DA:26,0
DA:28,0
DA:30,0
DA:31,0
DA:32,0
DA:34,0
DA:35,0
DA:37,0
DA:39,0
DA:41,0
DA:42,0
DA:43,0
DA:44,0
DA:45,0
DA:46,0
DA:47,0
DA:48,0
DA:49,0
DA:50,0
DA:53,0
DA:54,0
DA:55,0
DA:56,0
DA:57,0
DA:58,0
DA:59,0
DA:60,0
DA:61,0
DA:62,0
DA:63,0
DA:64,0
DA:65,0
DA:66,0
DA:67,0
DA:70,0
DA:71,0
DA:72,0
DA:73,0
DA:74,0
DA:75,0
DA:76,0
DA:77,0
DA:78,0
DA:79,0
DA:81,0
DA:82,0
DA:83,0
DA:84,0
DA:85,0
DA:86,0
DA:88,0
DA:89,0
DA:90,0
DA:92,0
DA:93,0
DA:94,0
DA:96,0
DA:97,0
DA:98,0
DA:99,0
DA:100,0
DA:101,0
DA:103,0
DA:104,0
DA:105,0
DA:107,0
DA:108,0
DA:109,0
DA:110,0
DA:112,0
DA:113,0
DA:114,0
DA:115,0
DA:116,0
DA:117,0
DA:118,0
DA:119,0
DA:120,0
DA:121,0
DA:123,0
DA:124,0
DA:125,0
DA:126,0
DA:130,0
DA:131,0
DA:132,0
DA:133,0
DA:134,0
DA:135,0
DA:136,0
DA:137,0
DA:138,0
DA:140,0
DA:143,0
DA:144,0
DA:145,0
DA:146,0
DA:147,0
DA:148,0
DA:149,0
DA:150,0
DA:151,0
DA:152,0
DA:153,0
DA:154,0
DA:155,0
DA:156,0
DA:159,0
DA:160,0
DA:161,0
DA:163,0
DA:164,0
DA:165,0
DA:166,0
DA:167,0
DA:168,0
DA:169,0
DA:171,0
DA:172,0
DA:174,0
DA:175,0
DA:176,0
DA:178,0
DA:180,0
DA:181,0
DA:182,0
DA:184,0
DA:185,0
DA:190,0
DA:191,0
DA:192,0
DA:193,0
DA:194,0
DA:196,0
DA:197,0
DA:198,0
DA:201,0
DA:202,0
DA:203,0
DA:207,0
DA:208,0
DA:209,0
DA:210,0
DA:212,0
DA:213,0
DA:214,0
DA:218,0
DA:219,0
DA:220,0
DA:221,0
DA:222,0
DA:223,0
DA:224,0
DA:225,0
DA:226,0
DA:227,0
DA:228,0
DA:229,0
DA:230,0
DA:231,0
DA:232,0
DA:233,0
DA:234,0
DA:235,0
DA:236,0
DA:237,0
DA:238,0
DA:240,0
DA:241,0
DA:242,0
DA:244,0
DA:245,0
DA:250,0
DA:251,0
DA:252,0
DA:253,0
DA:255,0
DA:256,0
DA:261,0
DA:262,0
DA:263,0
BRF:0
BRH:0
LF:202
LH:0
end_of_record
SF:/home/runner/_work/Gestion-inmobiliaria/Gestion-inmobiliaria/backend/src/config.rs
FN:215,_RNCNCNCNvMs1_NtCsjO1mwjW04O1_18realestate_backend6configNtBb_9AppConfig17parse_pool_config0s_00Bd_
FN:225,_RNCNCNCNvMs1_NtCsjO1mwjW04O1_18realestate_backend6configNtBb_9AppConfig17parse_pool_configs_0s_00Bd_
FN:212,_RNCNCNvMs1_NtCsjO1mwjW04O1_18realestate_backend6configNtB9_9AppConfig17parse_pool_config00Bb_
FN:213,_RNCNCNvMs1_NtCsjO1mwjW04O1_18realestate_backend6configNtB9_9AppConfig17parse_pool_config0s_0Bb_
FN:222,_RNCNCNvMs1_NtCsjO1mwjW04O1_18realestate_backend6configNtB9_9AppConfig17parse_pool_configs_00Bb_
FN:223,_RNCNCNvMs1_NtCsjO1mwjW04O1_18realestate_backend6configNtB9_9AppConfig17parse_pool_configs_0s_0Bb_
FN:19,_RNCNvMNtCsjO1mwjW04O1_18realestate_backend6configNtB4_10SmtpConfig8from_env0B6_
FN:23,_RNCNvMNtCsjO1mwjW04O1_18realestate_backend6configNtB4_10SmtpConfig8from_envs0_0B6_
FN:25,_RNCNvMNtCsjO1mwjW04O1_18realestate_backend6configNtB4_10SmtpConfig8from_envs1_0B6_
FN:27,_RNCNvMNtCsjO1mwjW04O1_18realestate_backend6configNtB4_10SmtpConfig8from_envs2_0B6_
FN:28,_RNCNvMNtCsjO1mwjW04O1_18realestate_backend6configNtB4_10SmtpConfig8from_envs3_0B6_
FN:21,_RNCNvMNtCsjO1mwjW04O1_18realestate_backend6configNtB4_10SmtpConfig8from_envs_0B6_
FN:210,_RNCNvMs1_NtCsjO1mwjW04O1_18realestate_backend6configNtB7_9AppConfig17parse_pool_config0B9_
FN:231,_RNCNvMs1_NtCsjO1mwjW04O1_18realestate_backend6configNtB7_9AppConfig17parse_pool_configs0_0B9_
FN:220,_RNCNvMs1_NtCsjO1mwjW04O1_18realestate_backend6configNtB7_9AppConfig17parse_pool_configs_0B9_
FN:146,_RNCNvMs1_NtCsjO1mwjW04O1_18realestate_backend6configNtB7_9AppConfig8from_env0B9_
FN:167,_RNCNvMs1_NtCsjO1mwjW04O1_18realestate_backend6configNtB7_9AppConfig8from_envs0_0B9_
FN:169,_RNCNvMs1_NtCsjO1mwjW04O1_18realestate_backend6configNtB7_9AppConfig8from_envs1_0B9_
FN:171,_RNCNvMs1_NtCsjO1mwjW04O1_18realestate_backend6configNtB7_9AppConfig8from_envs2_0B9_
FN:189,_RNCNvMs1_NtCsjO1mwjW04O1_18realestate_backend6configNtB7_9AppConfig8from_envs3_0B9_
FN:193,_RNCNvMs1_NtCsjO1mwjW04O1_18realestate_backend6configNtB7_9AppConfig8from_envs4_0B9_
FN:149,_RNCNvMs1_NtCsjO1mwjW04O1_18realestate_backend6configNtB7_9AppConfig8from_envs_0B9_
FN:68,_RNCNvMs_NtCsjO1mwjW04O1_18realestate_backend6configNtB6_16ChatbotEnvConfig8from_env0B8_
FN:74,_RNCNvMs_NtCsjO1mwjW04O1_18realestate_backend6configNtB6_16ChatbotEnvConfig8from_envs0_0B8_
FN:76,_RNCNvMs_NtCsjO1mwjW04O1_18realestate_backend6configNtB6_16ChatbotEnvConfig8from_envs1_0B8_
FN:79,_RNCNvMs_NtCsjO1mwjW04O1_18realestate_backend6configNtB6_16ChatbotEnvConfig8from_envs2_0B8_
FN:81,_RNCNvMs_NtCsjO1mwjW04O1_18realestate_backend6configNtB6_16ChatbotEnvConfig8from_envs3_0B8_
FN:71,_RNCNvMs_NtCsjO1mwjW04O1_18realestate_backend6configNtB6_16ChatbotEnvConfig8from_envs_0B8_
FN:17,_RNvMNtCsjO1mwjW04O1_18realestate_backend6configNtB2_10SmtpConfig8from_env
FN:246,_RNvMs1_NtCsjO1mwjW04O1_18realestate_backend6configNtB5_9AppConfig15connect_options
FN:207,_RNvMs1_NtCsjO1mwjW04O1_18realestate_backend6configNtB5_9AppConfig17parse_pool_config
FN:142,_RNvMs1_NtCsjO1mwjW04O1_18realestate_backend6configNtB5_9AppConfig8from_env
FN:94,_RNvMs_NtCsjO1mwjW04O1_18realestate_backend6configNtB4_16ChatbotEnvConfig11for_testing
FN:51,_RNvMs_NtCsjO1mwjW04O1_18realestate_backend6configNtB4_16ChatbotEnvConfig8from_env
FN:117,_RNvXs0_NtCsjO1mwjW04O1_18realestate_backend6configNtB5_10PoolConfigNtNtCsgEmfK2I1SDS_4core7default7Default7default
FN:19,_RNCNvMNtCshWAJ4lei3LP_18realestate_backend6configNtB4_10SmtpConfig8from_env0B6_
FN:23,_RNCNvMNtCshWAJ4lei3LP_18realestate_backend6configNtB4_10SmtpConfig8from_envs0_0B6_
FN:25,_RNCNvMNtCshWAJ4lei3LP_18realestate_backend6configNtB4_10SmtpConfig8from_envs1_0B6_
FN:27,_RNCNvMNtCshWAJ4lei3LP_18realestate_backend6configNtB4_10SmtpConfig8from_envs2_0B6_
FN:28,_RNCNvMNtCshWAJ4lei3LP_18realestate_backend6configNtB4_10SmtpConfig8from_envs3_0B6_
FN:21,_RNCNvMNtCshWAJ4lei3LP_18realestate_backend6configNtB4_10SmtpConfig8from_envs_0B6_
FN:17,_RNvMNtCshWAJ4lei3LP_18realestate_backend6configNtB2_10SmtpConfig8from_env
FN:268,_RNvNtNtCshWAJ4lei3LP_18realestate_backend6config5tests14clear_env_vars
FN:289,_RNvNtNtCshWAJ4lei3LP_18realestate_backend6config5tests20set_chatbot_env_vars
FN:299,_RNvNtNtCshWAJ4lei3LP_18realestate_backend6config5testss_22from_env_with_all_vars
FN:381,_RNvNtNtCshWAJ4lei3LP_18realestate_backend6config5testss_31pool_config_reads_custom_values
FN:340,_RNvNtNtCshWAJ4lei3LP_18realestate_backend6config5testss_32from_env_fails_with_invalid_port
FN:428,_RNvNtNtCshWAJ4lei3LP_18realestate_backend6config5testss_35connect_options_applies_pool_config
FN:322,_RNvNtNtCshWAJ4lei3LP_18realestate_backend6config5testss_35from_env_defaults_port_when_not_set
FN:358,_RNvNtNtCshWAJ4lei3LP_18realestate_backend6config5testss_38pool_config_uses_defaults_when_not_set
FN:452,_RNvNtNtCshWAJ4lei3LP_18realestate_backend6config5testss_39for_testing_matches_production_defaults
FN:410,_RNvNtNtCshWAJ4lei3LP_18realestate_backend6config5testss_46pool_config_fails_with_invalid_max_connections
FN:215,_RNCNCNCNvMs1_NtCshWAJ4lei3LP_18realestate_backend6configNtBb_9AppConfig17parse_pool_config0s_00Bd_
FN:225,_RNCNCNCNvMs1_NtCshWAJ4lei3LP_18realestate_backend6configNtBb_9AppConfig17parse_pool_configs_0s_00Bd_
FN:212,_RNCNCNvMs1_NtCshWAJ4lei3LP_18realestate_backend6configNtB9_9AppConfig17parse_pool_config00Bb_
FN:213,_RNCNCNvMs1_NtCshWAJ4lei3LP_18realestate_backend6configNtB9_9AppConfig17parse_pool_config0s_0Bb_
FN:222,_RNCNCNvMs1_NtCshWAJ4lei3LP_18realestate_backend6configNtB9_9AppConfig17parse_pool_configs_00Bb_
FN:223,_RNCNCNvMs1_NtCshWAJ4lei3LP_18realestate_backend6configNtB9_9AppConfig17parse_pool_configs_0s_0Bb_
FN:210,_RNCNvMs1_NtCshWAJ4lei3LP_18realestate_backend6configNtB7_9AppConfig17parse_pool_config0B9_
FN:231,_RNCNvMs1_NtCshWAJ4lei3LP_18realestate_backend6configNtB7_9AppConfig17parse_pool_configs0_0B9_
FN:220,_RNCNvMs1_NtCshWAJ4lei3LP_18realestate_backend6configNtB7_9AppConfig17parse_pool_configs_0B9_
FN:146,_RNCNvMs1_NtCshWAJ4lei3LP_18realestate_backend6configNtB7_9AppConfig8from_env0B9_
FN:167,_RNCNvMs1_NtCshWAJ4lei3LP_18realestate_backend6configNtB7_9AppConfig8from_envs0_0B9_
FN:169,_RNCNvMs1_NtCshWAJ4lei3LP_18realestate_backend6configNtB7_9AppConfig8from_envs1_0B9_
FN:171,_RNCNvMs1_NtCshWAJ4lei3LP_18realestate_backend6configNtB7_9AppConfig8from_envs2_0B9_
FN:189,_RNCNvMs1_NtCshWAJ4lei3LP_18realestate_backend6configNtB7_9AppConfig8from_envs3_0B9_
FN:193,_RNCNvMs1_NtCshWAJ4lei3LP_18realestate_backend6configNtB7_9AppConfig8from_envs4_0B9_
FN:149,_RNCNvMs1_NtCshWAJ4lei3LP_18realestate_backend6configNtB7_9AppConfig8from_envs_0B9_
FN:68,_RNCNvMs_NtCshWAJ4lei3LP_18realestate_backend6configNtB6_16ChatbotEnvConfig8from_env0B8_
FN:74,_RNCNvMs_NtCshWAJ4lei3LP_18realestate_backend6configNtB6_16ChatbotEnvConfig8from_envs0_0B8_
FN:76,_RNCNvMs_NtCshWAJ4lei3LP_18realestate_backend6configNtB6_16ChatbotEnvConfig8from_envs1_0B8_
FN:79,_RNCNvMs_NtCshWAJ4lei3LP_18realestate_backend6configNtB6_16ChatbotEnvConfig8from_envs2_0B8_
FN:81,_RNCNvMs_NtCshWAJ4lei3LP_18realestate_backend6configNtB6_16ChatbotEnvConfig8from_envs3_0B8_
FN:71,_RNCNvMs_NtCshWAJ4lei3LP_18realestate_backend6configNtB6_16ChatbotEnvConfig8from_envs_0B8_
FN:246,_RNvMs1_NtCshWAJ4lei3LP_18realestate_backend6configNtB5_9AppConfig15connect_options
FN:207,_RNvMs1_NtCshWAJ4lei3LP_18realestate_backend6configNtB5_9AppConfig17parse_pool_config
FN:142,_RNvMs1_NtCshWAJ4lei3LP_18realestate_backend6configNtB5_9AppConfig8from_env
FN:94,_RNvMs_NtCshWAJ4lei3LP_18realestate_backend6configNtB4_16ChatbotEnvConfig11for_testing
FN:51,_RNvMs_NtCshWAJ4lei3LP_18realestate_backend6configNtB4_16ChatbotEnvConfig8from_env
FN:117,_RNvXs0_NtCshWAJ4lei3LP_18realestate_backend6configNtB5_10PoolConfigNtNtCsgEmfK2I1SDS_4core7default7Default7default
FNDA:0,_RNCNCNCNvMs1_NtCsjO1mwjW04O1_18realestate_backend6configNtBb_9AppConfig17parse_pool_config0s_00Bd_
FNDA:0,_RNCNCNCNvMs1_NtCsjO1mwjW04O1_18realestate_backend6configNtBb_9AppConfig17parse_pool_configs_0s_00Bd_
FNDA:0,_RNCNCNvMs1_NtCsjO1mwjW04O1_18realestate_backend6configNtB9_9AppConfig17parse_pool_config00Bb_
FNDA:0,_RNCNCNvMs1_NtCsjO1mwjW04O1_18realestate_backend6configNtB9_9AppConfig17parse_pool_config0s_0Bb_
FNDA:0,_RNCNCNvMs1_NtCsjO1mwjW04O1_18realestate_backend6configNtB9_9AppConfig17parse_pool_configs_00Bb_
FNDA:0,_RNCNCNvMs1_NtCsjO1mwjW04O1_18realestate_backend6configNtB9_9AppConfig17parse_pool_configs_0s_0Bb_
FNDA:0,_RNCNvMNtCsjO1mwjW04O1_18realestate_backend6configNtB4_10SmtpConfig8from_env0B6_
FNDA:0,_RNCNvMNtCsjO1mwjW04O1_18realestate_backend6configNtB4_10SmtpConfig8from_envs0_0B6_
FNDA:0,_RNCNvMNtCsjO1mwjW04O1_18realestate_backend6configNtB4_10SmtpConfig8from_envs1_0B6_
FNDA:0,_RNCNvMNtCsjO1mwjW04O1_18realestate_backend6configNtB4_10SmtpConfig8from_envs2_0B6_
FNDA:0,_RNCNvMNtCsjO1mwjW04O1_18realestate_backend6configNtB4_10SmtpConfig8from_envs3_0B6_
FNDA:0,_RNCNvMNtCsjO1mwjW04O1_18realestate_backend6configNtB4_10SmtpConfig8from_envs_0B6_
FNDA:0,_RNCNvMs1_NtCsjO1mwjW04O1_18realestate_backend6configNtB7_9AppConfig17parse_pool_config0B9_
FNDA:0,_RNCNvMs1_NtCsjO1mwjW04O1_18realestate_backend6configNtB7_9AppConfig17parse_pool_configs0_0B9_
FNDA:0,_RNCNvMs1_NtCsjO1mwjW04O1_18realestate_backend6configNtB7_9AppConfig17parse_pool_configs_0B9_
FNDA:0,_RNCNvMs1_NtCsjO1mwjW04O1_18realestate_backend6configNtB7_9AppConfig8from_env0B9_
FNDA:0,_RNCNvMs1_NtCsjO1mwjW04O1_18realestate_backend6configNtB7_9AppConfig8from_envs0_0B9_
FNDA:0,_RNCNvMs1_NtCsjO1mwjW04O1_18realestate_backend6configNtB7_9AppConfig8from_envs1_0B9_
FNDA:0,_RNCNvMs1_NtCsjO1mwjW04O1_18realestate_backend6configNtB7_9AppConfig8from_envs2_0B9_
FNDA:0,_RNCNvMs1_NtCsjO1mwjW04O1_18realestate_backend6configNtB7_9AppConfig8from_envs3_0B9_
FNDA:0,_RNCNvMs1_NtCsjO1mwjW04O1_18realestate_backend6configNtB7_9AppConfig8from_envs4_0B9_
FNDA:0,_RNCNvMs1_NtCsjO1mwjW04O1_18realestate_backend6configNtB7_9AppConfig8from_envs_0B9_
FNDA:0,_RNCNvMs_NtCsjO1mwjW04O1_18realestate_backend6configNtB6_16ChatbotEnvConfig8from_env0B8_
FNDA:0,_RNCNvMs_NtCsjO1mwjW04O1_18realestate_backend6configNtB6_16ChatbotEnvConfig8from_envs0_0B8_
FNDA:0,_RNCNvMs_NtCsjO1mwjW04O1_18realestate_backend6configNtB6_16ChatbotEnvConfig8from_envs1_0B8_
FNDA:0,_RNCNvMs_NtCsjO1mwjW04O1_18realestate_backend6configNtB6_16ChatbotEnvConfig8from_envs2_0B8_
FNDA:0,_RNCNvMs_NtCsjO1mwjW04O1_18realestate_backend6configNtB6_16ChatbotEnvConfig8from_envs3_0B8_
FNDA:0,_RNCNvMs_NtCsjO1mwjW04O1_18realestate_backend6configNtB6_16ChatbotEnvConfig8from_envs_0B8_
FNDA:0,_RNvMNtCsjO1mwjW04O1_18realestate_backend6configNtB2_10SmtpConfig8from_env
FNDA:0,_RNvMs1_NtCsjO1mwjW04O1_18realestate_backend6configNtB5_9AppConfig15connect_options
FNDA:0,_RNvMs1_NtCsjO1mwjW04O1_18realestate_backend6configNtB5_9AppConfig17parse_pool_config
FNDA:0,_RNvMs1_NtCsjO1mwjW04O1_18realestate_backend6configNtB5_9AppConfig8from_env
FNDA:116,_RNvMs_NtCsjO1mwjW04O1_18realestate_backend6configNtB4_16ChatbotEnvConfig11for_testing
FNDA:0,_RNvMs_NtCsjO1mwjW04O1_18realestate_backend6configNtB4_16ChatbotEnvConfig8from_env
FNDA:116,_RNvXs0_NtCsjO1mwjW04O1_18realestate_backend6configNtB5_10PoolConfigNtNtCsgEmfK2I1SDS_4core7default7Default7default
FNDA:0,_RNCNvMNtCshWAJ4lei3LP_18realestate_backend6configNtB4_10SmtpConfig8from_env0B6_
FNDA:0,_RNCNvMNtCshWAJ4lei3LP_18realestate_backend6configNtB4_10SmtpConfig8from_envs0_0B6_
FNDA:0,_RNCNvMNtCshWAJ4lei3LP_18realestate_backend6configNtB4_10SmtpConfig8from_envs1_0B6_
FNDA:0,_RNCNvMNtCshWAJ4lei3LP_18realestate_backend6configNtB4_10SmtpConfig8from_envs2_0B6_
FNDA:0,_RNCNvMNtCshWAJ4lei3LP_18realestate_backend6configNtB4_10SmtpConfig8from_envs3_0B6_
FNDA:0,_RNCNvMNtCshWAJ4lei3LP_18realestate_backend6configNtB4_10SmtpConfig8from_envs_0B6_
FNDA:0,_RNvMNtCshWAJ4lei3LP_18realestate_backend6configNtB2_10SmtpConfig8from_env
FNDA:12,_RNvNtNtCshWAJ4lei3LP_18realestate_backend6config5tests14clear_env_vars
FNDA:4,_RNvNtNtCshWAJ4lei3LP_18realestate_backend6config5tests20set_chatbot_env_vars
FNDA:1,_RNvNtNtCshWAJ4lei3LP_18realestate_backend6config5testss_22from_env_with_all_vars
FNDA:1,_RNvNtNtCshWAJ4lei3LP_18realestate_backend6config5testss_31pool_config_reads_custom_values
FNDA:1,_RNvNtNtCshWAJ4lei3LP_18realestate_backend6config5testss_32from_env_fails_with_invalid_port
FNDA:1,_RNvNtNtCshWAJ4lei3LP_18realestate_backend6config5testss_35connect_options_applies_pool_config
FNDA:1,_RNvNtNtCshWAJ4lei3LP_18realestate_backend6config5testss_35from_env_defaults_port_when_not_set
FNDA:1,_RNvNtNtCshWAJ4lei3LP_18realestate_backend6config5testss_38pool_config_uses_defaults_when_not_set
FNDA:1,_RNvNtNtCshWAJ4lei3LP_18realestate_backend6config5testss_39for_testing_matches_production_defaults
FNDA:1,_RNvNtNtCshWAJ4lei3LP_18realestate_backend6config5testss_46pool_config_fails_with_invalid_max_connections
FNDA:1,_RNCNCNCNvMs1_NtCshWAJ4lei3LP_18realestate_backend6configNtBb_9AppConfig17parse_pool_config0s_00Bd_
FNDA:0,_RNCNCNCNvMs1_NtCshWAJ4lei3LP_18realestate_backend6configNtBb_9AppConfig17parse_pool_configs_0s_00Bd_
FNDA:6,_RNCNCNvMs1_NtCshWAJ4lei3LP_18realestate_backend6configNtB9_9AppConfig17parse_pool_config00Bb_
FNDA:3,_RNCNCNvMs1_NtCshWAJ4lei3LP_18realestate_backend6configNtB9_9AppConfig17parse_pool_config0s_0Bb_
FNDA:9,_RNCNCNvMs1_NtCshWAJ4lei3LP_18realestate_backend6configNtB9_9AppConfig17parse_pool_configs_00Bb_
FNDA:3,_RNCNCNvMs1_NtCshWAJ4lei3LP_18realestate_backend6configNtB9_9AppConfig17parse_pool_configs_0s_0Bb_
FNDA:9,_RNCNvMs1_NtCshWAJ4lei3LP_18realestate_backend6configNtB7_9AppConfig17parse_pool_config0B9_
FNDA:1,_RNCNvMs1_NtCshWAJ4lei3LP_18realestate_backend6configNtB7_9AppConfig17parse_pool_configs0_0B9_
FNDA:12,_RNCNvMs1_NtCshWAJ4lei3LP_18realestate_backend6configNtB7_9AppConfig17parse_pool_configs_0B9_
FNDA:0,_RNCNvMs1_NtCshWAJ4lei3LP_18realestate_backend6configNtB7_9AppConfig8from_env0B9_
FNDA:0,_RNCNvMs1_NtCshWAJ4lei3LP_18realestate_backend6configNtB7_9AppConfig8from_envs0_0B9_
FNDA:1,_RNCNvMs1_NtCshWAJ4lei3LP_18realestate_backend6configNtB7_9AppConfig8from_envs1_0B9_
FNDA:1,_RNCNvMs1_NtCshWAJ4lei3LP_18realestate_backend6configNtB7_9AppConfig8from_envs2_0B9_
FNDA:0,_RNCNvMs1_NtCshWAJ4lei3LP_18realestate_backend6configNtB7_9AppConfig8from_envs3_0B9_
FNDA:0,_RNCNvMs1_NtCshWAJ4lei3LP_18realestate_backend6configNtB7_9AppConfig8from_envs4_0B9_
FNDA:0,_RNCNvMs1_NtCshWAJ4lei3LP_18realestate_backend6configNtB7_9AppConfig8from_envs_0B9_
FNDA:4,_RNCNvMs_NtCshWAJ4lei3LP_18realestate_backend6configNtB6_16ChatbotEnvConfig8from_env0B8_
FNDA:4,_RNCNvMs_NtCshWAJ4lei3LP_18realestate_backend6configNtB6_16ChatbotEnvConfig8from_envs0_0B8_
FNDA:0,_RNCNvMs_NtCshWAJ4lei3LP_18realestate_backend6configNtB6_16ChatbotEnvConfig8from_envs1_0B8_
FNDA:4,_RNCNvMs_NtCshWAJ4lei3LP_18realestate_backend6configNtB6_16ChatbotEnvConfig8from_envs2_0B8_
FNDA:0,_RNCNvMs_NtCshWAJ4lei3LP_18realestate_backend6configNtB6_16ChatbotEnvConfig8from_envs3_0B8_
FNDA:4,_RNCNvMs_NtCshWAJ4lei3LP_18realestate_backend6configNtB6_16ChatbotEnvConfig8from_envs_0B8_
FNDA:1,_RNvMs1_NtCshWAJ4lei3LP_18realestate_backend6configNtB5_9AppConfig15connect_options
FNDA:5,_RNvMs1_NtCshWAJ4lei3LP_18realestate_backend6configNtB5_9AppConfig17parse_pool_config
FNDA:6,_RNvMs1_NtCshWAJ4lei3LP_18realestate_backend6configNtB5_9AppConfig8from_env
FNDA:4,_RNvMs_NtCshWAJ4lei3LP_18realestate_backend6configNtB4_16ChatbotEnvConfig11for_testing
FNDA:4,_RNvMs_NtCshWAJ4lei3LP_18realestate_backend6configNtB4_16ChatbotEnvConfig8from_env
FNDA:5,_RNvXs0_NtCshWAJ4lei3LP_18realestate_backend6configNtB5_10PoolConfigNtNtCsgEmfK2I1SDS_4core7default7Default7default
FNF:45
FNH:30
DA:17,0
DA:18,0
DA:19,0
DA:20,0
DA:21,0
DA:22,0
DA:23,0
DA:24,0
DA:25,0
DA:26,0
DA:27,0
DA:28,0
DA:30,0
DA:31,0
DA:32,0
DA:33,0
DA:34,0
DA:35,0
DA:36,0
DA:37,0
DA:51,4
DA:52,4
DA:53,4
DA:55,0
DA:56,0
DA:57,0
DA:61,4
DA:62,0
DA:63,0
DA:64,0
DA:65,4
DA:67,4
DA:68,4
DA:70,4
DA:71,4
DA:73,4
DA:74,4
DA:76,4
DA:78,4
DA:79,4
DA:80,4
DA:81,4
DA:83,4
DA:84,4
DA:85,4
DA:86,4
DA:87,4
DA:88,4
DA:89,4
DA:90,4
DA:91,4
DA:94,120
DA:95,120
DA:96,120
DA:97,120
DA:98,120
DA:99,120
DA:100,120
DA:101,120
DA:102,120
DA:103,120
DA:117,121
DA:118,121
DA:119,121
DA:120,121
DA:121,121
DA:122,121
DA:123,121
DA:124,121
DA:125,121
DA:126,121
DA:142,6
DA:143,6
DA:145,6
DA:146,6
DA:148,6
DA:149,6
DA:151,6
DA:152,0
DA:153,0
DA:154,0
DA:155,6
DA:157,6
DA:158,6
DA:159,6
DA:160,6
DA:161,6
DA:163,0
DA:164,6
DA:166,6
DA:167,6
DA:168,6
DA:169,6
DA:171,5
DA:173,5
DA:174,5
DA:175,0
DA:176,0
DA:177,0
DA:178,5
DA:179,5
DA:180,0
DA:181,0
DA:182,0
DA:183,5
DA:185,5
DA:186,4
DA:187,4
DA:188,4
DA:189,4
DA:191,4
DA:192,4
DA:193,4
DA:195,4
DA:196,4
DA:197,4
DA:198,4
DA:199,4
DA:200,4
DA:201,4
DA:202,4
DA:203,4
DA:204,4
DA:205,6
DA:207,5
DA:208,5
DA:210,9
DA:211,9
DA:212,6
DA:213,3
DA:214,3
DA:215,3
DA:216,3
DA:218,9
DA:220,12
DA:221,12
DA:222,9
DA:223,3
DA:224,3
DA:225,3
DA:226,3
DA:228,12
DA:230,5
DA:231,5
DA:234,5
DA:235,4
DA:236,4
DA:237,4
DA:238,4
DA:239,4
DA:240,4
DA:241,4
DA:242,4
DA:244,5
DA:246,1
DA:247,1
DA:248,1
DA:249,1
DA:250,1
DA:251,1
DA:252,1
DA:253,1
DA:254,1
DA:255,1
DA:268,12
DA:269,12
DA:270,12
DA:271,12
DA:272,12
DA:273,12
DA:274,12
DA:275,12
DA:276,12
DA:277,12
DA:278,12
DA:279,12
DA:280,12
DA:281,12
DA:282,12
DA:283,12
DA:284,12
DA:285,12
DA:286,12
DA:289,4
DA:290,4
DA:291,4
DA:292,4
DA:293,4
DA:294,4
DA:295,4
DA:296,4
DA:299,1
DA:300,1
DA:301,1
DA:302,1
DA:303,1
DA:304,1
DA:305,1
DA:306,1
DA:307,1
DA:308,1
DA:309,1
DA:310,1
DA:312,1
DA:313,1
DA:314,1
DA:315,1
DA:316,1
DA:318,1
DA:319,1
DA:322,1
DA:323,1
DA:324,1
DA:325,1
DA:326,1
DA:327,1
DA:328,1
DA:329,1
DA:330,1
DA:331,1
DA:333,1
DA:334,1
DA:336,1
DA:337,1
DA:340,1
DA:341,1
DA:342,1
DA:343,1
DA:344,1
DA:345,1
DA:346,1
DA:347,1
DA:348,1
DA:349,1
DA:351,1
DA:352,1
DA:354,1
DA:355,1
DA:358,1
DA:359,1
DA:360,1
DA:361,1
DA:362,1
DA:363,1
DA:364,1
DA:365,1
DA:366,1
DA:367,1
DA:369,1
DA:370,1
DA:371,1
DA:372,1
DA:373,1
DA:374,1
DA:375,1
DA:377,1
DA:378,1
DA:381,1
DA:382,1
DA:383,1
DA:384,1
DA:385,1
DA:386,1
DA:387,1
DA:388,1
DA:389,1
DA:390,1
DA:391,1
DA:392,1
DA:393,1
DA:394,1
DA:395,1
DA:396,1
DA:398,1
DA:399,1
DA:400,1
DA:401,1
DA:402,1
DA:403,1
DA:404,1
DA:406,1
DA:407,1
DA:410,1
DA:411,1
DA:412,1
DA:413,1
DA:414,1
DA:415,1
DA:416,1
DA:417,1
DA:418,1
DA:419,1
DA:421,1
DA:422,1
DA:424,1
DA:425,1
DA:428,1
DA:429,1
DA:430,1
DA:431,1
DA:432,1
DA:433,1
DA:434,1
DA:435,1
DA:436,1
DA:437,1
DA:438,1
DA:439,1
DA:440,1
DA:441,1
DA:442,1
DA:443,1
DA:444,1
DA:445,1
DA:447,1
DA:448,1
DA:449,1
DA:452,1
DA:453,1
DA:455,1
DA:456,1
DA:457,1
DA:458,1
DA:459,1
DA:462,1
DA:463,1
DA:466,1
BRF:0
BRH:0
LF:351
LH:301
end_of_record
SF:/home/runner/_work/Gestion-inmobiliaria/Gestion-inmobiliaria/backend/src/entities/cache_dgii.rs
FN:36,_RNvXNtNtCsjO1mwjW04O1_18realestate_backend8entities10cache_dgiiNtB2_6EntityINtNtNtCs4QJEBOqt6hN_7sea_orm6entity8relation7RelatedNtNtB4_12organizacion6EntityE2to
FN:36,_RNvXNtNtCshWAJ4lei3LP_18realestate_backend8entities10cache_dgiiNtB2_6EntityINtNtNtCs4QJEBOqt6hN_7sea_orm6entity8relation7RelatedNtNtB4_12organizacion6EntityE2to
FNDA:0,_RNvXNtNtCsjO1mwjW04O1_18realestate_backend8entities10cache_dgiiNtB2_6EntityINtNtNtCs4QJEBOqt6hN_7sea_orm6entity8relation7RelatedNtNtB4_12organizacion6EntityE2to
FNDA:0,_RNvXNtNtCshWAJ4lei3LP_18realestate_backend8entities10cache_dgiiNtB2_6EntityINtNtNtCs4QJEBOqt6hN_7sea_orm6entity8relation7RelatedNtNtB4_12organizacion6EntityE2to
FNF:1
FNH:0
DA:36,0
DA:37,0
DA:38,0
BRF:0
BRH:0
LF:3
LH:0
end_of_record
SF:/home/runner/_work/Gestion-inmobiliaria/Gestion-inmobiliaria/backend/src/entities/chatbot_config.rs
FN:60,_RNvXNtNtCsjO1mwjW04O1_18realestate_backend8entities14chatbot_configNtB2_6EntityINtNtNtCs4QJEBOqt6hN_7sea_orm6entity8relation7RelatedNtNtB4_12organizacion6EntityE2to
FN:66,_RNvXs_NtNtCsjO1mwjW04O1_18realestate_backend8entities14chatbot_configNtB4_6EntityINtNtNtCs4QJEBOqt6hN_7sea_orm6entity8relation7RelatedNtNtB6_7usuario6EntityE2to
FN:60,_RNvXNtNtCshWAJ4lei3LP_18realestate_backend8entities14chatbot_configNtB2_6EntityINtNtNtCs4QJEBOqt6hN_7sea_orm6entity8relation7RelatedNtNtB4_12organizacion6EntityE2to
FN:66,_RNvXs_NtNtCshWAJ4lei3LP_18realestate_backend8entities14chatbot_configNtB4_6EntityINtNtNtCs4QJEBOqt6hN_7sea_orm6entity8relation7RelatedNtNtB6_7usuario6EntityE2to
FNDA:0,_RNvXNtNtCsjO1mwjW04O1_18realestate_backend8entities14chatbot_configNtB2_6EntityINtNtNtCs4QJEBOqt6hN_7sea_orm6entity8relation7RelatedNtNtB4_12organizacion6EntityE2to
FNDA:0,_RNvXs_NtNtCsjO1mwjW04O1_18realestate_backend8entities14chatbot_configNtB4_6EntityINtNtNtCs4QJEBOqt6hN_7sea_orm6entity8relation7RelatedNtNtB6_7usuario6EntityE2to
FNDA:0,_RNvXNtNtCshWAJ4lei3LP_18realestate_backend8entities14chatbot_configNtB2_6EntityINtNtNtCs4QJEBOqt6hN_7sea_orm6entity8relation7RelatedNtNtB4_12organizacion6EntityE2to
FNDA:0,_RNvXs_NtNtCshWAJ4lei3LP_18realestate_backend8entities14chatbot_configNtB4_6EntityINtNtNtCs4QJEBOqt6hN_7sea_orm6entity8relation7RelatedNtNtB6_7usuario6EntityE2to
FNF:2
FNH:0
DA:60,0
DA:61,0
DA:62,0
DA:66,0
DA:67,0
DA:68,0
BRF:0
BRH:0
LF:6
LH:0
end_of_record
SF:/home/runner/_work/Gestion-inmobiliaria/Gestion-inmobiliaria/backend/src/entities/chatbot_conversation.rs
FN:41,_RNvXNtNtCsjO1mwjW04O1_18realestate_backend8entities20chatbot_conversationNtB2_6EntityINtNtNtCs4QJEBOqt6hN_7sea_orm6entity8relation7RelatedNtNtB4_12organizacion6EntityE2to
FN:53,_RNvXs0_NtNtCsjO1mwjW04O1_18realestate_backend8entities20chatbot_conversationNtB5_6EntityINtNtNtCs4QJEBOqt6hN_7sea_orm6entity8relation7RelatedNtNtB7_26chatbot_receipt_extraction6EntityE2to
FN:47,_RNvXs_NtNtCsjO1mwjW04O1_18realestate_backend8entities20chatbot_conversationNtB4_6EntityINtNtNtCs4QJEBOqt6hN_7sea_orm6entity8relation7RelatedNtNtB6_9inquilino6EntityE2to
FN:41,_RNvXNtNtCshWAJ4lei3LP_18realestate_backend8entities20chatbot_conversationNtB2_6EntityINtNtNtCs4QJEBOqt6hN_7sea_orm6entity8relation7RelatedNtNtB4_12organizacion6EntityE2to
FN:53,_RNvXs0_NtNtCshWAJ4lei3LP_18realestate_backend8entities20chatbot_conversationNtB5_6EntityINtNtNtCs4QJEBOqt6hN_7sea_orm6entity8relation7RelatedNtNtB7_26chatbot_receipt_extraction6EntityE2to
FN:47,_RNvXs_NtNtCshWAJ4lei3LP_18realestate_backend8entities20chatbot_conversationNtB4_6EntityINtNtNtCs4QJEBOqt6hN_7sea_orm6entity8relation7RelatedNtNtB6_9inquilino6EntityE2to
FNDA:0,_RNvXNtNtCsjO1mwjW04O1_18realestate_backend8entities20chatbot_conversationNtB2_6EntityINtNtNtCs4QJEBOqt6hN_7sea_orm6entity8relation7RelatedNtNtB4_12organizacion6EntityE2to
FNDA:0,_RNvXs0_NtNtCsjO1mwjW04O1_18realestate_backend8entities20chatbot_conversationNtB5_6EntityINtNtNtCs4QJEBOqt6hN_7sea_orm6entity8relation7RelatedNtNtB7_26chatbot_receipt_extraction6EntityE2to
FNDA:0,_RNvXs_NtNtCsjO1mwjW04O1_18realestate_backend8entities20chatbot_conversationNtB4_6EntityINtNtNtCs4QJEBOqt6hN_7sea_orm6entity8relation7RelatedNtNtB6_9inquilino6EntityE2to
FNDA:0,_RNvXNtNtCshWAJ4lei3LP_18realestate_backend8entities20chatbot_conversationNtB2_6EntityINtNtNtCs4QJEBOqt6hN_7sea_orm6entity8relation7RelatedNtNtB4_12organizacion6EntityE2to
FNDA:0,_RNvXs0_NtNtCshWAJ4lei3LP_18realestate_backend8entities20chatbot_conversationNtB5_6EntityINtNtNtCs4QJEBOqt6hN_7sea_orm6entity8relation7RelatedNtNtB7_26chatbot_receipt_extraction6EntityE2to
FNDA:0,_RNvXs_NtNtCshWAJ4lei3LP_18realestate_backend8entities20chatbot_conversationNtB4_6EntityINtNtNtCs4QJEBOqt6hN_7sea_orm6entity8relation7RelatedNtNtB6_9inquilino6EntityE2to
FNF:3
FNH:0
DA:41,0
DA:42,0
DA:43,0
DA:47,0
DA:48,0
DA:49,0
DA:53,0
DA:54,0
DA:55,0
BRF:0
BRH:0
LF:9
LH:0
end_of_record
SF:/home/runner/_work/Gestion-inmobiliaria/Gestion-inmobiliaria/backend/src/entities/chatbot_receipt_extraction.rs
FN:57,_RNvXNtNtCsjO1mwjW04O1_18realestate_backend8entities26chatbot_receipt_extractionNtB2_6EntityINtNtNtCs4QJEBOqt6hN_7sea_orm6entity8relation7RelatedNtNtB4_12organizacion6EntityE2to
FN:69,_RNvXs0_NtNtCsjO1mwjW04O1_18realestate_backend8entities26chatbot_receipt_extractionNtB5_6EntityINtNtNtCs4QJEBOqt6hN_7sea_orm6entity8relation7RelatedNtNtB7_9inquilino6EntityE2to
FN:75,_RNvXs1_NtNtCsjO1mwjW04O1_18realestate_backend8entities26chatbot_receipt_extractionNtB5_6EntityINtNtNtCs4QJEBOqt6hN_7sea_orm6entity8relation7RelatedNtNtB7_8contrato6EntityE2to
FN:81,_RNvXs2_NtNtCsjO1mwjW04O1_18realestate_backend8entities26chatbot_receipt_extractionNtB5_6EntityINtNtNtCs4QJEBOqt6hN_7sea_orm6entity8relation7RelatedNtNtB7_7usuario6EntityE2to
FN:63,_RNvXs_NtNtCsjO1mwjW04O1_18realestate_backend8entities26chatbot_receipt_extractionNtB4_6EntityINtNtNtCs4QJEBOqt6hN_7sea_orm6entity8relation7RelatedNtNtB6_20chatbot_conversation6EntityE2to
FN:57,_RNvXNtNtCshWAJ4lei3LP_18realestate_backend8entities26chatbot_receipt_extractionNtB2_6EntityINtNtNtCs4QJEBOqt6hN_7sea_orm6entity8relation7RelatedNtNtB4_12organizacion6EntityE2to
FN:69,_RNvXs0_NtNtCshWAJ4lei3LP_18realestate_backend8entities26chatbot_receipt_extractionNtB5_6EntityINtNtNtCs4QJEBOqt6hN_7sea_orm6entity8relation7RelatedNtNtB7_9inquilino6EntityE2to
FN:75,_RNvXs1_NtNtCshWAJ4lei3LP_18realestate_backend8entities26chatbot_receipt_extractionNtB5_6EntityINtNtNtCs4QJEBOqt6hN_7sea_orm6entity8relation7RelatedNtNtB7_8contrato6EntityE2to
FN:81,_RNvXs2_NtNtCshWAJ4lei3LP_18realestate_backend8entities26chatbot_receipt_extractionNtB5_6EntityINtNtNtCs4QJEBOqt6hN_7sea_orm6entity8relation7RelatedNtNtB7_7usuario6EntityE2to
FN:63,_RNvXs_NtNtCshWAJ4lei3LP_18realestate_backend8entities26chatbot_receipt_extractionNtB4_6EntityINtNtNtCs4QJEBOqt6hN_7sea_orm6entity8relation7RelatedNtNtB6_20chatbot_conversation6EntityE2to
FNDA:0,_RNvXNtNtCsjO1mwjW04O1_18realestate_backend8entities26chatbot_receipt_extractionNtB2_6EntityINtNtNtCs4QJEBOqt6hN_7sea_orm6entity8relation7RelatedNtNtB4_12organizacion6EntityE2to
FNDA:0,_RNvXs0_NtNtCsjO1mwjW04O1_18realestate_backend8entities26chatbot_receipt_extractionNtB5_6EntityINtNtNtCs4QJEBOqt6hN_7sea_orm6entity8relation7RelatedNtNtB7_9inquilino6EntityE2to
FNDA:0,_RNvXs1_NtNtCsjO1mwjW04O1_18realestate_backend8entities26chatbot_receipt_extractionNtB5_6EntityINtNtNtCs4QJEBOqt6hN_7sea_orm6entity8relation7RelatedNtNtB7_8contrato6EntityE2to
FNDA:0,_RNvXs2_NtNtCsjO1mwjW04O1_18realestate_backend8entities26chatbot_receipt_extractionNtB5_6EntityINtNtNtCs4QJEBOqt6hN_7sea_orm6entity8relation7RelatedNtNtB7_7usuario6EntityE2to
FNDA:0,_RNvXs_NtNtCsjO1mwjW04O1_18realestate_backend8entities26chatbot_receipt_extractionNtB4_6EntityINtNtNtCs4QJEBOqt6hN_7sea_orm6entity8relation7RelatedNtNtB6_20chatbot_conversation6EntityE2to
FNDA:0,_RNvXNtNtCshWAJ4lei3LP_18realestate_backend8entities26chatbot_receipt_extractionNtB2_6EntityINtNtNtCs4QJEBOqt6hN_7sea_orm6entity8relation7RelatedNtNtB4_12organizacion6EntityE2to
FNDA:0,_RNvXs0_NtNtCshWAJ4lei3LP_18realestate_backend8entities26chatbot_receipt_extractionNtB5_6EntityINtNtNtCs4QJEBOqt6hN_7sea_orm6entity8relation7RelatedNtNtB7_9inquilino6EntityE2to
FNDA:0,_RNvXs1_NtNtCshWAJ4lei3LP_18realestate_backend8entities26chatbot_receipt_extractionNtB5_6EntityINtNtNtCs4QJEBOqt6hN_7sea_orm6entity8relation7RelatedNtNtB7_8contrato6EntityE2to
FNDA:0,_RNvXs2_NtNtCshWAJ4lei3LP_18realestate_backend8entities26chatbot_receipt_extractionNtB5_6EntityINtNtNtCs4QJEBOqt6hN_7sea_orm6entity8relation7RelatedNtNtB7_7usuario6EntityE2to
FNDA:0,_RNvXs_NtNtCshWAJ4lei3LP_18realestate_backend8entities26chatbot_receipt_extractionNtB4_6EntityINtNtNtCs4QJEBOqt6hN_7sea_orm6entity8relation7RelatedNtNtB6_20chatbot_conversation6EntityE2to
FNF:5
FNH:0
DA:57,0
DA:58,0
DA:59,0
DA:63,0
DA:64,0
DA:65,0
DA:69,0
DA:70,0
DA:71,0
DA:75,0
DA:76,0
DA:77,0
DA:81,0
DA:82,0
DA:83,0
BRF:0
BRH:0
LF:15
LH:0
end_of_record
SF:/home/runner/_work/Gestion-inmobiliaria/Gestion-inmobiliaria/backend/src/entities/configuracion_ipi.rs
FN:31,_RNvXNtNtCsjO1mwjW04O1_18realestate_backend8entities17configuracion_ipiNtB2_6EntityINtNtNtCs4QJEBOqt6hN_7sea_orm6entity8relation7RelatedNtNtB4_12organizacion6EntityE2to
FN:31,_RNvXNtNtCshWAJ4lei3LP_18realestate_backend8entities17configuracion_ipiNtB2_6EntityINtNtNtCs4QJEBOqt6hN_7sea_orm6entity8relation7RelatedNtNtB4_12organizacion6EntityE2to
FNDA:0,_RNvXNtNtCsjO1mwjW04O1_18realestate_backend8entities17configuracion_ipiNtB2_6EntityINtNtNtCs4QJEBOqt6hN_7sea_orm6entity8relation7RelatedNtNtB4_12organizacion6EntityE2to
FNDA:0,_RNvXNtNtCshWAJ4lei3LP_18realestate_backend8entities17configuracion_ipiNtB2_6EntityINtNtNtCs4QJEBOqt6hN_7sea_orm6entity8relation7RelatedNtNtB4_12organizacion6EntityE2to
FNF:1
FNH:0
DA:31,0
DA:32,0
DA:33,0
BRF:0
BRH:0
LF:3
LH:0
end_of_record
SF:/home/runner/_work/Gestion-inmobiliaria/Gestion-inmobiliaria/backend/src/entities/contrato.rs
FN:61,_RNvXNtNtCsjO1mwjW04O1_18realestate_backend8entities8contratoNtB2_6EntityINtNtNtCs4QJEBOqt6hN_7sea_orm6entity8relation7RelatedNtNtB4_12organizacion6EntityE2to
FN:73,_RNvXs0_NtNtCsjO1mwjW04O1_18realestate_backend8entities8contratoNtB5_6EntityINtNtNtCs4QJEBOqt6hN_7sea_orm6entity8relation7RelatedNtNtB7_9inquilino6EntityE2to
FN:79,_RNvXs1_NtNtCsjO1mwjW04O1_18realestate_backend8entities8contratoNtB5_6EntityINtNtNtCs4QJEBOqt6hN_7sea_orm6entity8relation7RelatedNtNtB7_4pago6EntityE2to
FN:67,_RNvXs_NtNtCsjO1mwjW04O1_18realestate_backend8entities8contratoNtB4_6EntityINtNtNtCs4QJEBOqt6hN_7sea_orm6entity8relation7RelatedNtNtB6_9propiedad6EntityE2to
FN:61,_RNvXNtNtCshWAJ4lei3LP_18realestate_backend8entities8contratoNtB2_6EntityINtNtNtCs4QJEBOqt6hN_7sea_orm6entity8relation7RelatedNtNtB4_12organizacion6EntityE2to
FN:73,_RNvXs0_NtNtCshWAJ4lei3LP_18realestate_backend8entities8contratoNtB5_6EntityINtNtNtCs4QJEBOqt6hN_7sea_orm6entity8relation7RelatedNtNtB7_9inquilino6EntityE2to
FN:79,_RNvXs1_NtNtCshWAJ4lei3LP_18realestate_backend8entities8contratoNtB5_6EntityINtNtNtCs4QJEBOqt6hN_7sea_orm6entity8relation7RelatedNtNtB7_4pago6EntityE2to
FN:67,_RNvXs_NtNtCshWAJ4lei3LP_18realestate_backend8entities8contratoNtB4_6EntityINtNtNtCs4QJEBOqt6hN_7sea_orm6entity8relation7RelatedNtNtB6_9propiedad6EntityE2to
FNDA:0,_RNvXNtNtCsjO1mwjW04O1_18realestate_backend8entities8contratoNtB2_6EntityINtNtNtCs4QJEBOqt6hN_7sea_orm6entity8relation7RelatedNtNtB4_12organizacion6EntityE2to
FNDA:0,_RNvXs0_NtNtCsjO1mwjW04O1_18realestate_backend8entities8contratoNtB5_6EntityINtNtNtCs4QJEBOqt6hN_7sea_orm6entity8relation7RelatedNtNtB7_9inquilino6EntityE2to
FNDA:0,_RNvXs1_NtNtCsjO1mwjW04O1_18realestate_backend8entities8contratoNtB5_6EntityINtNtNtCs4QJEBOqt6hN_7sea_orm6entity8relation7RelatedNtNtB7_4pago6EntityE2to
FNDA:0,_RNvXs_NtNtCsjO1mwjW04O1_18realestate_backend8entities8contratoNtB4_6EntityINtNtNtCs4QJEBOqt6hN_7sea_orm6entity8relation7RelatedNtNtB6_9propiedad6EntityE2to
FNDA:0,_RNvXNtNtCshWAJ4lei3LP_18realestate_backend8entities8contratoNtB2_6EntityINtNtNtCs4QJEBOqt6hN_7sea_orm6entity8relation7RelatedNtNtB4_12organizacion6EntityE2to
FNDA:0,_RNvXs0_NtNtCshWAJ4lei3LP_18realestate_backend8entities8contratoNtB5_6EntityINtNtNtCs4QJEBOqt6hN_7sea_orm6entity8relation7RelatedNtNtB7_9inquilino6EntityE2to
FNDA:0,_RNvXs1_NtNtCshWAJ4lei3LP_18realestate_backend8entities8contratoNtB5_6EntityINtNtNtCs4QJEBOqt6hN_7sea_orm6entity8relation7RelatedNtNtB7_4pago6EntityE2to
FNDA:0,_RNvXs_NtNtCshWAJ4lei3LP_18realestate_backend8entities8contratoNtB4_6EntityINtNtNtCs4QJEBOqt6hN_7sea_orm6entity8relation7RelatedNtNtB6_9propiedad6EntityE2to
FNF:4
FNH:0
DA:61,0
DA:62,0
DA:63,0
DA:67,0
DA:68,0
DA:69,0
DA:73,0
DA:74,0
DA:75,0
DA:79,0
DA:80,0
DA:81,0
BRF:0
BRH:0
LF:12
LH:0
end_of_record
SF:/home/runner/_work/Gestion-inmobiliaria/Gestion-inmobiliaria/backend/src/entities/copropietario.rs
FN:37,_RNvXNtNtCsjO1mwjW04O1_18realestate_backend8entities13copropietarioNtB2_6EntityINtNtNtCs4QJEBOqt6hN_7sea_orm6entity8relation7RelatedNtNtB4_9propiedad6EntityE2to
FN:43,_RNvXs_NtNtCsjO1mwjW04O1_18realestate_backend8entities13copropietarioNtB4_6EntityINtNtNtCs4QJEBOqt6hN_7sea_orm6entity8relation7RelatedNtNtB6_12organizacion6EntityE2to
FN:37,_RNvXNtNtCshWAJ4lei3LP_18realestate_backend8entities13copropietarioNtB2_6EntityINtNtNtCs4QJEBOqt6hN_7sea_orm6entity8relation7RelatedNtNtB4_9propiedad6EntityE2to
FN:43,_RNvXs_NtNtCshWAJ4lei3LP_18realestate_backend8entities13copropietarioNtB4_6EntityINtNtNtCs4QJEBOqt6hN_7sea_orm6entity8relation7RelatedNtNtB6_12organizacion6EntityE2to
FNDA:0,_RNvXNtNtCsjO1mwjW04O1_18realestate_backend8entities13copropietarioNtB2_6EntityINtNtNtCs4QJEBOqt6hN_7sea_orm6entity8relation7RelatedNtNtB4_9propiedad6EntityE2to
FNDA:0,_RNvXs_NtNtCsjO1mwjW04O1_18realestate_backend8entities13copropietarioNtB4_6EntityINtNtNtCs4QJEBOqt6hN_7sea_orm6entity8relation7RelatedNtNtB6_12organizacion6EntityE2to
FNDA:0,_RNvXNtNtCshWAJ4lei3LP_18realestate_backend8entities13copropietarioNtB2_6EntityINtNtNtCs4QJEBOqt6hN_7sea_orm6entity8relation7RelatedNtNtB4_9propiedad6EntityE2to
FNDA:0,_RNvXs_NtNtCshWAJ4lei3LP_18realestate_backend8entities13copropietarioNtB4_6EntityINtNtNtCs4QJEBOqt6hN_7sea_orm6entity8relation7RelatedNtNtB6_12organizacion6EntityE2to
FNF:2
FNH:0
DA:37,0
DA:38,0
DA:39,0
DA:43,0
DA:44,0
DA:45,0
BRF:0
BRH:0
LF:6
LH:0
end_of_record
SF:/home/runner/_work/Gestion-inmobiliaria/Gestion-inmobiliaria/backend/src/entities/cuota_condominio.rs
FN:47,_RNvXNtNtCsjO1mwjW04O1_18realestate_backend8entities16cuota_condominioNtB2_6EntityINtNtNtCs4QJEBOqt6hN_7sea_orm6entity8relation7RelatedNtNtB4_9propiedad6EntityE2to
FN:59,_RNvXs0_NtNtCsjO1mwjW04O1_18realestate_backend8entities16cuota_condominioNtB5_6EntityINtNtNtCs4QJEBOqt6hN_7sea_orm6entity8relation7RelatedNtNtB7_12organizacion6EntityE2to
FN:53,_RNvXs_NtNtCsjO1mwjW04O1_18realestate_backend8entities16cuota_condominioNtB4_6EntityINtNtNtCs4QJEBOqt6hN_7sea_orm6entity8relation7RelatedNtNtB6_8contrato6EntityE2to
FN:47,_RNvXNtNtCshWAJ4lei3LP_18realestate_backend8entities16cuota_condominioNtB2_6EntityINtNtNtCs4QJEBOqt6hN_7sea_orm6entity8relation7RelatedNtNtB4_9propiedad6EntityE2to
FN:59,_RNvXs0_NtNtCshWAJ4lei3LP_18realestate_backend8entities16cuota_condominioNtB5_6EntityINtNtNtCs4QJEBOqt6hN_7sea_orm6entity8relation7RelatedNtNtB7_12organizacion6EntityE2to
FN:53,_RNvXs_NtNtCshWAJ4lei3LP_18realestate_backend8entities16cuota_condominioNtB4_6EntityINtNtNtCs4QJEBOqt6hN_7sea_orm6entity8relation7RelatedNtNtB6_8contrato6EntityE2to
FNDA:0,_RNvXNtNtCsjO1mwjW04O1_18realestate_backend8entities16cuota_condominioNtB2_6EntityINtNtNtCs4QJEBOqt6hN_7sea_orm6entity8relation7RelatedNtNtB4_9propiedad6EntityE2to
FNDA:0,_RNvXs0_NtNtCsjO1mwjW04O1_18realestate_backend8entities16cuota_condominioNtB5_6EntityINtNtNtCs4QJEBOqt6hN_7sea_orm6entity8relation7RelatedNtNtB7_12organizacion6EntityE2to
FNDA:0,_RNvXs_NtNtCsjO1mwjW04O1_18realestate_backend8entities16cuota_condominioNtB4_6EntityINtNtNtCs4QJEBOqt6hN_7sea_orm6entity8relation7RelatedNtNtB6_8contrato6EntityE2to
FNDA:0,_RNvXNtNtCshWAJ4lei3LP_18realestate_backend8entities16cuota_condominioNtB2_6EntityINtNtNtCs4QJEBOqt6hN_7sea_orm6entity8relation7RelatedNtNtB4_9propiedad6EntityE2to
FNDA:0,_RNvXs0_NtNtCshWAJ4lei3LP_18realestate_backend8entities16cuota_condominioNtB5_6EntityINtNtNtCs4QJEBOqt6hN_7sea_orm6entity8relation7RelatedNtNtB7_12organizacion6EntityE2to
FNDA:0,_RNvXs_NtNtCshWAJ4lei3LP_18realestate_backend8entities16cuota_condominioNtB4_6EntityINtNtNtCs4QJEBOqt6hN_7sea_orm6entity8relation7RelatedNtNtB6_8contrato6EntityE2to
FNF:3
FNH:0
DA:47,0
DA:48,0
DA:49,0
DA:53,0
DA:54,0
DA:55,0
DA:59,0
DA:60,0
DA:61,0
BRF:0
BRH:0
LF:9
LH:0
end_of_record
SF:/home/runner/_work/Gestion-inmobiliaria/Gestion-inmobiliaria/backend/src/entities/desahucio.rs
FN:38,_RNvXNtNtCsjO1mwjW04O1_18realestate_backend8entities9desahucioNtB2_6EntityINtNtNtCs4QJEBOqt6hN_7sea_orm6entity8relation7RelatedNtNtB4_8contrato6EntityE2to
FN:44,_RNvXs_NtNtCsjO1mwjW04O1_18realestate_backend8entities9desahucioNtB4_6EntityINtNtNtCs4QJEBOqt6hN_7sea_orm6entity8relation7RelatedNtNtB6_12organizacion6EntityE2to
FN:38,_RNvXNtNtCshWAJ4lei3LP_18realestate_backend8entities9desahucioNtB2_6EntityINtNtNtCs4QJEBOqt6hN_7sea_orm6entity8relation7RelatedNtNtB4_8contrato6EntityE2to
FN:44,_RNvXs_NtNtCshWAJ4lei3LP_18realestate_backend8entities9desahucioNtB4_6EntityINtNtNtCs4QJEBOqt6hN_7sea_orm6entity8relation7RelatedNtNtB6_12organizacion6EntityE2to
FNDA:0,_RNvXNtNtCsjO1mwjW04O1_18realestate_backend8entities9desahucioNtB2_6EntityINtNtNtCs4QJEBOqt6hN_7sea_orm6entity8relation7RelatedNtNtB4_8contrato6EntityE2to
FNDA:0,_RNvXs_NtNtCsjO1mwjW04O1_18realestate_backend8entities9desahucioNtB4_6EntityINtNtNtCs4QJEBOqt6hN_7sea_orm6entity8relation7RelatedNtNtB6_12organizacion6EntityE2to
FNDA:0,_RNvXNtNtCshWAJ4lei3LP_18realestate_backend8entities9desahucioNtB2_6EntityINtNtNtCs4QJEBOqt6hN_7sea_orm6entity8relation7RelatedNtNtB4_8contrato6EntityE2to
FNDA:0,_RNvXs_NtNtCshWAJ4lei3LP_18realestate_backend8entities9desahucioNtB4_6EntityINtNtNtCs4QJEBOqt6hN_7sea_orm6entity8relation7RelatedNtNtB6_12organizacion6EntityE2to
FNF:2
FNH:0
DA:38,0
DA:39,0
DA:40,0
DA:44,0
DA:45,0
DA:46,0
BRF:0
BRH:0
LF:6
LH:0
end_of_record
SF:/home/runner/_work/Gestion-inmobiliaria/Gestion-inmobiliaria/backend/src/entities/documento.rs
FN:40,_RNvXNtNtCsjO1mwjW04O1_18realestate_backend8entities9documentoNtB2_6EntityINtNtNtCs4QJEBOqt6hN_7sea_orm6entity8relation7RelatedNtNtB4_15firma_documento6EntityE2to
FN:40,_RNvXNtNtCshWAJ4lei3LP_18realestate_backend8entities9documentoNtB2_6EntityINtNtNtCs4QJEBOqt6hN_7sea_orm6entity8relation7RelatedNtNtB4_15firma_documento6EntityE2to
FNDA:0,_RNvXNtNtCsjO1mwjW04O1_18realestate_backend8entities9documentoNtB2_6EntityINtNtNtCs4QJEBOqt6hN_7sea_orm6entity8relation7RelatedNtNtB4_15firma_documento6EntityE2to
FNDA:0,_RNvXNtNtCshWAJ4lei3LP_18realestate_backend8entities9documentoNtB2_6EntityINtNtNtCs4QJEBOqt6hN_7sea_orm6entity8relation7RelatedNtNtB4_15firma_documento6EntityE2to
FNF:1
FNH:0
DA:40,0
DA:41,0
DA:42,0
BRF:0
BRH:0
LF:3
LH:0
end_of_record
SF:/home/runner/_work/Gestion-inmobiliaria/Gestion-inmobiliaria/backend/src/entities/firma_documento.rs
FN:37,_RNvXNtNtCsjO1mwjW04O1_18realestate_backend8entities15firma_documentoNtB2_6EntityINtNtNtCs4QJEBOqt6hN_7sea_orm6entity8relation7RelatedNtNtB4_9documento6EntityE2to
FN:37,_RNvXNtNtCshWAJ4lei3LP_18realestate_backend8entities15firma_documentoNtB2_6EntityINtNtNtCs4QJEBOqt6hN_7sea_orm6entity8relation7RelatedNtNtB4_9documento6EntityE2to
FNDA:0,_RNvXNtNtCsjO1mwjW04O1_18realestate_backend8entities15firma_documentoNtB2_6EntityINtNtNtCs4QJEBOqt6hN_7sea_orm6entity8relation7RelatedNtNtB4_9documento6EntityE2to
FNDA:0,_RNvXNtNtCshWAJ4lei3LP_18realestate_backend8entities15firma_documentoNtB2_6EntityINtNtNtCs4QJEBOqt6hN_7sea_orm6entity8relation7RelatedNtNtB4_9documento6EntityE2to
FNF:1
FNH:0
DA:37,0
DA:38,0
DA:39,0
BRF:0
BRH:0
LF:3
LH:0
end_of_record
SF:/home/runner/_work/Gestion-inmobiliaria/Gestion-inmobiliaria/backend/src/entities/gasto.rs
FN:61,_RNvXNtNtCsjO1mwjW04O1_18realestate_backend8entities5gastoNtB2_6EntityINtNtNtCs4QJEBOqt6hN_7sea_orm6entity8relation7RelatedNtNtB4_12organizacion6EntityE2to
FN:73,_RNvXs0_NtNtCsjO1mwjW04O1_18realestate_backend8entities5gastoNtB5_6EntityINtNtNtCs4QJEBOqt6hN_7sea_orm6entity8relation7RelatedNtNtB7_6unidad6EntityE2to
FN:67,_RNvXs_NtNtCsjO1mwjW04O1_18realestate_backend8entities5gastoNtB4_6EntityINtNtNtCs4QJEBOqt6hN_7sea_orm6entity8relation7RelatedNtNtB6_9propiedad6EntityE2to
FN:73,_RNvXs0_NtNtCshWAJ4lei3LP_18realestate_backend8entities5gastoNtB5_6EntityINtNtNtCs4QJEBOqt6hN_7sea_orm6entity8relation7RelatedNtNtB7_6unidad6EntityE2to
FN:61,_RNvXNtNtCshWAJ4lei3LP_18realestate_backend8entities5gastoNtB2_6EntityINtNtNtCs4QJEBOqt6hN_7sea_orm6entity8relation7RelatedNtNtB4_12organizacion6EntityE2to
FN:67,_RNvXs_NtNtCshWAJ4lei3LP_18realestate_backend8entities5gastoNtB4_6EntityINtNtNtCs4QJEBOqt6hN_7sea_orm6entity8relation7RelatedNtNtB6_9propiedad6EntityE2to
FNDA:0,_RNvXNtNtCsjO1mwjW04O1_18realestate_backend8entities5gastoNtB2_6EntityINtNtNtCs4QJEBOqt6hN_7sea_orm6entity8relation7RelatedNtNtB4_12organizacion6EntityE2to
FNDA:0,_RNvXs0_NtNtCsjO1mwjW04O1_18realestate_backend8entities5gastoNtB5_6EntityINtNtNtCs4QJEBOqt6hN_7sea_orm6entity8relation7RelatedNtNtB7_6unidad6EntityE2to
FNDA:0,_RNvXs_NtNtCsjO1mwjW04O1_18realestate_backend8entities5gastoNtB4_6EntityINtNtNtCs4QJEBOqt6hN_7sea_orm6entity8relation7RelatedNtNtB6_9propiedad6EntityE2to
FNDA:0,_RNvXs0_NtNtCshWAJ4lei3LP_18realestate_backend8entities5gastoNtB5_6EntityINtNtNtCs4QJEBOqt6hN_7sea_orm6entity8relation7RelatedNtNtB7_6unidad6EntityE2to
FNDA:0,_RNvXNtNtCshWAJ4lei3LP_18realestate_backend8entities5gastoNtB2_6EntityINtNtNtCs4QJEBOqt6hN_7sea_orm6entity8relation7RelatedNtNtB4_12organizacion6EntityE2to
FNDA:0,_RNvXs_NtNtCshWAJ4lei3LP_18realestate_backend8entities5gastoNtB4_6EntityINtNtNtCs4QJEBOqt6hN_7sea_orm6entity8relation7RelatedNtNtB6_9propiedad6EntityE2to
FNF:3
FNH:0
DA:61,0
DA:62,0
DA:63,0
DA:67,0
DA:68,0
DA:69,0
DA:73,0
DA:74,0
DA:75,0
BRF:0
BRH:0
LF:9
LH:0
end_of_record
SF:/home/runner/_work/Gestion-inmobiliaria/Gestion-inmobiliaria/backend/src/entities/gasto_recurrente.rs
FN:50,_RNvXNtNtCsjO1mwjW04O1_18realestate_backend8entities16gasto_recurrenteNtB2_6EntityINtNtNtCs4QJEBOqt6hN_7sea_orm6entity8relation7RelatedNtNtB4_12organizacion6EntityE2to
FN:62,_RNvXs0_NtNtCsjO1mwjW04O1_18realestate_backend8entities16gasto_recurrenteNtB5_6EntityINtNtNtCs4QJEBOqt6hN_7sea_orm6entity8relation7RelatedNtNtB7_6unidad6EntityE2to
FN:56,_RNvXs_NtNtCsjO1mwjW04O1_18realestate_backend8entities16gasto_recurrenteNtB4_6EntityINtNtNtCs4QJEBOqt6hN_7sea_orm6entity8relation7RelatedNtNtB6_9propiedad6EntityE2to
FN:50,_RNvXNtNtCshWAJ4lei3LP_18realestate_backend8entities16gasto_recurrenteNtB2_6EntityINtNtNtCs4QJEBOqt6hN_7sea_orm6entity8relation7RelatedNtNtB4_12organizacion6EntityE2to
FN:62,_RNvXs0_NtNtCshWAJ4lei3LP_18realestate_backend8entities16gasto_recurrenteNtB5_6EntityINtNtNtCs4QJEBOqt6hN_7sea_orm6entity8relation7RelatedNtNtB7_6unidad6EntityE2to
FN:56,_RNvXs_NtNtCshWAJ4lei3LP_18realestate_backend8entities16gasto_recurrenteNtB4_6EntityINtNtNtCs4QJEBOqt6hN_7sea_orm6entity8relation7RelatedNtNtB6_9propiedad6EntityE2to
FNDA:0,_RNvXNtNtCsjO1mwjW04O1_18realestate_backend8entities16gasto_recurrenteNtB2_6EntityINtNtNtCs4QJEBOqt6hN_7sea_orm6entity8relation7RelatedNtNtB4_12organizacion6EntityE2to
FNDA:0,_RNvXs0_NtNtCsjO1mwjW04O1_18realestate_backend8entities16gasto_recurrenteNtB5_6EntityINtNtNtCs4QJEBOqt6hN_7sea_orm6entity8relation7RelatedNtNtB7_6unidad6EntityE2to
FNDA:0,_RNvXs_NtNtCsjO1mwjW04O1_18realestate_backend8entities16gasto_recurrenteNtB4_6EntityINtNtNtCs4QJEBOqt6hN_7sea_orm6entity8relation7RelatedNtNtB6_9propiedad6EntityE2to
FNDA:0,_RNvXNtNtCshWAJ4lei3LP_18realestate_backend8entities16gasto_recurrenteNtB2_6EntityINtNtNtCs4QJEBOqt6hN_7sea_orm6entity8relation7RelatedNtNtB4_12organizacion6EntityE2to
FNDA:0,_RNvXs0_NtNtCshWAJ4lei3LP_18realestate_backend8entities16gasto_recurrenteNtB5_6EntityINtNtNtCs4QJEBOqt6hN_7sea_orm6entity8relation7RelatedNtNtB7_6unidad6EntityE2to
FNDA:0,_RNvXs_NtNtCshWAJ4lei3LP_18realestate_backend8entities16gasto_recurrenteNtB4_6EntityINtNtNtCs4QJEBOqt6hN_7sea_orm6entity8relation7RelatedNtNtB6_9propiedad6EntityE2to
FNF:3
FNH:0
DA:50,0
DA:51,0
DA:52,0
DA:56,0
DA:57,0
DA:58,0
DA:62,0
DA:63,0
DA:64,0
BRF:0
BRH:0
LF:9
LH:0
end_of_record
SF:/home/runner/_work/Gestion-inmobiliaria/Gestion-inmobiliaria/backend/src/entities/inquilino.rs
FN:39,_RNvXNtNtCsjO1mwjW04O1_18realestate_backend8entities9inquilinoNtB2_6EntityINtNtNtCs4QJEBOqt6hN_7sea_orm6entity8relation7RelatedNtNtB4_12organizacion6EntityE2to
FN:45,_RNvXs_NtNtCsjO1mwjW04O1_18realestate_backend8entities9inquilinoNtB4_6EntityINtNtNtCs4QJEBOqt6hN_7sea_orm6entity8relation7RelatedNtNtB6_8contrato6EntityE2to
FN:39,_RNvXNtNtCshWAJ4lei3LP_18realestate_backend8entities9inquilinoNtB2_6EntityINtNtNtCs4QJEBOqt6hN_7sea_orm6entity8relation7RelatedNtNtB4_12organizacion6EntityE2to
FN:45,_RNvXs_NtNtCshWAJ4lei3LP_18realestate_backend8entities9inquilinoNtB4_6EntityINtNtNtCs4QJEBOqt6hN_7sea_orm6entity8relation7RelatedNtNtB6_8contrato6EntityE2to
FNDA:0,_RNvXNtNtCsjO1mwjW04O1_18realestate_backend8entities9inquilinoNtB2_6EntityINtNtNtCs4QJEBOqt6hN_7sea_orm6entity8relation7RelatedNtNtB4_12organizacion6EntityE2to
FNDA:0,_RNvXs_NtNtCsjO1mwjW04O1_18realestate_backend8entities9inquilinoNtB4_6EntityINtNtNtCs4QJEBOqt6hN_7sea_orm6entity8relation7RelatedNtNtB6_8contrato6EntityE2to
FNDA:0,_RNvXNtNtCshWAJ4lei3LP_18realestate_backend8entities9inquilinoNtB2_6EntityINtNtNtCs4QJEBOqt6hN_7sea_orm6entity8relation7RelatedNtNtB4_12organizacion6EntityE2to
FNDA:0,_RNvXs_NtNtCshWAJ4lei3LP_18realestate_backend8entities9inquilinoNtB4_6EntityINtNtNtCs4QJEBOqt6hN_7sea_orm6entity8relation7RelatedNtNtB6_8contrato6EntityE2to
FNF:2
FNH:0
DA:39,0
DA:40,0
DA:41,0
DA:45,0
DA:46,0
DA:47,0
BRF:0
BRH:0
LF:6
LH:0
end_of_record
SF:/home/runner/_work/Gestion-inmobiliaria/Gestion-inmobiliaria/backend/src/entities/invitacion.rs
FN:30,_RNvXNtNtCsjO1mwjW04O1_18realestate_backend8entities10invitacionNtB2_6EntityINtNtNtCs4QJEBOqt6hN_7sea_orm6entity8relation7RelatedNtNtB4_12organizacion6EntityE2to
FN:30,_RNvXNtNtCshWAJ4lei3LP_18realestate_backend8entities10invitacionNtB2_6EntityINtNtNtCs4QJEBOqt6hN_7sea_orm6entity8relation7RelatedNtNtB4_12organizacion6EntityE2to
FNDA:0,_RNvXNtNtCsjO1mwjW04O1_18realestate_backend8entities10invitacionNtB2_6EntityINtNtNtCs4QJEBOqt6hN_7sea_orm6entity8relation7RelatedNtNtB4_12organizacion6EntityE2to
FNDA:0,_RNvXNtNtCshWAJ4lei3LP_18realestate_backend8entities10invitacionNtB2_6EntityINtNtNtCs4QJEBOqt6hN_7sea_orm6entity8relation7RelatedNtNtB4_12organizacion6EntityE2to
FNF:1
FNH:0
DA:30,0
DA:31,0
DA:32,0
BRF:0
BRH:0
LF:3
LH:0
end_of_record
SF:/home/runner/_work/Gestion-inmobiliaria/Gestion-inmobiliaria/backend/src/entities/mantenimiento_programado.rs
FN:53,_RNvXNtNtCsjO1mwjW04O1_18realestate_backend8entities24mantenimiento_programadoNtB2_6EntityINtNtNtCs4QJEBOqt6hN_7sea_orm6entity8relation7RelatedNtNtB4_12organizacion6EntityE2to
FN:65,_RNvXs0_NtNtCsjO1mwjW04O1_18realestate_backend8entities24mantenimiento_programadoNtB5_6EntityINtNtNtCs4QJEBOqt6hN_7sea_orm6entity8relation7RelatedNtNtB7_6unidad6EntityE2to
FN:59,_RNvXs_NtNtCsjO1mwjW04O1_18realestate_backend8entities24mantenimiento_programadoNtB4_6EntityINtNtNtCs4QJEBOqt6hN_7sea_orm6entity8relation7RelatedNtNtB6_9propiedad6EntityE2to
FN:53,_RNvXNtNtCshWAJ4lei3LP_18realestate_backend8entities24mantenimiento_programadoNtB2_6EntityINtNtNtCs4QJEBOqt6hN_7sea_orm6entity8relation7RelatedNtNtB4_12organizacion6EntityE2to
FN:65,_RNvXs0_NtNtCshWAJ4lei3LP_18realestate_backend8entities24mantenimiento_programadoNtB5_6EntityINtNtNtCs4QJEBOqt6hN_7sea_orm6entity8relation7RelatedNtNtB7_6unidad6EntityE2to
FN:59,_RNvXs_NtNtCshWAJ4lei3LP_18realestate_backend8entities24mantenimiento_programadoNtB4_6EntityINtNtNtCs4QJEBOqt6hN_7sea_orm6entity8relation7RelatedNtNtB6_9propiedad6EntityE2to
FNDA:0,_RNvXNtNtCsjO1mwjW04O1_18realestate_backend8entities24mantenimiento_programadoNtB2_6EntityINtNtNtCs4QJEBOqt6hN_7sea_orm6entity8relation7RelatedNtNtB4_12organizacion6EntityE2to
FNDA:0,_RNvXs0_NtNtCsjO1mwjW04O1_18realestate_backend8entities24mantenimiento_programadoNtB5_6EntityINtNtNtCs4QJEBOqt6hN_7sea_orm6entity8relation7RelatedNtNtB7_6unidad6EntityE2to
FNDA:0,_RNvXs_NtNtCsjO1mwjW04O1_18realestate_backend8entities24mantenimiento_programadoNtB4_6EntityINtNtNtCs4QJEBOqt6hN_7sea_orm6entity8relation7RelatedNtNtB6_9propiedad6EntityE2to
FNDA:0,_RNvXNtNtCshWAJ4lei3LP_18realestate_backend8entities24mantenimiento_programadoNtB2_6EntityINtNtNtCs4QJEBOqt6hN_7sea_orm6entity8relation7RelatedNtNtB4_12organizacion6EntityE2to
FNDA:0,_RNvXs0_NtNtCshWAJ4lei3LP_18realestate_backend8entities24mantenimiento_programadoNtB5_6EntityINtNtNtCs4QJEBOqt6hN_7sea_orm6entity8relation7RelatedNtNtB7_6unidad6EntityE2to
FNDA:0,_RNvXs_NtNtCshWAJ4lei3LP_18realestate_backend8entities24mantenimiento_programadoNtB4_6EntityINtNtNtCs4QJEBOqt6hN_7sea_orm6entity8relation7RelatedNtNtB6_9propiedad6EntityE2to
FNF:3
FNH:0
DA:53,0
DA:54,0
DA:55,0
DA:59,0
DA:60,0
DA:61,0
DA:65,0
DA:66,0
DA:67,0
BRF:0
BRH:0
LF:9
LH:0
end_of_record
SF:/home/runner/_work/Gestion-inmobiliaria/Gestion-inmobiliaria/backend/src/entities/nota_mantenimiento.rs
FN:33,_RNvXNtNtCsjO1mwjW04O1_18realestate_backend8entities18nota_mantenimientoNtB2_6EntityINtNtNtCs4QJEBOqt6hN_7sea_orm6entity8relation7RelatedNtNtB4_23solicitud_mantenimiento6EntityE2to
FN:39,_RNvXs_NtNtCsjO1mwjW04O1_18realestate_backend8entities18nota_mantenimientoNtB4_6EntityINtNtNtCs4QJEBOqt6hN_7sea_orm6entity8relation7RelatedNtNtB6_7usuario6EntityE2to
FN:33,_RNvXNtNtCshWAJ4lei3LP_18realestate_backend8entities18nota_mantenimientoNtB2_6EntityINtNtNtCs4QJEBOqt6hN_7sea_orm6entity8relation7RelatedNtNtB4_23solicitud_mantenimiento6EntityE2to
FN:39,_RNvXs_NtNtCshWAJ4lei3LP_18realestate_backend8entities18nota_mantenimientoNtB4_6EntityINtNtNtCs4QJEBOqt6hN_7sea_orm6entity8relation7RelatedNtNtB6_7usuario6EntityE2to
FNDA:0,_RNvXNtNtCsjO1mwjW04O1_18realestate_backend8entities18nota_mantenimientoNtB2_6EntityINtNtNtCs4QJEBOqt6hN_7sea_orm6entity8relation7RelatedNtNtB4_23solicitud_mantenimiento6EntityE2to
FNDA:0,_RNvXs_NtNtCsjO1mwjW04O1_18realestate_backend8entities18nota_mantenimientoNtB4_6EntityINtNtNtCs4QJEBOqt6hN_7sea_orm6entity8relation7RelatedNtNtB6_7usuario6EntityE2to
FNDA:0,_RNvXNtNtCshWAJ4lei3LP_18realestate_backend8entities18nota_mantenimientoNtB2_6EntityINtNtNtCs4QJEBOqt6hN_7sea_orm6entity8relation7RelatedNtNtB4_23solicitud_mantenimiento6EntityE2to
FNDA:0,_RNvXs_NtNtCshWAJ4lei3LP_18realestate_backend8entities18nota_mantenimientoNtB4_6EntityINtNtNtCs4QJEBOqt6hN_7sea_orm6entity8relation7RelatedNtNtB6_7usuario6EntityE2to
FNF:2
FNH:0
DA:33,0
DA:34,0
DA:35,0
DA:39,0
DA:40,0
DA:41,0
BRF:0
BRH:0
LF:6
LH:0
end_of_record
SF:/home/runner/_work/Gestion-inmobiliaria/Gestion-inmobiliaria/backend/src/entities/notificacion.rs
FN:39,_RNvXNtNtCsjO1mwjW04O1_18realestate_backend8entities12notificacionNtB2_6EntityINtNtNtCs4QJEBOqt6hN_7sea_orm6entity8relation7RelatedNtNtB4_7usuario6EntityE2to
FN:45,_RNvXs_NtNtCsjO1mwjW04O1_18realestate_backend8entities12notificacionNtB4_6EntityINtNtNtCs4QJEBOqt6hN_7sea_orm6entity8relation7RelatedNtNtB6_12organizacion6EntityE2to
FN:39,_RNvXNtNtCshWAJ4lei3LP_18realestate_backend8entities12notificacionNtB2_6EntityINtNtNtCs4QJEBOqt6hN_7sea_orm6entity8relation7RelatedNtNtB4_7usuario6EntityE2to
FN:45,_RNvXs_NtNtCshWAJ4lei3LP_18realestate_backend8entities12notificacionNtB4_6EntityINtNtNtCs4QJEBOqt6hN_7sea_orm6entity8relation7RelatedNtNtB6_12organizacion6EntityE2to
FNDA:0,_RNvXNtNtCsjO1mwjW04O1_18realestate_backend8entities12notificacionNtB2_6EntityINtNtNtCs4QJEBOqt6hN_7sea_orm6entity8relation7RelatedNtNtB4_7usuario6EntityE2to
FNDA:0,_RNvXs_NtNtCsjO1mwjW04O1_18realestate_backend8entities12notificacionNtB4_6EntityINtNtNtCs4QJEBOqt6hN_7sea_orm6entity8relation7RelatedNtNtB6_12organizacion6EntityE2to
FNDA:0,_RNvXNtNtCshWAJ4lei3LP_18realestate_backend8entities12notificacionNtB2_6EntityINtNtNtCs4QJEBOqt6hN_7sea_orm6entity8relation7RelatedNtNtB4_7usuario6EntityE2to
FNDA:0,_RNvXs_NtNtCshWAJ4lei3LP_18realestate_backend8entities12notificacionNtB4_6EntityINtNtNtCs4QJEBOqt6hN_7sea_orm6entity8relation7RelatedNtNtB6_12organizacion6EntityE2to
FNF:2
FNH:0
DA:39,0
DA:40,0
DA:41,0
DA:45,0
DA:46,0
DA:47,0
BRF:0
BRH:0
LF:6
LH:0
end_of_record
SF:/home/runner/_work/Gestion-inmobiliaria/Gestion-inmobiliaria/backend/src/entities/organizacion.rs
FN:45,_RNvXNtNtCsjO1mwjW04O1_18realestate_backend8entities12organizacionNtB2_6EntityINtNtNtCs4QJEBOqt6hN_7sea_orm6entity8relation7RelatedNtNtB4_10invitacion6EntityE2to
FN:57,_RNvXs0_NtNtCsjO1mwjW04O1_18realestate_backend8entities12organizacionNtB5_6EntityINtNtNtCs4QJEBOqt6hN_7sea_orm6entity8relation7RelatedNtNtB7_7usuario6EntityE2to
FN:51,_RNvXs_NtNtCsjO1mwjW04O1_18realestate_backend8entities12organizacionNtB4_6EntityINtNtNtCs4QJEBOqt6hN_7sea_orm6entity8relation7RelatedNtNtB6_9propiedad6EntityE2to
FN:45,_RNvXNtNtCshWAJ4lei3LP_18realestate_backend8entities12organizacionNtB2_6EntityINtNtNtCs4QJEBOqt6hN_7sea_orm6entity8relation7RelatedNtNtB4_10invitacion6EntityE2to
FN:57,_RNvXs0_NtNtCshWAJ4lei3LP_18realestate_backend8entities12organizacionNtB5_6EntityINtNtNtCs4QJEBOqt6hN_7sea_orm6entity8relation7RelatedNtNtB7_7usuario6EntityE2to
FN:51,_RNvXs_NtNtCshWAJ4lei3LP_18realestate_backend8entities12organizacionNtB4_6EntityINtNtNtCs4QJEBOqt6hN_7sea_orm6entity8relation7RelatedNtNtB6_9propiedad6EntityE2to
FNDA:0,_RNvXNtNtCsjO1mwjW04O1_18realestate_backend8entities12organizacionNtB2_6EntityINtNtNtCs4QJEBOqt6hN_7sea_orm6entity8relation7RelatedNtNtB4_10invitacion6EntityE2to
FNDA:0,_RNvXs0_NtNtCsjO1mwjW04O1_18realestate_backend8entities12organizacionNtB5_6EntityINtNtNtCs4QJEBOqt6hN_7sea_orm6entity8relation7RelatedNtNtB7_7usuario6EntityE2to
FNDA:0,_RNvXs_NtNtCsjO1mwjW04O1_18realestate_backend8entities12organizacionNtB4_6EntityINtNtNtCs4QJEBOqt6hN_7sea_orm6entity8relation7RelatedNtNtB6_9propiedad6EntityE2to
FNDA:0,_RNvXNtNtCshWAJ4lei3LP_18realestate_backend8entities12organizacionNtB2_6EntityINtNtNtCs4QJEBOqt6hN_7sea_orm6entity8relation7RelatedNtNtB4_10invitacion6EntityE2to
FNDA:0,_RNvXs0_NtNtCshWAJ4lei3LP_18realestate_backend8entities12organizacionNtB5_6EntityINtNtNtCs4QJEBOqt6hN_7sea_orm6entity8relation7RelatedNtNtB7_7usuario6EntityE2to
FNDA:0,_RNvXs_NtNtCshWAJ4lei3LP_18realestate_backend8entities12organizacionNtB4_6EntityINtNtNtCs4QJEBOqt6hN_7sea_orm6entity8relation7RelatedNtNtB6_9propiedad6EntityE2to
FNF:3
FNH:0
DA:45,0
DA:46,0
DA:47,0
DA:51,0
DA:52,0
DA:53,0
DA:57,0
DA:58,0
DA:59,0
BRF:0
BRH:0
LF:9
LH:0
end_of_record
SF:/home/runner/_work/Gestion-inmobiliaria/Gestion-inmobiliaria/backend/src/entities/pago.rs
FN:59,_RNvXNtNtCsjO1mwjW04O1_18realestate_backend8entities4pagoNtB2_6EntityINtNtNtCs4QJEBOqt6hN_7sea_orm6entity8relation7RelatedNtNtB4_12organizacion6EntityE2to
FN:65,_RNvXs_NtNtCsjO1mwjW04O1_18realestate_backend8entities4pagoNtB4_6EntityINtNtNtCs4QJEBOqt6hN_7sea_orm6entity8relation7RelatedNtNtB6_8contrato6EntityE2to
FN:65,_RNvXs_NtNtCshWAJ4lei3LP_18realestate_backend8entities4pagoNtB4_6EntityINtNtNtCs4QJEBOqt6hN_7sea_orm6entity8relation7RelatedNtNtB6_8contrato6EntityE2to
FN:59,_RNvXNtNtCshWAJ4lei3LP_18realestate_backend8entities4pagoNtB2_6EntityINtNtNtCs4QJEBOqt6hN_7sea_orm6entity8relation7RelatedNtNtB4_12organizacion6EntityE2to
FNDA:0,_RNvXNtNtCsjO1mwjW04O1_18realestate_backend8entities4pagoNtB2_6EntityINtNtNtCs4QJEBOqt6hN_7sea_orm6entity8relation7RelatedNtNtB4_12organizacion6EntityE2to
FNDA:0,_RNvXs_NtNtCsjO1mwjW04O1_18realestate_backend8entities4pagoNtB4_6EntityINtNtNtCs4QJEBOqt6hN_7sea_orm6entity8relation7RelatedNtNtB6_8contrato6EntityE2to
FNDA:0,_RNvXs_NtNtCshWAJ4lei3LP_18realestate_backend8entities4pagoNtB4_6EntityINtNtNtCs4QJEBOqt6hN_7sea_orm6entity8relation7RelatedNtNtB6_8contrato6EntityE2to
FNDA:0,_RNvXNtNtCshWAJ4lei3LP_18realestate_backend8entities4pagoNtB2_6EntityINtNtNtCs4QJEBOqt6hN_7sea_orm6entity8relation7RelatedNtNtB4_12organizacion6EntityE2to
FNF:2
FNH:0
DA:59,0
DA:60,0
DA:61,0
DA:65,0
DA:66,0
DA:67,0
BRF:0
BRH:0
LF:6
LH:0
end_of_record
SF:/home/runner/_work/Gestion-inmobiliaria/Gestion-inmobiliaria/backend/src/entities/preview_index.rs
FN:27,_RNvXNtNtCsjO1mwjW04O1_18realestate_backend8entities13preview_indexNtB2_6EntityINtNtNtCs4QJEBOqt6hN_7sea_orm6entity8relation7RelatedNtNtB4_12organizacion6EntityE2to
FN:27,_RNvXNtNtCshWAJ4lei3LP_18realestate_backend8entities13preview_indexNtB2_6EntityINtNtNtCs4QJEBOqt6hN_7sea_orm6entity8relation7RelatedNtNtB4_12organizacion6EntityE2to
FNDA:0,_RNvXNtNtCsjO1mwjW04O1_18realestate_backend8entities13preview_indexNtB2_6EntityINtNtNtCs4QJEBOqt6hN_7sea_orm6entity8relation7RelatedNtNtB4_12organizacion6EntityE2to
FNDA:0,_RNvXNtNtCshWAJ4lei3LP_18realestate_backend8entities13preview_indexNtB2_6EntityINtNtNtCs4QJEBOqt6hN_7sea_orm6entity8relation7RelatedNtNtB4_12organizacion6EntityE2to
FNF:1
FNH:0
DA:27,0
DA:28,0
DA:29,0
BRF:0
BRH:0
LF:3
LH:0
end_of_record
SF:/home/runner/_work/Gestion-inmobiliaria/Gestion-inmobiliaria/backend/src/entities/propiedad.rs
FN:50,_RNvXNtNtCsjO1mwjW04O1_18realestate_backend8entities9propiedadNtB2_6EntityINtNtNtCs4QJEBOqt6hN_7sea_orm6entity8relation7RelatedNtNtB4_8contrato6EntityE2to
FN:56,_RNvXs_NtNtCsjO1mwjW04O1_18realestate_backend8entities9propiedadNtB4_6EntityINtNtNtCs4QJEBOqt6hN_7sea_orm6entity8relation7RelatedNtNtB6_12organizacion6EntityE2to
FN:50,_RNvXNtNtCshWAJ4lei3LP_18realestate_backend8entities9propiedadNtB2_6EntityINtNtNtCs4QJEBOqt6hN_7sea_orm6entity8relation7RelatedNtNtB4_8contrato6EntityE2to
FN:56,_RNvXs_NtNtCshWAJ4lei3LP_18realestate_backend8entities9propiedadNtB4_6EntityINtNtNtCs4QJEBOqt6hN_7sea_orm6entity8relation7RelatedNtNtB6_12organizacion6EntityE2to
FNDA:0,_RNvXNtNtCsjO1mwjW04O1_18realestate_backend8entities9propiedadNtB2_6EntityINtNtNtCs4QJEBOqt6hN_7sea_orm6entity8relation7RelatedNtNtB4_8contrato6EntityE2to
FNDA:0,_RNvXs_NtNtCsjO1mwjW04O1_18realestate_backend8entities9propiedadNtB4_6EntityINtNtNtCs4QJEBOqt6hN_7sea_orm6entity8relation7RelatedNtNtB6_12organizacion6EntityE2to
FNDA:0,_RNvXNtNtCshWAJ4lei3LP_18realestate_backend8entities9propiedadNtB2_6EntityINtNtNtCs4QJEBOqt6hN_7sea_orm6entity8relation7RelatedNtNtB4_8contrato6EntityE2to
FNDA:0,_RNvXs_NtNtCshWAJ4lei3LP_18realestate_backend8entities9propiedadNtB4_6EntityINtNtNtCs4QJEBOqt6hN_7sea_orm6entity8relation7RelatedNtNtB6_12organizacion6EntityE2to
FNF:2
FNH:0
DA:50,0
DA:51,0
DA:52,0
DA:56,0
DA:57,0
DA:58,0
BRF:0
BRH:0
LF:6
LH:0
end_of_record
SF:/home/runner/_work/Gestion-inmobiliaria/Gestion-inmobiliaria/backend/src/entities/recibo_informal.rs
FN:34,_RNvXNtNtCsjO1mwjW04O1_18realestate_backend8entities15recibo_informalNtB2_6EntityINtNtNtCs4QJEBOqt6hN_7sea_orm6entity8relation7RelatedNtNtB4_4pago6EntityE2to
FN:40,_RNvXs_NtNtCsjO1mwjW04O1_18realestate_backend8entities15recibo_informalNtB4_6EntityINtNtNtCs4QJEBOqt6hN_7sea_orm6entity8relation7RelatedNtNtB6_12organizacion6EntityE2to
FN:34,_RNvXNtNtCshWAJ4lei3LP_18realestate_backend8entities15recibo_informalNtB2_6EntityINtNtNtCs4QJEBOqt6hN_7sea_orm6entity8relation7RelatedNtNtB4_4pago6EntityE2to
FN:40,_RNvXs_NtNtCshWAJ4lei3LP_18realestate_backend8entities15recibo_informalNtB4_6EntityINtNtNtCs4QJEBOqt6hN_7sea_orm6entity8relation7RelatedNtNtB6_12organizacion6EntityE2to
FNDA:0,_RNvXNtNtCsjO1mwjW04O1_18realestate_backend8entities15recibo_informalNtB2_6EntityINtNtNtCs4QJEBOqt6hN_7sea_orm6entity8relation7RelatedNtNtB4_4pago6EntityE2to
FNDA:0,_RNvXs_NtNtCsjO1mwjW04O1_18realestate_backend8entities15recibo_informalNtB4_6EntityINtNtNtCs4QJEBOqt6hN_7sea_orm6entity8relation7RelatedNtNtB6_12organizacion6EntityE2to
FNDA:0,_RNvXNtNtCshWAJ4lei3LP_18realestate_backend8entities15recibo_informalNtB2_6EntityINtNtNtCs4QJEBOqt6hN_7sea_orm6entity8relation7RelatedNtNtB4_4pago6EntityE2to
FNDA:0,_RNvXs_NtNtCshWAJ4lei3LP_18realestate_backend8entities15recibo_informalNtB4_6EntityINtNtNtCs4QJEBOqt6hN_7sea_orm6entity8relation7RelatedNtNtB6_12organizacion6EntityE2to
FNF:2
FNH:0
DA:34,0
DA:35,0
DA:36,0
DA:40,0
DA:41,0
DA:42,0
BRF:0
BRH:0
LF:6
LH:0
end_of_record
SF:/home/runner/_work/Gestion-inmobiliaria/Gestion-inmobiliaria/backend/src/entities/reporte_dgii.rs
FN:48,_RNvXNtNtCsjO1mwjW04O1_18realestate_backend8entities12reporte_dgiiNtB2_6EntityINtNtNtCs4QJEBOqt6hN_7sea_orm6entity8relation7RelatedNtNtB4_12organizacion6EntityE2to
FN:54,_RNvXs_NtNtCsjO1mwjW04O1_18realestate_backend8entities12reporte_dgiiNtB4_6EntityINtNtNtCs4QJEBOqt6hN_7sea_orm6entity8relation7RelatedNtNtB6_7usuario6EntityE2to
FN:48,_RNvXNtNtCshWAJ4lei3LP_18realestate_backend8entities12reporte_dgiiNtB2_6EntityINtNtNtCs4QJEBOqt6hN_7sea_orm6entity8relation7RelatedNtNtB4_12organizacion6EntityE2to
FN:54,_RNvXs_NtNtCshWAJ4lei3LP_18realestate_backend8entities12reporte_dgiiNtB4_6EntityINtNtNtCs4QJEBOqt6hN_7sea_orm6entity8relation7RelatedNtNtB6_7usuario6EntityE2to
FNDA:0,_RNvXNtNtCsjO1mwjW04O1_18realestate_backend8entities12reporte_dgiiNtB2_6EntityINtNtNtCs4QJEBOqt6hN_7sea_orm6entity8relation7RelatedNtNtB4_12organizacion6EntityE2to
FNDA:0,_RNvXs_NtNtCsjO1mwjW04O1_18realestate_backend8entities12reporte_dgiiNtB4_6EntityINtNtNtCs4QJEBOqt6hN_7sea_orm6entity8relation7RelatedNtNtB6_7usuario6EntityE2to
FNDA:0,_RNvXNtNtCshWAJ4lei3LP_18realestate_backend8entities12reporte_dgiiNtB2_6EntityINtNtNtCs4QJEBOqt6hN_7sea_orm6entity8relation7RelatedNtNtB4_12organizacion6EntityE2to
FNDA:0,_RNvXs_NtNtCshWAJ4lei3LP_18realestate_backend8entities12reporte_dgiiNtB4_6EntityINtNtNtCs4QJEBOqt6hN_7sea_orm6entity8relation7RelatedNtNtB6_7usuario6EntityE2to
FNF:2
FNH:0
DA:48,0
DA:49,0
DA:50,0
DA:54,0
DA:55,0
DA:56,0
BRF:0
BRH:0
LF:6
LH:0
end_of_record
SF:/home/runner/_work/Gestion-inmobiliaria/Gestion-inmobiliaria/backend/src/entities/responsabilidad_servicio.rs
FN:42,_RNvXNtNtCsjO1mwjW04O1_18realestate_backend8entities24responsabilidad_servicioNtB2_6EntityINtNtNtCs4QJEBOqt6hN_7sea_orm6entity8relation7RelatedNtNtB4_6unidad6EntityE2to
FN:54,_RNvXs0_NtNtCsjO1mwjW04O1_18realestate_backend8entities24responsabilidad_servicioNtB5_6EntityINtNtNtCs4QJEBOqt6hN_7sea_orm6entity8relation7RelatedNtNtB7_12organizacion6EntityE2to
FN:48,_RNvXs_NtNtCsjO1mwjW04O1_18realestate_backend8entities24responsabilidad_servicioNtB4_6EntityINtNtNtCs4QJEBOqt6hN_7sea_orm6entity8relation7RelatedNtNtB6_8contrato6EntityE2to
FN:42,_RNvXNtNtCshWAJ4lei3LP_18realestate_backend8entities24responsabilidad_servicioNtB2_6EntityINtNtNtCs4QJEBOqt6hN_7sea_orm6entity8relation7RelatedNtNtB4_6unidad6EntityE2to
FN:54,_RNvXs0_NtNtCshWAJ4lei3LP_18realestate_backend8entities24responsabilidad_servicioNtB5_6EntityINtNtNtCs4QJEBOqt6hN_7sea_orm6entity8relation7RelatedNtNtB7_12organizacion6EntityE2to
FN:48,_RNvXs_NtNtCshWAJ4lei3LP_18realestate_backend8entities24responsabilidad_servicioNtB4_6EntityINtNtNtCs4QJEBOqt6hN_7sea_orm6entity8relation7RelatedNtNtB6_8contrato6EntityE2to
FNDA:0,_RNvXNtNtCsjO1mwjW04O1_18realestate_backend8entities24responsabilidad_servicioNtB2_6EntityINtNtNtCs4QJEBOqt6hN_7sea_orm6entity8relation7RelatedNtNtB4_6unidad6EntityE2to
FNDA:0,_RNvXs0_NtNtCsjO1mwjW04O1_18realestate_backend8entities24responsabilidad_servicioNtB5_6EntityINtNtNtCs4QJEBOqt6hN_7sea_orm6entity8relation7RelatedNtNtB7_12organizacion6EntityE2to
FNDA:0,_RNvXs_NtNtCsjO1mwjW04O1_18realestate_backend8entities24responsabilidad_servicioNtB4_6EntityINtNtNtCs4QJEBOqt6hN_7sea_orm6entity8relation7RelatedNtNtB6_8contrato6EntityE2to
FNDA:0,_RNvXNtNtCshWAJ4lei3LP_18realestate_backend8entities24responsabilidad_servicioNtB2_6EntityINtNtNtCs4QJEBOqt6hN_7sea_orm6entity8relation7RelatedNtNtB4_6unidad6EntityE2to
FNDA:0,_RNvXs0_NtNtCshWAJ4lei3LP_18realestate_backend8entities24responsabilidad_servicioNtB5_6EntityINtNtNtCs4QJEBOqt6hN_7sea_orm6entity8relation7RelatedNtNtB7_12organizacion6EntityE2to
FNDA:0,_RNvXs_NtNtCshWAJ4lei3LP_18realestate_backend8entities24responsabilidad_servicioNtB4_6EntityINtNtNtCs4QJEBOqt6hN_7sea_orm6entity8relation7RelatedNtNtB6_8contrato6EntityE2to
FNF:3
FNH:0
DA:42,0
DA:43,0
DA:44,0
DA:48,0
DA:49,0
DA:50,0
DA:54,0
DA:55,0
DA:56,0
BRF:0
BRH:0
LF:9
LH:0
end_of_record
SF:/home/runner/_work/Gestion-inmobiliaria/Gestion-inmobiliaria/backend/src/entities/secuencia_ncf.rs
FN:34,_RNvXNtNtCsjO1mwjW04O1_18realestate_backend8entities13secuencia_ncfNtB2_6EntityINtNtNtCs4QJEBOqt6hN_7sea_orm6entity8relation7RelatedNtNtB4_12organizacion6EntityE2to
FN:34,_RNvXNtNtCshWAJ4lei3LP_18realestate_backend8entities13secuencia_ncfNtB2_6EntityINtNtNtCs4QJEBOqt6hN_7sea_orm6entity8relation7RelatedNtNtB4_12organizacion6EntityE2to
FNDA:0,_RNvXNtNtCsjO1mwjW04O1_18realestate_backend8entities13secuencia_ncfNtB2_6EntityINtNtNtCs4QJEBOqt6hN_7sea_orm6entity8relation7RelatedNtNtB4_12organizacion6EntityE2to
FNDA:0,_RNvXNtNtCshWAJ4lei3LP_18realestate_backend8entities13secuencia_ncfNtB2_6EntityINtNtNtCs4QJEBOqt6hN_7sea_orm6entity8relation7RelatedNtNtB4_12organizacion6EntityE2to
FNF:1
FNH:0
DA:34,0
DA:35,0
DA:36,0
BRF:0
BRH:0
LF:3
LH:0
end_of_record
SF:/home/runner/_work/Gestion-inmobiliaria/Gestion-inmobiliaria/backend/src/entities/solicitud_mantenimiento.rs
FN:50,_RNvXNtNtCsjO1mwjW04O1_18realestate_backend8entities23solicitud_mantenimientoNtB2_6EntityINtNtNtCs4QJEBOqt6hN_7sea_orm6entity8relation7RelatedNtNtB4_12organizacion6EntityE2to
FN:62,_RNvXs0_NtNtCsjO1mwjW04O1_18realestate_backend8entities23solicitud_mantenimientoNtB5_6EntityINtNtNtCs4QJEBOqt6hN_7sea_orm6entity8relation7RelatedNtNtB7_18nota_mantenimiento6EntityE2to
FN:56,_RNvXs_NtNtCsjO1mwjW04O1_18realestate_backend8entities23solicitud_mantenimientoNtB4_6EntityINtNtNtCs4QJEBOqt6hN_7sea_orm6entity8relation7RelatedNtNtB6_9propiedad6EntityE2to
FN:50,_RNvXNtNtCshWAJ4lei3LP_18realestate_backend8entities23solicitud_mantenimientoNtB2_6EntityINtNtNtCs4QJEBOqt6hN_7sea_orm6entity8relation7RelatedNtNtB4_12organizacion6EntityE2to
FN:62,_RNvXs0_NtNtCshWAJ4lei3LP_18realestate_backend8entities23solicitud_mantenimientoNtB5_6EntityINtNtNtCs4QJEBOqt6hN_7sea_orm6entity8relation7RelatedNtNtB7_18nota_mantenimiento6EntityE2to
FN:56,_RNvXs_NtNtCshWAJ4lei3LP_18realestate_backend8entities23solicitud_mantenimientoNtB4_6EntityINtNtNtCs4QJEBOqt6hN_7sea_orm6entity8relation7RelatedNtNtB6_9propiedad6EntityE2to
FNDA:0,_RNvXNtNtCsjO1mwjW04O1_18realestate_backend8entities23solicitud_mantenimientoNtB2_6EntityINtNtNtCs4QJEBOqt6hN_7sea_orm6entity8relation7RelatedNtNtB4_12organizacion6EntityE2to
FNDA:0,_RNvXs0_NtNtCsjO1mwjW04O1_18realestate_backend8entities23solicitud_mantenimientoNtB5_6EntityINtNtNtCs4QJEBOqt6hN_7sea_orm6entity8relation7RelatedNtNtB7_18nota_mantenimiento6EntityE2to
FNDA:0,_RNvXs_NtNtCsjO1mwjW04O1_18realestate_backend8entities23solicitud_mantenimientoNtB4_6EntityINtNtNtCs4QJEBOqt6hN_7sea_orm6entity8relation7RelatedNtNtB6_9propiedad6EntityE2to
FNDA:0,_RNvXNtNtCshWAJ4lei3LP_18realestate_backend8entities23solicitud_mantenimientoNtB2_6EntityINtNtNtCs4QJEBOqt6hN_7sea_orm6entity8relation7RelatedNtNtB4_12organizacion6EntityE2to
FNDA:0,_RNvXs0_NtNtCshWAJ4lei3LP_18realestate_backend8entities23solicitud_mantenimientoNtB5_6EntityINtNtNtCs4QJEBOqt6hN_7sea_orm6entity8relation7RelatedNtNtB7_18nota_mantenimiento6EntityE2to
FNDA:0,_RNvXs_NtNtCshWAJ4lei3LP_18realestate_backend8entities23solicitud_mantenimientoNtB4_6EntityINtNtNtCs4QJEBOqt6hN_7sea_orm6entity8relation7RelatedNtNtB6_9propiedad6EntityE2to
FNF:3
FNH:0
DA:50,0
DA:51,0
DA:52,0
DA:56,0
DA:57,0
DA:58,0
DA:62,0
DA:63,0
DA:64,0
BRF:0
BRH:0
LF:9
LH:0
end_of_record
SF:/home/runner/_work/Gestion-inmobiliaria/Gestion-inmobiliaria/backend/src/entities/unidad.rs
FN:38,_RNvXNtNtCsjO1mwjW04O1_18realestate_backend8entities6unidadNtB2_6EntityINtNtNtCs4QJEBOqt6hN_7sea_orm6entity8relation7RelatedNtNtB4_9propiedad6EntityE2to
FN:38,_RNvXNtNtCshWAJ4lei3LP_18realestate_backend8entities6unidadNtB2_6EntityINtNtNtCs4QJEBOqt6hN_7sea_orm6entity8relation7RelatedNtNtB4_9propiedad6EntityE2to
FNDA:0,_RNvXNtNtCsjO1mwjW04O1_18realestate_backend8entities6unidadNtB2_6EntityINtNtNtCs4QJEBOqt6hN_7sea_orm6entity8relation7RelatedNtNtB4_9propiedad6EntityE2to
FNDA:0,_RNvXNtNtCshWAJ4lei3LP_18realestate_backend8entities6unidadNtB2_6EntityINtNtNtCs4QJEBOqt6hN_7sea_orm6entity8relation7RelatedNtNtB4_9propiedad6EntityE2to
FNF:1
FNH:0
DA:38,0
DA:39,0
DA:40,0
BRF:0
BRH:0
LF:3
LH:0
end_of_record
SF:/home/runner/_work/Gestion-inmobiliaria/Gestion-inmobiliaria/backend/src/entities/usuario.rs
FN:33,_RNvXNtNtCsjO1mwjW04O1_18realestate_backend8entities7usuarioNtB2_6EntityINtNtNtCs4QJEBOqt6hN_7sea_orm6entity8relation7RelatedNtNtB4_12organizacion6EntityE2to
FN:33,_RNvXNtNtCshWAJ4lei3LP_18realestate_backend8entities7usuarioNtB2_6EntityINtNtNtCs4QJEBOqt6hN_7sea_orm6entity8relation7RelatedNtNtB4_12organizacion6EntityE2to
FNDA:0,_RNvXNtNtCsjO1mwjW04O1_18realestate_backend8entities7usuarioNtB2_6EntityINtNtNtCs4QJEBOqt6hN_7sea_orm6entity8relation7RelatedNtNtB4_12organizacion6EntityE2to
FNDA:0,_RNvXNtNtCshWAJ4lei3LP_18realestate_backend8entities7usuarioNtB2_6EntityINtNtNtCs4QJEBOqt6hN_7sea_orm6entity8relation7RelatedNtNtB4_12organizacion6EntityE2to
FNF:1
FNH:0
DA:33,0
DA:34,0
DA:35,0
BRF:0
BRH:0
LF:3
LH:0
end_of_record
SF:/home/runner/_work/Gestion-inmobiliaria/Gestion-inmobiliaria/backend/src/errors.rs
FN:117,_RNvNtCsjO1mwjW04O1_18realestate_backend6errors19extract_null_column
FN:104,_RNvNtCsjO1mwjW04O1_18realestate_backend6errors26extract_constraint_message
FN:35,_RNvXNtCsjO1mwjW04O1_18realestate_backend6errorsNtB2_8AppErrorNtNtNtCs6PNPVWoK2Gv_9actix_web5error14response_error13ResponseError11status_code
FN:52,_RNvXNtCsjO1mwjW04O1_18realestate_backend6errorsNtB2_8AppErrorNtNtNtCs6PNPVWoK2Gv_9actix_web5error14response_error13ResponseError14error_response
FN:89,_RNvXs_NtCsjO1mwjW04O1_18realestate_backend6errorsNtB4_8AppErrorINtNtCsgEmfK2I1SDS_4core7convert4FromNtNtCs4QJEBOqt6hN_7sea_orm5error5DbErrE4from
FN:117,_RNvNtCshWAJ4lei3LP_18realestate_backend6errors19extract_null_column
FN:104,_RNvNtCshWAJ4lei3LP_18realestate_backend6errors26extract_constraint_message
FN:35,_RNvXNtCshWAJ4lei3LP_18realestate_backend6errorsNtB2_8AppErrorNtNtNtCs6PNPVWoK2Gv_9actix_web5error14response_error13ResponseError11status_code
FN:52,_RNvXNtCshWAJ4lei3LP_18realestate_backend6errorsNtB2_8AppErrorNtNtNtCs6PNPVWoK2Gv_9actix_web5error14response_error13ResponseError14error_response
FN:89,_RNvXs_NtCshWAJ4lei3LP_18realestate_backend6errorsNtB4_8AppErrorINtNtCsgEmfK2I1SDS_4core7convert4FromNtNtCs4QJEBOqt6hN_7sea_orm5error5DbErrE4from
FN:170,_RNvNtNtCshWAJ4lei3LP_18realestate_backend6errors5testss_16gone_returns_410
FN:164,_RNvNtNtCshWAJ4lei3LP_18realestate_backend6errors5testss_20conflict_returns_409
FN:176,_RNvNtNtCshWAJ4lei3LP_18realestate_backend6errors5testss_20internal_returns_500
FN:146,_RNvNtNtCshWAJ4lei3LP_18realestate_backend6errors5testss_21forbidden_returns_403
FN:134,_RNvNtNtCshWAJ4lei3LP_18realestate_backend6errors5testss_21not_found_returns_404
FN:158,_RNvNtNtCshWAJ4lei3LP_18realestate_backend6errors5testss_22validation_returns_422
FN:152,_RNvNtNtCshWAJ4lei3LP_18realestate_backend6errors5testss_23bad_request_returns_400
FN:140,_RNvNtNtCshWAJ4lei3LP_18realestate_backend6errors5testss_24unauthorized_returns_401
FN:189,_RNvNtNtCshWAJ4lei3LP_18realestate_backend6errors5testss_28internal_error_hides_details
FN:182,_RNvNtNtCshWAJ4lei3LP_18realestate_backend6errors5testss_33error_response_contains_json_body
FN:250,_RNvNtNtCshWAJ4lei3LP_18realestate_backend6errors5testss_38extract_null_column_parses_column_name
FN:243,_RNvNtNtCshWAJ4lei3LP_18realestate_backend6errors5testss_40extract_constraint_message_parses_detail
FN:224,_RNvNtNtCshWAJ4lei3LP_18realestate_backend6errors5testss_42db_err_converts_to_validation_for_not_null
FN:207,_RNvNtNtCshWAJ4lei3LP_18realestate_backend6errors5testss_45db_err_converts_to_conflict_for_duplicate_key
FN:234,_RNvNtNtCshWAJ4lei3LP_18realestate_backend6errors5testss_45db_err_converts_to_validation_for_foreign_key
FN:200,_RNvNtNtCshWAJ4lei3LP_18realestate_backend6errors5testss_46db_err_converts_to_internal_for_generic_errors
FN:216,_RNvNtNtCshWAJ4lei3LP_18realestate_backend6errors5testss_49db_err_converts_to_conflict_for_unique_constraint
FNDA:0,_RNvNtCsjO1mwjW04O1_18realestate_backend6errors19extract_null_column
FNDA:0,_RNvNtCsjO1mwjW04O1_18realestate_backend6errors26extract_constraint_message
FNDA:64,_RNvXNtCsjO1mwjW04O1_18realestate_backend6errorsNtB2_8AppErrorNtNtNtCs6PNPVWoK2Gv_9actix_web5error14response_error13ResponseError11status_code
FNDA:64,_RNvXNtCsjO1mwjW04O1_18realestate_backend6errorsNtB2_8AppErrorNtNtNtCs6PNPVWoK2Gv_9actix_web5error14response_error13ResponseError14error_response
FNDA:0,_RNvXs_NtCsjO1mwjW04O1_18realestate_backend6errorsNtB4_8AppErrorINtNtCsgEmfK2I1SDS_4core7convert4FromNtNtCs4QJEBOqt6hN_7sea_orm5error5DbErrE4from
FNDA:2,_RNvNtCshWAJ4lei3LP_18realestate_backend6errors19extract_null_column
FNDA:3,_RNvNtCshWAJ4lei3LP_18realestate_backend6errors26extract_constraint_message
FNDA:268,_RNvXNtCshWAJ4lei3LP_18realestate_backend6errorsNtB2_8AppErrorNtNtNtCs6PNPVWoK2Gv_9actix_web5error14response_error13ResponseError11status_code
FNDA:1,_RNvXNtCshWAJ4lei3LP_18realestate_backend6errorsNtB2_8AppErrorNtNtNtCs6PNPVWoK2Gv_9actix_web5error14response_error13ResponseError14error_response
FNDA:5,_RNvXs_NtCshWAJ4lei3LP_18realestate_backend6errorsNtB4_8AppErrorINtNtCsgEmfK2I1SDS_4core7convert4FromNtNtCs4QJEBOqt6hN_7sea_orm5error5DbErrE4from
FNDA:1,_RNvNtNtCshWAJ4lei3LP_18realestate_backend6errors5testss_16gone_returns_410
FNDA:1,_RNvNtNtCshWAJ4lei3LP_18realestate_backend6errors5testss_20conflict_returns_409
FNDA:1,_RNvNtNtCshWAJ4lei3LP_18realestate_backend6errors5testss_20internal_returns_500
FNDA:1,_RNvNtNtCshWAJ4lei3LP_18realestate_backend6errors5testss_21forbidden_returns_403
FNDA:1,_RNvNtNtCshWAJ4lei3LP_18realestate_backend6errors5testss_21not_found_returns_404
FNDA:1,_RNvNtNtCshWAJ4lei3LP_18realestate_backend6errors5testss_22validation_returns_422
FNDA:1,_RNvNtNtCshWAJ4lei3LP_18realestate_backend6errors5testss_23bad_request_returns_400
FNDA:1,_RNvNtNtCshWAJ4lei3LP_18realestate_backend6errors5testss_24unauthorized_returns_401
FNDA:1,_RNvNtNtCshWAJ4lei3LP_18realestate_backend6errors5testss_28internal_error_hides_details
FNDA:1,_RNvNtNtCshWAJ4lei3LP_18realestate_backend6errors5testss_33error_response_contains_json_body
FNDA:1,_RNvNtNtCshWAJ4lei3LP_18realestate_backend6errors5testss_38extract_null_column_parses_column_name
FNDA:1,_RNvNtNtCshWAJ4lei3LP_18realestate_backend6errors5testss_40extract_constraint_message_parses_detail
FNDA:1,_RNvNtNtCshWAJ4lei3LP_18realestate_backend6errors5testss_42db_err_converts_to_validation_for_not_null
FNDA:1,_RNvNtNtCshWAJ4lei3LP_18realestate_backend6errors5testss_45db_err_converts_to_conflict_for_duplicate_key
FNDA:1,_RNvNtNtCshWAJ4lei3LP_18realestate_backend6errors5testss_45db_err_converts_to_validation_for_foreign_key
FNDA:1,_RNvNtNtCshWAJ4lei3LP_18realestate_backend6errors5testss_46db_err_converts_to_internal_for_generic_errors
FNDA:1,_RNvNtNtCshWAJ4lei3LP_18realestate_backend6errors5testss_49db_err_converts_to_conflict_for_unique_constraint
FNF:22
FNH:22
DA:35,332
DA:36,332
DA:37,2
DA:38,136
DA:39,1
DA:40,71
DA:42,15
DA:44,3
DA:45,102
DA:46,0
DA:47,0
DA:48,2
DA:50,332
DA:52,65
DA:53,65
DA:54,0
DA:55,0
DA:56,0
DA:58,0
DA:59,0
DA:60,0
DA:61,0
DA:62,0
DA:63,0
DA:65,65
DA:66,1
DA:67,33
DA:68,0
DA:69,31
DA:70,0
DA:71,0
DA:72,0
DA:73,0
DA:74,0
DA:75,0
DA:76,0
DA:78,65
DA:79,65
DA:80,65
DA:84,65
DA:85,65
DA:89,5
DA:90,5
DA:91,5
DA:92,2
DA:93,3
DA:94,3
DA:95,1
DA:96,2
DA:97,2
DA:98,1
DA:99,1
DA:100,1
DA:101,5
DA:104,3
DA:105,3
DA:106,2
DA:107,2
DA:108,2
DA:109,2
DA:110,2
DA:111,0
DA:112,0
DA:113,1
DA:114,1
DA:115,3
DA:117,2
DA:118,2
DA:119,2
DA:120,2
DA:121,2
DA:122,2
DA:123,0
DA:124,0
DA:125,0
DA:126,2
DA:134,1
DA:135,1
DA:136,1
DA:137,1
DA:140,1
DA:141,1
DA:142,1
DA:143,1
DA:146,1
DA:147,1
DA:148,1
DA:149,1
DA:152,1
DA:153,1
DA:154,1
DA:155,1
DA:158,1
DA:159,1
DA:160,1
DA:161,1
DA:164,1
DA:165,1
DA:166,1
DA:167,1
DA:170,1
DA:171,1
DA:172,1
DA:173,1
DA:176,1
DA:177,1
DA:178,1
DA:179,1
DA:182,1
DA:183,1
DA:184,1
DA:185,1
DA:186,1
DA:189,1
DA:190,1
DA:191,1
DA:192,1
DA:193,0
DA:195,1
DA:196,1
DA:197,1
DA:200,1
DA:201,1
DA:202,1
DA:203,1
DA:204,1
DA:207,1
DA:208,1
DA:209,1
DA:210,1
DA:211,1
DA:212,1
DA:213,1
DA:216,1
DA:217,1
DA:218,1
DA:219,1
DA:220,1
DA:221,1
DA:224,1
DA:225,1
DA:226,1
DA:227,1
DA:228,1
DA:229,1
DA:230,1
DA:231,1
DA:234,1
DA:235,1
DA:236,1
DA:237,1
DA:238,1
DA:239,1
DA:240,1
DA:243,1
DA:244,1
DA:245,1
DA:246,1
DA:247,1
DA:250,1
DA:251,1
DA:252,1
DA:253,1
DA:254,1
BRF:0
BRH:0
LF:164
LH:138
end_of_record
SF:/home/runner/_work/Gestion-inmobiliaria/Gestion-inmobiliaria/backend/src/handlers/auditoria.rs
FN:13,_RNCNvNtNtCsjO1mwjW04O1_18realestate_backend8handlers9auditoria4list0B7_
FN:9,_RNvNtNtCsjO1mwjW04O1_18realestate_backend8handlers9auditoria4list
FN:13,_RNCNvNtNtCshWAJ4lei3LP_18realestate_backend8handlers9auditoria4list0B7_
FN:9,_RNvNtNtCshWAJ4lei3LP_18realestate_backend8handlers9auditoria4list
FNDA:0,_RNCNvNtNtCsjO1mwjW04O1_18realestate_backend8handlers9auditoria4list0B7_
FNDA:0,_RNvNtNtCsjO1mwjW04O1_18realestate_backend8handlers9auditoria4list
FNDA:0,_RNCNvNtNtCshWAJ4lei3LP_18realestate_backend8handlers9auditoria4list0B7_
FNDA:0,_RNvNtNtCshWAJ4lei3LP_18realestate_backend8handlers9auditoria4list
FNF:2
FNH:0
DA:9,0
DA:10,0
DA:11,0
DA:12,0
DA:13,0
DA:14,0
DA:15,0
DA:16,0
DA:17,0
BRF:0
BRH:0
LF:10
LH:0
end_of_record
SF:/home/runner/_work/Gestion-inmobiliaria/Gestion-inmobiliaria/backend/src/handlers/auth.rs
FN:30,_RNCNvNtNtCsjO1mwjW04O1_18realestate_backend8handlers4auth5login0B7_
FN:15,_RNCNvNtNtCsjO1mwjW04O1_18realestate_backend8handlers4auth8register0B7_
FN:24,_RNvNtNtCsjO1mwjW04O1_18realestate_backend8handlers4auth5login
FN:11,_RNvNtNtCsjO1mwjW04O1_18realestate_backend8handlers4auth8register
FN:24,_RNvNtNtCshWAJ4lei3LP_18realestate_backend8handlers4auth5login
FN:11,_RNvNtNtCshWAJ4lei3LP_18realestate_backend8handlers4auth8register
FN:30,_RNCNvNtNtCshWAJ4lei3LP_18realestate_backend8handlers4auth5login0B7_
FN:15,_RNCNvNtNtCshWAJ4lei3LP_18realestate_backend8handlers4auth8register0B7_
FNDA:0,_RNCNvNtNtCsjO1mwjW04O1_18realestate_backend8handlers4auth5login0B7_
FNDA:0,_RNCNvNtNtCsjO1mwjW04O1_18realestate_backend8handlers4auth8register0B7_
FNDA:0,_RNvNtNtCsjO1mwjW04O1_18realestate_backend8handlers4auth5login
FNDA:0,_RNvNtNtCsjO1mwjW04O1_18realestate_backend8handlers4auth8register
FNDA:0,_RNvNtNtCshWAJ4lei3LP_18realestate_backend8handlers4auth5login
FNDA:0,_RNvNtNtCshWAJ4lei3LP_18realestate_backend8handlers4auth8register
FNDA:0,_RNCNvNtNtCshWAJ4lei3LP_18realestate_backend8handlers4auth5login0B7_
FNDA:0,_RNCNvNtNtCshWAJ4lei3LP_18realestate_backend8handlers4auth8register0B7_
FNF:4
FNH:0
DA:11,0
DA:12,0
DA:13,0
DA:14,0
DA:15,0
DA:16,0
DA:17,0
DA:18,0
DA:19,0
DA:21,0
DA:24,0
DA:25,0
DA:26,0
DA:27,0
DA:28,0
DA:29,0
DA:30,0
DA:31,0
DA:32,0
DA:33,0
DA:35,0
DA:36,0
DA:43,0
DA:44,0
DA:45,0
DA:46,0
DA:47,0
DA:48,0
DA:49,0
DA:50,0
DA:52,0
DA:53,0
DA:54,0
DA:55,0
DA:56,0
DA:57,0
DA:58,0
DA:59,0
DA:61,0
DA:62,0
DA:63,0
DA:64,0
DA:65,0
DA:67,0
DA:74,0
DA:75,0
DA:82,0
DA:84,0
DA:87,0
BRF:0
BRH:0
LF:51
LH:0
end_of_record
SF:/home/runner/_work/Gestion-inmobiliaria/Gestion-inmobiliaria/backend/src/handlers/background_jobs.rs
FN:15,_RNCNvNtNtCsjO1mwjW04O1_18realestate_backend8handlers15background_jobs14ejecutar_tarea0B7_
FN:39,_RNCNvNtNtCsjO1mwjW04O1_18realestate_backend8handlers15background_jobs9historial0B7_
FN:11,_RNvNtNtCsjO1mwjW04O1_18realestate_backend8handlers15background_jobs14ejecutar_tarea
FN:35,_RNvNtNtCsjO1mwjW04O1_18realestate_backend8handlers15background_jobs9historial
FN:15,_RNCNvNtNtCshWAJ4lei3LP_18realestate_backend8handlers15background_jobs14ejecutar_tarea0B7_
FN:39,_RNCNvNtNtCshWAJ4lei3LP_18realestate_backend8handlers15background_jobs9historial0B7_
FN:11,_RNvNtNtCshWAJ4lei3LP_18realestate_backend8handlers15background_jobs14ejecutar_tarea
FN:35,_RNvNtNtCshWAJ4lei3LP_18realestate_backend8handlers15background_jobs9historial
FNDA:0,_RNCNvNtNtCsjO1mwjW04O1_18realestate_backend8handlers15background_jobs14ejecutar_tarea0B7_
FNDA:0,_RNCNvNtNtCsjO1mwjW04O1_18realestate_backend8handlers15background_jobs9historial0B7_
FNDA:0,_RNvNtNtCsjO1mwjW04O1_18realestate_backend8handlers15background_jobs14ejecutar_tarea
FNDA:0,_RNvNtNtCsjO1mwjW04O1_18realestate_backend8handlers15background_jobs9historial
FNDA:0,_RNCNvNtNtCshWAJ4lei3LP_18realestate_backend8handlers15background_jobs14ejecutar_tarea0B7_
FNDA:0,_RNCNvNtNtCshWAJ4lei3LP_18realestate_backend8handlers15background_jobs9historial0B7_
FNDA:0,_RNvNtNtCshWAJ4lei3LP_18realestate_backend8handlers15background_jobs14ejecutar_tarea
FNDA:0,_RNvNtNtCshWAJ4lei3LP_18realestate_backend8handlers15background_jobs9historial
FNF:4
FNH:0
DA:11,0
DA:12,0
DA:13,0
DA:14,0
DA:15,0
DA:16,0
DA:17,0
DA:19,0
DA:20,0
DA:21,0
DA:22,0
DA:23,0
DA:24,0
DA:25,0
DA:26,0
DA:27,0
DA:28,0
DA:29,0
DA:30,0
DA:32,0
DA:33,0
DA:35,0
DA:36,0
DA:37,0
DA:38,0
DA:39,0
DA:40,0
DA:41,0
DA:42,0
BRF:0
BRH:0
LF:31
LH:0
end_of_record
SF:/home/runner/_work/Gestion-inmobiliaria/Gestion-inmobiliaria/backend/src/handlers/chatbot.rs
FN:513,_RNCNCNCNvNtNtCsjO1mwjW04O1_18realestate_backend8handlers7chatbot16test_chat_stream0s2_00Bb_
FN:527,_RNCNCNCNvNtNtCsjO1mwjW04O1_18realestate_backend8handlers7chatbot16test_chat_stream0s4_00Bb_
FN:254,_RNCNCNCNvNtNtCsjO1mwjW04O1_18realestate_backend8handlers7chatbot22extraction_to_response000Bb_
FN:334,_RNCNCNCNvNtNtCsjO1mwjW04O1_18realestate_backend8handlers7chatbot9test_chat0s2_00Bb_
FN:347,_RNCNCNCNvNtNtCsjO1mwjW04O1_18realestate_backend8handlers7chatbot9test_chat0s4_00Bb_
FN:362,_RNCNCNCNvNtNtCsjO1mwjW04O1_18realestate_backend8handlers7chatbot9test_chat0s5_00Bb_
FN:71,_RNCNCNvNtNtCsjO1mwjW04O1_18realestate_backend8handlers7chatbot10disconnect00B9_
FN:81,_RNCNCNvNtNtCsjO1mwjW04O1_18realestate_backend8handlers7chatbot10disconnect0s_0B9_
FN:494,_RNCNCNvNtNtCsjO1mwjW04O1_18realestate_backend8handlers7chatbot16test_chat_stream00B9_
FN:502,_RNCNCNvNtNtCsjO1mwjW04O1_18realestate_backend8handlers7chatbot16test_chat_stream0s0_0B9_
FN:506,_RNCNCNvNtNtCsjO1mwjW04O1_18realestate_backend8handlers7chatbot16test_chat_stream0s1_0B9_
FN:509,_RNCNCNvNtNtCsjO1mwjW04O1_18realestate_backend8handlers7chatbot16test_chat_stream0s2_0B9_
FN:520,_RNCNCNvNtNtCsjO1mwjW04O1_18realestate_backend8handlers7chatbot16test_chat_stream0s3_0B9_
FN:523,_RNCNCNvNtNtCsjO1mwjW04O1_18realestate_backend8handlers7chatbot16test_chat_stream0s4_0B9_
FN:543,_RNCNCNvNtNtCsjO1mwjW04O1_18realestate_backend8handlers7chatbot16test_chat_stream0s5_0B9_
FN:551,_RNCNCNvNtNtCsjO1mwjW04O1_18realestate_backend8handlers7chatbot16test_chat_stream0s6_0B9_
FN:582,_RNCNCNvNtNtCsjO1mwjW04O1_18realestate_backend8handlers7chatbot16test_chat_stream0s7_0B9_
FN:610,_RNCNCNvNtNtCsjO1mwjW04O1_18realestate_backend8handlers7chatbot16test_chat_stream0s8_0B9_
FN:498,_RNCNCNvNtNtCsjO1mwjW04O1_18realestate_backend8handlers7chatbot16test_chat_stream0s_0B9_
FN:252,_RNCNCNvNtNtCsjO1mwjW04O1_18realestate_backend8handlers7chatbot22extraction_to_response00B9_
FN:256,_RNCNCNvNtNtCsjO1mwjW04O1_18realestate_backend8handlers7chatbot22extraction_to_response0s_0B9_
FN:161,_RNCNCNvNtNtCsjO1mwjW04O1_18realestate_backend8handlers7chatbot24get_conversation_history00B9_
FN:102,_RNCNCNvNtNtCsjO1mwjW04O1_18realestate_backend8handlers7chatbot6status00B9_
FN:52,_RNCNCNvNtNtCsjO1mwjW04O1_18realestate_backend8handlers7chatbot7connect00B9_
FN:62,_RNCNCNvNtNtCsjO1mwjW04O1_18realestate_backend8handlers7chatbot7connect0s_0B9_
FN:315,_RNCNCNvNtNtCsjO1mwjW04O1_18realestate_backend8handlers7chatbot9test_chat00B9_
FN:323,_RNCNCNvNtNtCsjO1mwjW04O1_18realestate_backend8handlers7chatbot9test_chat0s0_0B9_
FN:327,_RNCNCNvNtNtCsjO1mwjW04O1_18realestate_backend8handlers7chatbot9test_chat0s1_0B9_
FN:330,_RNCNCNvNtNtCsjO1mwjW04O1_18realestate_backend8handlers7chatbot9test_chat0s2_0B9_
FN:341,_RNCNCNvNtNtCsjO1mwjW04O1_18realestate_backend8handlers7chatbot9test_chat0s3_0B9_
FN:343,_RNCNCNvNtNtCsjO1mwjW04O1_18realestate_backend8handlers7chatbot9test_chat0s4_0B9_
FN:358,_RNCNCNvNtNtCsjO1mwjW04O1_18realestate_backend8handlers7chatbot9test_chat0s5_0B9_
FN:389,_RNCNCNvNtNtCsjO1mwjW04O1_18realestate_backend8handlers7chatbot9test_chat0s6_0B9_
FN:397,_RNCNCNvNtNtCsjO1mwjW04O1_18realestate_backend8handlers7chatbot9test_chat0s7_0B9_
FN:409,_RNCNCNvNtNtCsjO1mwjW04O1_18realestate_backend8handlers7chatbot9test_chat0s8_0B9_
FN:428,_RNCNCNvNtNtCsjO1mwjW04O1_18realestate_backend8handlers7chatbot9test_chat0s9_0B9_
FN:319,_RNCNCNvNtNtCsjO1mwjW04O1_18realestate_backend8handlers7chatbot9test_chat0s_0B9_
FN:439,_RNCNCNvNtNtCsjO1mwjW04O1_18realestate_backend8handlers7chatbot9test_chat0sa_0B9_
FN:70,_RNCNvNtNtCsjO1mwjW04O1_18realestate_backend8handlers7chatbot10disconnect0B7_
FN:27,_RNCNvNtNtCsjO1mwjW04O1_18realestate_backend8handlers7chatbot10get_config0B7_
FN:659,_RNCNvNtNtCsjO1mwjW04O1_18realestate_backend8handlers7chatbot13clear_handoff0B7_
FN:36,_RNCNvNtNtCsjO1mwjW04O1_18realestate_backend8handlers7chatbot13update_config0B7_
FN:204,_RNCNvNtNtCsjO1mwjW04O1_18realestate_backend8handlers7chatbot14reject_receipt0B7_
FN:191,_RNCNvNtNtCsjO1mwjW04O1_18realestate_backend8handlers7chatbot15confirm_receipt0B7_
FN:484,_RNCNvNtNtCsjO1mwjW04O1_18realestate_backend8handlers7chatbot16test_chat_stream0B7_
FN:137,_RNCNvNtNtCsjO1mwjW04O1_18realestate_backend8handlers7chatbot18list_conversations0B7_
FN:177,_RNCNvNtNtCsjO1mwjW04O1_18realestate_backend8handlers7chatbot21list_pending_receipts0B7_
FN:250,_RNCNvNtNtCsjO1mwjW04O1_18realestate_backend8handlers7chatbot22extraction_to_response0B7_
FN:271,_RNCNvNtNtCsjO1mwjW04O1_18realestate_backend8handlers7chatbot22extraction_to_responses0_0B7_
FN:274,_RNCNvNtNtCsjO1mwjW04O1_18realestate_backend8handlers7chatbot22extraction_to_responses1_0B7_
FN:277,_RNCNvNtNtCsjO1mwjW04O1_18realestate_backend8handlers7chatbot22extraction_to_responses2_0B7_
FN:281,_RNCNvNtNtCsjO1mwjW04O1_18realestate_backend8handlers7chatbot22extraction_to_responses3_0B7_
FN:285,_RNCNvNtNtCsjO1mwjW04O1_18realestate_backend8handlers7chatbot22extraction_to_responses4_0B7_
FN:289,_RNCNvNtNtCsjO1mwjW04O1_18realestate_backend8handlers7chatbot22extraction_to_responses5_0B7_
FN:267,_RNCNvNtNtCsjO1mwjW04O1_18realestate_backend8handlers7chatbot22extraction_to_responses_0B7_
FN:151,_RNCNvNtNtCsjO1mwjW04O1_18realestate_backend8handlers7chatbot24get_conversation_history0B7_
FN:216,_RNCNvNtNtCsjO1mwjW04O1_18realestate_backend8handlers7chatbot26normalize_baileys_response0B7_
FN:219,_RNCNvNtNtCsjO1mwjW04O1_18realestate_backend8handlers7chatbot26normalize_baileys_responses0_0B7_
FN:227,_RNCNvNtNtCsjO1mwjW04O1_18realestate_backend8handlers7chatbot26normalize_baileys_responses1_0B7_
FN:232,_RNCNvNtNtCsjO1mwjW04O1_18realestate_backend8handlers7chatbot26normalize_baileys_responses2_0B7_
FN:219,_RNCNvNtNtCsjO1mwjW04O1_18realestate_backend8handlers7chatbot26normalize_baileys_responses_0B7_
FN:676,_RNCNvNtNtCsjO1mwjW04O1_18realestate_backend8handlers7chatbot28create_guidance_rule_handler0B7_
FN:709,_RNCNvNtNtCsjO1mwjW04O1_18realestate_backend8handlers7chatbot28delete_guidance_rule_handler0B7_
FN:692,_RNCNvNtNtCsjO1mwjW04O1_18realestate_backend8handlers7chatbot28update_guidance_rule_handler0B7_
FN:725,_RNCNvNtNtCsjO1mwjW04O1_18realestate_backend8handlers7chatbot35batch_update_guidance_rules_handler0B7_
FN:89,_RNCNvNtNtCsjO1mwjW04O1_18realestate_backend8handlers7chatbot6status0B7_
FN:51,_RNCNvNtNtCsjO1mwjW04O1_18realestate_backend8handlers7chatbot7connect0B7_
FN:304,_RNCNvNtNtCsjO1mwjW04O1_18realestate_backend8handlers7chatbot9test_chat0B7_
FN:67,_RNvNtNtCsjO1mwjW04O1_18realestate_backend8handlers7chatbot10disconnect
FN:24,_RNvNtNtCsjO1mwjW04O1_18realestate_backend8handlers7chatbot10get_config
FN:655,_RNvNtNtCsjO1mwjW04O1_18realestate_backend8handlers7chatbot13clear_handoff
FN:32,_RNvNtNtCsjO1mwjW04O1_18realestate_backend8handlers7chatbot13update_config
FN:199,_RNvNtNtCsjO1mwjW04O1_18realestate_backend8handlers7chatbot14reject_receipt
FN:187,_RNvNtNtCsjO1mwjW04O1_18realestate_backend8handlers7chatbot15confirm_receipt
FN:479,_RNvNtNtCsjO1mwjW04O1_18realestate_backend8handlers7chatbot16test_chat_stream
FN:133,_RNvNtNtCsjO1mwjW04O1_18realestate_backend8handlers7chatbot18list_conversations
FN:118,_RNvNtNtCsjO1mwjW04O1_18realestate_backend8handlers7chatbot19disconnected_status
FN:174,_RNvNtNtCsjO1mwjW04O1_18realestate_backend8handlers7chatbot21list_pending_receipts
FN:243,_RNvNtNtCsjO1mwjW04O1_18realestate_backend8handlers7chatbot22extraction_to_response
FN:146,_RNvNtNtCsjO1mwjW04O1_18realestate_backend8handlers7chatbot24get_conversation_history
FN:213,_RNvNtNtCsjO1mwjW04O1_18realestate_backend8handlers7chatbot26normalize_baileys_response
FN:672,_RNvNtNtCsjO1mwjW04O1_18realestate_backend8handlers7chatbot28create_guidance_rule_handler
FN:705,_RNvNtNtCsjO1mwjW04O1_18realestate_backend8handlers7chatbot28delete_guidance_rule_handler
FN:687,_RNvNtNtCsjO1mwjW04O1_18realestate_backend8handlers7chatbot28update_guidance_rule_handler
FN:721,_RNvNtNtCsjO1mwjW04O1_18realestate_backend8handlers7chatbot35batch_update_guidance_rules_handler
FN:86,_RNvNtNtCsjO1mwjW04O1_18realestate_backend8handlers7chatbot6status
FN:48,_RNvNtNtCsjO1mwjW04O1_18realestate_backend8handlers7chatbot7connect
FN:299,_RNvNtNtCsjO1mwjW04O1_18realestate_backend8handlers7chatbot9test_chat
FN:513,_RNCNCNCNvNtNtCshWAJ4lei3LP_18realestate_backend8handlers7chatbot16test_chat_stream0s2_00Bb_
FN:527,_RNCNCNCNvNtNtCshWAJ4lei3LP_18realestate_backend8handlers7chatbot16test_chat_stream0s4_00Bb_
FN:254,_RNCNCNCNvNtNtCshWAJ4lei3LP_18realestate_backend8handlers7chatbot22extraction_to_response000Bb_
FN:334,_RNCNCNCNvNtNtCshWAJ4lei3LP_18realestate_backend8handlers7chatbot9test_chat0s2_00Bb_
FN:347,_RNCNCNCNvNtNtCshWAJ4lei3LP_18realestate_backend8handlers7chatbot9test_chat0s4_00Bb_
FN:362,_RNCNCNCNvNtNtCshWAJ4lei3LP_18realestate_backend8handlers7chatbot9test_chat0s5_00Bb_
FN:71,_RNCNCNvNtNtCshWAJ4lei3LP_18realestate_backend8handlers7chatbot10disconnect00B9_
FN:81,_RNCNCNvNtNtCshWAJ4lei3LP_18realestate_backend8handlers7chatbot10disconnect0s_0B9_
FN:494,_RNCNCNvNtNtCshWAJ4lei3LP_18realestate_backend8handlers7chatbot16test_chat_stream00B9_
FN:502,_RNCNCNvNtNtCshWAJ4lei3LP_18realestate_backend8handlers7chatbot16test_chat_stream0s0_0B9_
FN:506,_RNCNCNvNtNtCshWAJ4lei3LP_18realestate_backend8handlers7chatbot16test_chat_stream0s1_0B9_
FN:509,_RNCNCNvNtNtCshWAJ4lei3LP_18realestate_backend8handlers7chatbot16test_chat_stream0s2_0B9_
FN:520,_RNCNCNvNtNtCshWAJ4lei3LP_18realestate_backend8handlers7chatbot16test_chat_stream0s3_0B9_
FN:523,_RNCNCNvNtNtCshWAJ4lei3LP_18realestate_backend8handlers7chatbot16test_chat_stream0s4_0B9_
FN:543,_RNCNCNvNtNtCshWAJ4lei3LP_18realestate_backend8handlers7chatbot16test_chat_stream0s5_0B9_
FN:551,_RNCNCNvNtNtCshWAJ4lei3LP_18realestate_backend8handlers7chatbot16test_chat_stream0s6_0B9_
FN:582,_RNCNCNvNtNtCshWAJ4lei3LP_18realestate_backend8handlers7chatbot16test_chat_stream0s7_0B9_
FN:610,_RNCNCNvNtNtCshWAJ4lei3LP_18realestate_backend8handlers7chatbot16test_chat_stream0s8_0B9_
FN:498,_RNCNCNvNtNtCshWAJ4lei3LP_18realestate_backend8handlers7chatbot16test_chat_stream0s_0B9_
FN:252,_RNCNCNvNtNtCshWAJ4lei3LP_18realestate_backend8handlers7chatbot22extraction_to_response00B9_
FN:256,_RNCNCNvNtNtCshWAJ4lei3LP_18realestate_backend8handlers7chatbot22extraction_to_response0s_0B9_
FN:161,_RNCNCNvNtNtCshWAJ4lei3LP_18realestate_backend8handlers7chatbot24get_conversation_history00B9_
FN:102,_RNCNCNvNtNtCshWAJ4lei3LP_18realestate_backend8handlers7chatbot6status00B9_
FN:52,_RNCNCNvNtNtCshWAJ4lei3LP_18realestate_backend8handlers7chatbot7connect00B9_
FN:62,_RNCNCNvNtNtCshWAJ4lei3LP_18realestate_backend8handlers7chatbot7connect0s_0B9_
FN:315,_RNCNCNvNtNtCshWAJ4lei3LP_18realestate_backend8handlers7chatbot9test_chat00B9_
FN:323,_RNCNCNvNtNtCshWAJ4lei3LP_18realestate_backend8handlers7chatbot9test_chat0s0_0B9_
FN:327,_RNCNCNvNtNtCshWAJ4lei3LP_18realestate_backend8handlers7chatbot9test_chat0s1_0B9_
FN:330,_RNCNCNvNtNtCshWAJ4lei3LP_18realestate_backend8handlers7chatbot9test_chat0s2_0B9_
FN:341,_RNCNCNvNtNtCshWAJ4lei3LP_18realestate_backend8handlers7chatbot9test_chat0s3_0B9_
FN:343,_RNCNCNvNtNtCshWAJ4lei3LP_18realestate_backend8handlers7chatbot9test_chat0s4_0B9_
FN:358,_RNCNCNvNtNtCshWAJ4lei3LP_18realestate_backend8handlers7chatbot9test_chat0s5_0B9_
FN:389,_RNCNCNvNtNtCshWAJ4lei3LP_18realestate_backend8handlers7chatbot9test_chat0s6_0B9_
FN:397,_RNCNCNvNtNtCshWAJ4lei3LP_18realestate_backend8handlers7chatbot9test_chat0s7_0B9_
FN:409,_RNCNCNvNtNtCshWAJ4lei3LP_18realestate_backend8handlers7chatbot9test_chat0s8_0B9_
FN:428,_RNCNCNvNtNtCshWAJ4lei3LP_18realestate_backend8handlers7chatbot9test_chat0s9_0B9_
FN:319,_RNCNCNvNtNtCshWAJ4lei3LP_18realestate_backend8handlers7chatbot9test_chat0s_0B9_
FN:439,_RNCNCNvNtNtCshWAJ4lei3LP_18realestate_backend8handlers7chatbot9test_chat0sa_0B9_
FN:70,_RNCNvNtNtCshWAJ4lei3LP_18realestate_backend8handlers7chatbot10disconnect0B7_
FN:27,_RNCNvNtNtCshWAJ4lei3LP_18realestate_backend8handlers7chatbot10get_config0B7_
FN:659,_RNCNvNtNtCshWAJ4lei3LP_18realestate_backend8handlers7chatbot13clear_handoff0B7_
FN:36,_RNCNvNtNtCshWAJ4lei3LP_18realestate_backend8handlers7chatbot13update_config0B7_
FN:204,_RNCNvNtNtCshWAJ4lei3LP_18realestate_backend8handlers7chatbot14reject_receipt0B7_
FN:191,_RNCNvNtNtCshWAJ4lei3LP_18realestate_backend8handlers7chatbot15confirm_receipt0B7_
FN:484,_RNCNvNtNtCshWAJ4lei3LP_18realestate_backend8handlers7chatbot16test_chat_stream0B7_
FN:137,_RNCNvNtNtCshWAJ4lei3LP_18realestate_backend8handlers7chatbot18list_conversations0B7_
FN:177,_RNCNvNtNtCshWAJ4lei3LP_18realestate_backend8handlers7chatbot21list_pending_receipts0B7_
FN:250,_RNCNvNtNtCshWAJ4lei3LP_18realestate_backend8handlers7chatbot22extraction_to_response0B7_
FN:271,_RNCNvNtNtCshWAJ4lei3LP_18realestate_backend8handlers7chatbot22extraction_to_responses0_0B7_
FN:274,_RNCNvNtNtCshWAJ4lei3LP_18realestate_backend8handlers7chatbot22extraction_to_responses1_0B7_
FN:277,_RNCNvNtNtCshWAJ4lei3LP_18realestate_backend8handlers7chatbot22extraction_to_responses2_0B7_
FN:281,_RNCNvNtNtCshWAJ4lei3LP_18realestate_backend8handlers7chatbot22extraction_to_responses3_0B7_
FN:285,_RNCNvNtNtCshWAJ4lei3LP_18realestate_backend8handlers7chatbot22extraction_to_responses4_0B7_
FN:289,_RNCNvNtNtCshWAJ4lei3LP_18realestate_backend8handlers7chatbot22extraction_to_responses5_0B7_
FN:267,_RNCNvNtNtCshWAJ4lei3LP_18realestate_backend8handlers7chatbot22extraction_to_responses_0B7_
FN:151,_RNCNvNtNtCshWAJ4lei3LP_18realestate_backend8handlers7chatbot24get_conversation_history0B7_
FN:216,_RNCNvNtNtCshWAJ4lei3LP_18realestate_backend8handlers7chatbot26normalize_baileys_response0B7_
FN:219,_RNCNvNtNtCshWAJ4lei3LP_18realestate_backend8handlers7chatbot26normalize_baileys_responses0_0B7_
FN:227,_RNCNvNtNtCshWAJ4lei3LP_18realestate_backend8handlers7chatbot26normalize_baileys_responses1_0B7_
FN:232,_RNCNvNtNtCshWAJ4lei3LP_18realestate_backend8handlers7chatbot26normalize_baileys_responses2_0B7_
FN:219,_RNCNvNtNtCshWAJ4lei3LP_18realestate_backend8handlers7chatbot26normalize_baileys_responses_0B7_
FN:676,_RNCNvNtNtCshWAJ4lei3LP_18realestate_backend8handlers7chatbot28create_guidance_rule_handler0B7_
FN:709,_RNCNvNtNtCshWAJ4lei3LP_18realestate_backend8handlers7chatbot28delete_guidance_rule_handler0B7_
FN:692,_RNCNvNtNtCshWAJ4lei3LP_18realestate_backend8handlers7chatbot28update_guidance_rule_handler0B7_
FN:725,_RNCNvNtNtCshWAJ4lei3LP_18realestate_backend8handlers7chatbot35batch_update_guidance_rules_handler0B7_
FN:89,_RNCNvNtNtCshWAJ4lei3LP_18realestate_backend8handlers7chatbot6status0B7_
FN:51,_RNCNvNtNtCshWAJ4lei3LP_18realestate_backend8handlers7chatbot7connect0B7_
FN:304,_RNCNvNtNtCshWAJ4lei3LP_18realestate_backend8handlers7chatbot9test_chat0B7_
FN:118,_RNvNtNtCshWAJ4lei3LP_18realestate_backend8handlers7chatbot19disconnected_status
FN:243,_RNvNtNtCshWAJ4lei3LP_18realestate_backend8handlers7chatbot22extraction_to_response
FN:213,_RNvNtNtCshWAJ4lei3LP_18realestate_backend8handlers7chatbot26normalize_baileys_response
FN:67,_RNvNtNtCshWAJ4lei3LP_18realestate_backend8handlers7chatbot10disconnect
FN:24,_RNvNtNtCshWAJ4lei3LP_18realestate_backend8handlers7chatbot10get_config
FN:655,_RNvNtNtCshWAJ4lei3LP_18realestate_backend8handlers7chatbot13clear_handoff
FN:32,_RNvNtNtCshWAJ4lei3LP_18realestate_backend8handlers7chatbot13update_config
FN:199,_RNvNtNtCshWAJ4lei3LP_18realestate_backend8handlers7chatbot14reject_receipt
FN:187,_RNvNtNtCshWAJ4lei3LP_18realestate_backend8handlers7chatbot15confirm_receipt
FN:479,_RNvNtNtCshWAJ4lei3LP_18realestate_backend8handlers7chatbot16test_chat_stream
FN:133,_RNvNtNtCshWAJ4lei3LP_18realestate_backend8handlers7chatbot18list_conversations
FN:174,_RNvNtNtCshWAJ4lei3LP_18realestate_backend8handlers7chatbot21list_pending_receipts
FN:146,_RNvNtNtCshWAJ4lei3LP_18realestate_backend8handlers7chatbot24get_conversation_history
FN:672,_RNvNtNtCshWAJ4lei3LP_18realestate_backend8handlers7chatbot28create_guidance_rule_handler
FN:705,_RNvNtNtCshWAJ4lei3LP_18realestate_backend8handlers7chatbot28delete_guidance_rule_handler
FN:687,_RNvNtNtCshWAJ4lei3LP_18realestate_backend8handlers7chatbot28update_guidance_rule_handler
FN:721,_RNvNtNtCshWAJ4lei3LP_18realestate_backend8handlers7chatbot35batch_update_guidance_rules_handler
FN:86,_RNvNtNtCshWAJ4lei3LP_18realestate_backend8handlers7chatbot6status
FN:48,_RNvNtNtCshWAJ4lei3LP_18realestate_backend8handlers7chatbot7connect
FN:299,_RNvNtNtCshWAJ4lei3LP_18realestate_backend8handlers7chatbot9test_chat
FNDA:0,_RNCNCNCNvNtNtCsjO1mwjW04O1_18realestate_backend8handlers7chatbot16test_chat_stream0s2_00Bb_
FNDA:0,_RNCNCNCNvNtNtCsjO1mwjW04O1_18realestate_backend8handlers7chatbot16test_chat_stream0s4_00Bb_
FNDA:0,_RNCNCNCNvNtNtCsjO1mwjW04O1_18realestate_backend8handlers7chatbot22extraction_to_response000Bb_
FNDA:0,_RNCNCNCNvNtNtCsjO1mwjW04O1_18realestate_backend8handlers7chatbot9test_chat0s2_00Bb_
FNDA:0,_RNCNCNCNvNtNtCsjO1mwjW04O1_18realestate_backend8handlers7chatbot9test_chat0s4_00Bb_
FNDA:0,_RNCNCNCNvNtNtCsjO1mwjW04O1_18realestate_backend8handlers7chatbot9test_chat0s5_00Bb_
FNDA:0,_RNCNCNvNtNtCsjO1mwjW04O1_18realestate_backend8handlers7chatbot10disconnect00B9_
FNDA:0,_RNCNCNvNtNtCsjO1mwjW04O1_18realestate_backend8handlers7chatbot10disconnect0s_0B9_
FNDA:0,_RNCNCNvNtNtCsjO1mwjW04O1_18realestate_backend8handlers7chatbot16test_chat_stream00B9_
FNDA:0,_RNCNCNvNtNtCsjO1mwjW04O1_18realestate_backend8handlers7chatbot16test_chat_stream0s0_0B9_
FNDA:0,_RNCNCNvNtNtCsjO1mwjW04O1_18realestate_backend8handlers7chatbot16test_chat_stream0s1_0B9_
FNDA:0,_RNCNCNvNtNtCsjO1mwjW04O1_18realestate_backend8handlers7chatbot16test_chat_stream0s2_0B9_
FNDA:0,_RNCNCNvNtNtCsjO1mwjW04O1_18realestate_backend8handlers7chatbot16test_chat_stream0s3_0B9_
FNDA:0,_RNCNCNvNtNtCsjO1mwjW04O1_18realestate_backend8handlers7chatbot16test_chat_stream0s4_0B9_
FNDA:0,_RNCNCNvNtNtCsjO1mwjW04O1_18realestate_backend8handlers7chatbot16test_chat_stream0s5_0B9_
FNDA:0,_RNCNCNvNtNtCsjO1mwjW04O1_18realestate_backend8handlers7chatbot16test_chat_stream0s6_0B9_
FNDA:0,_RNCNCNvNtNtCsjO1mwjW04O1_18realestate_backend8handlers7chatbot16test_chat_stream0s7_0B9_
FNDA:0,_RNCNCNvNtNtCsjO1mwjW04O1_18realestate_backend8handlers7chatbot16test_chat_stream0s8_0B9_
FNDA:0,_RNCNCNvNtNtCsjO1mwjW04O1_18realestate_backend8handlers7chatbot16test_chat_stream0s_0B9_
FNDA:0,_RNCNCNvNtNtCsjO1mwjW04O1_18realestate_backend8handlers7chatbot22extraction_to_response00B9_
FNDA:0,_RNCNCNvNtNtCsjO1mwjW04O1_18realestate_backend8handlers7chatbot22extraction_to_response0s_0B9_
FNDA:0,_RNCNCNvNtNtCsjO1mwjW04O1_18realestate_backend8handlers7chatbot24get_conversation_history00B9_
FNDA:0,_RNCNCNvNtNtCsjO1mwjW04O1_18realestate_backend8handlers7chatbot6status00B9_
FNDA:0,_RNCNCNvNtNtCsjO1mwjW04O1_18realestate_backend8handlers7chatbot7connect00B9_
FNDA:0,_RNCNCNvNtNtCsjO1mwjW04O1_18realestate_backend8handlers7chatbot7connect0s_0B9_
FNDA:0,_RNCNCNvNtNtCsjO1mwjW04O1_18realestate_backend8handlers7chatbot9test_chat00B9_
FNDA:0,_RNCNCNvNtNtCsjO1mwjW04O1_18realestate_backend8handlers7chatbot9test_chat0s0_0B9_
FNDA:0,_RNCNCNvNtNtCsjO1mwjW04O1_18realestate_backend8handlers7chatbot9test_chat0s1_0B9_
FNDA:0,_RNCNCNvNtNtCsjO1mwjW04O1_18realestate_backend8handlers7chatbot9test_chat0s2_0B9_
FNDA:0,_RNCNCNvNtNtCsjO1mwjW04O1_18realestate_backend8handlers7chatbot9test_chat0s3_0B9_
FNDA:0,_RNCNCNvNtNtCsjO1mwjW04O1_18realestate_backend8handlers7chatbot9test_chat0s4_0B9_
FNDA:0,_RNCNCNvNtNtCsjO1mwjW04O1_18realestate_backend8handlers7chatbot9test_chat0s5_0B9_
FNDA:0,_RNCNCNvNtNtCsjO1mwjW04O1_18realestate_backend8handlers7chatbot9test_chat0s6_0B9_
FNDA:0,_RNCNCNvNtNtCsjO1mwjW04O1_18realestate_backend8handlers7chatbot9test_chat0s7_0B9_
FNDA:0,_RNCNCNvNtNtCsjO1mwjW04O1_18realestate_backend8handlers7chatbot9test_chat0s8_0B9_
FNDA:0,_RNCNCNvNtNtCsjO1mwjW04O1_18realestate_backend8handlers7chatbot9test_chat0s9_0B9_
FNDA:0,_RNCNCNvNtNtCsjO1mwjW04O1_18realestate_backend8handlers7chatbot9test_chat0s_0B9_
FNDA:0,_RNCNCNvNtNtCsjO1mwjW04O1_18realestate_backend8handlers7chatbot9test_chat0sa_0B9_
FNDA:0,_RNCNvNtNtCsjO1mwjW04O1_18realestate_backend8handlers7chatbot10disconnect0B7_
FNDA:0,_RNCNvNtNtCsjO1mwjW04O1_18realestate_backend8handlers7chatbot10get_config0B7_
FNDA:0,_RNCNvNtNtCsjO1mwjW04O1_18realestate_backend8handlers7chatbot13clear_handoff0B7_
FNDA:0,_RNCNvNtNtCsjO1mwjW04O1_18realestate_backend8handlers7chatbot13update_config0B7_
FNDA:0,_RNCNvNtNtCsjO1mwjW04O1_18realestate_backend8handlers7chatbot14reject_receipt0B7_
FNDA:0,_RNCNvNtNtCsjO1mwjW04O1_18realestate_backend8handlers7chatbot15confirm_receipt0B7_
FNDA:0,_RNCNvNtNtCsjO1mwjW04O1_18realestate_backend8handlers7chatbot16test_chat_stream0B7_
FNDA:0,_RNCNvNtNtCsjO1mwjW04O1_18realestate_backend8handlers7chatbot18list_conversations0B7_
FNDA:0,_RNCNvNtNtCsjO1mwjW04O1_18realestate_backend8handlers7chatbot21list_pending_receipts0B7_
FNDA:0,_RNCNvNtNtCsjO1mwjW04O1_18realestate_backend8handlers7chatbot22extraction_to_response0B7_
FNDA:0,_RNCNvNtNtCsjO1mwjW04O1_18realestate_backend8handlers7chatbot22extraction_to_responses0_0B7_
FNDA:0,_RNCNvNtNtCsjO1mwjW04O1_18realestate_backend8handlers7chatbot22extraction_to_responses1_0B7_
FNDA:0,_RNCNvNtNtCsjO1mwjW04O1_18realestate_backend8handlers7chatbot22extraction_to_responses2_0B7_
FNDA:0,_RNCNvNtNtCsjO1mwjW04O1_18realestate_backend8handlers7chatbot22extraction_to_responses3_0B7_
FNDA:0,_RNCNvNtNtCsjO1mwjW04O1_18realestate_backend8handlers7chatbot22extraction_to_responses4_0B7_
FNDA:0,_RNCNvNtNtCsjO1mwjW04O1_18realestate_backend8handlers7chatbot22extraction_to_responses5_0B7_
FNDA:0,_RNCNvNtNtCsjO1mwjW04O1_18realestate_backend8handlers7chatbot22extraction_to_responses_0B7_
FNDA:0,_RNCNvNtNtCsjO1mwjW04O1_18realestate_backend8handlers7chatbot24get_conversation_history0B7_
FNDA:0,_RNCNvNtNtCsjO1mwjW04O1_18realestate_backend8handlers7chatbot26normalize_baileys_response0B7_
FNDA:0,_RNCNvNtNtCsjO1mwjW04O1_18realestate_backend8handlers7chatbot26normalize_baileys_responses0_0B7_
FNDA:0,_RNCNvNtNtCsjO1mwjW04O1_18realestate_backend8handlers7chatbot26normalize_baileys_responses1_0B7_
FNDA:0,_RNCNvNtNtCsjO1mwjW04O1_18realestate_backend8handlers7chatbot26normalize_baileys_responses2_0B7_
FNDA:0,_RNCNvNtNtCsjO1mwjW04O1_18realestate_backend8handlers7chatbot26normalize_baileys_responses_0B7_
FNDA:0,_RNCNvNtNtCsjO1mwjW04O1_18realestate_backend8handlers7chatbot28create_guidance_rule_handler0B7_
FNDA:0,_RNCNvNtNtCsjO1mwjW04O1_18realestate_backend8handlers7chatbot28delete_guidance_rule_handler0B7_
FNDA:0,_RNCNvNtNtCsjO1mwjW04O1_18realestate_backend8handlers7chatbot28update_guidance_rule_handler0B7_
FNDA:0,_RNCNvNtNtCsjO1mwjW04O1_18realestate_backend8handlers7chatbot35batch_update_guidance_rules_handler0B7_
FNDA:0,_RNCNvNtNtCsjO1mwjW04O1_18realestate_backend8handlers7chatbot6status0B7_
FNDA:0,_RNCNvNtNtCsjO1mwjW04O1_18realestate_backend8handlers7chatbot7connect0B7_
FNDA:0,_RNCNvNtNtCsjO1mwjW04O1_18realestate_backend8handlers7chatbot9test_chat0B7_
FNDA:0,_RNvNtNtCsjO1mwjW04O1_18realestate_backend8handlers7chatbot10disconnect
FNDA:0,_RNvNtNtCsjO1mwjW04O1_18realestate_backend8handlers7chatbot10get_config
FNDA:0,_RNvNtNtCsjO1mwjW04O1_18realestate_backend8handlers7chatbot13clear_handoff
FNDA:0,_RNvNtNtCsjO1mwjW04O1_18realestate_backend8handlers7chatbot13update_config
FNDA:0,_RNvNtNtCsjO1mwjW04O1_18realestate_backend8handlers7chatbot14reject_receipt
FNDA:0,_RNvNtNtCsjO1mwjW04O1_18realestate_backend8handlers7chatbot15confirm_receipt
FNDA:0,_RNvNtNtCsjO1mwjW04O1_18realestate_backend8handlers7chatbot16test_chat_stream
FNDA:0,_RNvNtNtCsjO1mwjW04O1_18realestate_backend8handlers7chatbot18list_conversations
FNDA:0,_RNvNtNtCsjO1mwjW04O1_18realestate_backend8handlers7chatbot19disconnected_status
FNDA:0,_RNvNtNtCsjO1mwjW04O1_18realestate_backend8handlers7chatbot21list_pending_receipts
FNDA:0,_RNvNtNtCsjO1mwjW04O1_18realestate_backend8handlers7chatbot22extraction_to_response
FNDA:0,_RNvNtNtCsjO1mwjW04O1_18realestate_backend8handlers7chatbot24get_conversation_history
FNDA:0,_RNvNtNtCsjO1mwjW04O1_18realestate_backend8handlers7chatbot26normalize_baileys_response
FNDA:0,_RNvNtNtCsjO1mwjW04O1_18realestate_backend8handlers7chatbot28create_guidance_rule_handler
FNDA:0,_RNvNtNtCsjO1mwjW04O1_18realestate_backend8handlers7chatbot28delete_guidance_rule_handler
FNDA:0,_RNvNtNtCsjO1mwjW04O1_18realestate_backend8handlers7chatbot28update_guidance_rule_handler
FNDA:0,_RNvNtNtCsjO1mwjW04O1_18realestate_backend8handlers7chatbot35batch_update_guidance_rules_handler
FNDA:0,_RNvNtNtCsjO1mwjW04O1_18realestate_backend8handlers7chatbot6status
FNDA:0,_RNvNtNtCsjO1mwjW04O1_18realestate_backend8handlers7chatbot7connect
FNDA:0,_RNvNtNtCsjO1mwjW04O1_18realestate_backend8handlers7chatbot9test_chat
FNDA:0,_RNCNCNCNvNtNtCshWAJ4lei3LP_18realestate_backend8handlers7chatbot16test_chat_stream0s2_00Bb_
FNDA:0,_RNCNCNCNvNtNtCshWAJ4lei3LP_18realestate_backend8handlers7chatbot16test_chat_stream0s4_00Bb_
FNDA:0,_RNCNCNCNvNtNtCshWAJ4lei3LP_18realestate_backend8handlers7chatbot22extraction_to_response000Bb_
FNDA:0,_RNCNCNCNvNtNtCshWAJ4lei3LP_18realestate_backend8handlers7chatbot9test_chat0s2_00Bb_
FNDA:0,_RNCNCNCNvNtNtCshWAJ4lei3LP_18realestate_backend8handlers7chatbot9test_chat0s4_00Bb_
FNDA:0,_RNCNCNCNvNtNtCshWAJ4lei3LP_18realestate_backend8handlers7chatbot9test_chat0s5_00Bb_
FNDA:0,_RNCNCNvNtNtCshWAJ4lei3LP_18realestate_backend8handlers7chatbot10disconnect00B9_
FNDA:0,_RNCNCNvNtNtCshWAJ4lei3LP_18realestate_backend8handlers7chatbot10disconnect0s_0B9_
FNDA:0,_RNCNCNvNtNtCshWAJ4lei3LP_18realestate_backend8handlers7chatbot16test_chat_stream00B9_
FNDA:0,_RNCNCNvNtNtCshWAJ4lei3LP_18realestate_backend8handlers7chatbot16test_chat_stream0s0_0B9_
FNDA:0,_RNCNCNvNtNtCshWAJ4lei3LP_18realestate_backend8handlers7chatbot16test_chat_stream0s1_0B9_
FNDA:0,_RNCNCNvNtNtCshWAJ4lei3LP_18realestate_backend8handlers7chatbot16test_chat_stream0s2_0B9_
FNDA:0,_RNCNCNvNtNtCshWAJ4lei3LP_18realestate_backend8handlers7chatbot16test_chat_stream0s3_0B9_
FNDA:0,_RNCNCNvNtNtCshWAJ4lei3LP_18realestate_backend8handlers7chatbot16test_chat_stream0s4_0B9_
FNDA:0,_RNCNCNvNtNtCshWAJ4lei3LP_18realestate_backend8handlers7chatbot16test_chat_stream0s5_0B9_
FNDA:0,_RNCNCNvNtNtCshWAJ4lei3LP_18realestate_backend8handlers7chatbot16test_chat_stream0s6_0B9_
FNDA:0,_RNCNCNvNtNtCshWAJ4lei3LP_18realestate_backend8handlers7chatbot16test_chat_stream0s7_0B9_
FNDA:0,_RNCNCNvNtNtCshWAJ4lei3LP_18realestate_backend8handlers7chatbot16test_chat_stream0s8_0B9_
FNDA:0,_RNCNCNvNtNtCshWAJ4lei3LP_18realestate_backend8handlers7chatbot16test_chat_stream0s_0B9_
FNDA:0,_RNCNCNvNtNtCshWAJ4lei3LP_18realestate_backend8handlers7chatbot22extraction_to_response00B9_
FNDA:0,_RNCNCNvNtNtCshWAJ4lei3LP_18realestate_backend8handlers7chatbot22extraction_to_response0s_0B9_
FNDA:0,_RNCNCNvNtNtCshWAJ4lei3LP_18realestate_backend8handlers7chatbot24get_conversation_history00B9_
FNDA:0,_RNCNCNvNtNtCshWAJ4lei3LP_18realestate_backend8handlers7chatbot6status00B9_
FNDA:0,_RNCNCNvNtNtCshWAJ4lei3LP_18realestate_backend8handlers7chatbot7connect00B9_
FNDA:0,_RNCNCNvNtNtCshWAJ4lei3LP_18realestate_backend8handlers7chatbot7connect0s_0B9_
FNDA:0,_RNCNCNvNtNtCshWAJ4lei3LP_18realestate_backend8handlers7chatbot9test_chat00B9_
FNDA:0,_RNCNCNvNtNtCshWAJ4lei3LP_18realestate_backend8handlers7chatbot9test_chat0s0_0B9_
FNDA:0,_RNCNCNvNtNtCshWAJ4lei3LP_18realestate_backend8handlers7chatbot9test_chat0s1_0B9_
FNDA:0,_RNCNCNvNtNtCshWAJ4lei3LP_18realestate_backend8handlers7chatbot9test_chat0s2_0B9_
FNDA:0,_RNCNCNvNtNtCshWAJ4lei3LP_18realestate_backend8handlers7chatbot9test_chat0s3_0B9_
FNDA:0,_RNCNCNvNtNtCshWAJ4lei3LP_18realestate_backend8handlers7chatbot9test_chat0s4_0B9_
FNDA:0,_RNCNCNvNtNtCshWAJ4lei3LP_18realestate_backend8handlers7chatbot9test_chat0s5_0B9_
FNDA:0,_RNCNCNvNtNtCshWAJ4lei3LP_18realestate_backend8handlers7chatbot9test_chat0s6_0B9_
FNDA:0,_RNCNCNvNtNtCshWAJ4lei3LP_18realestate_backend8handlers7chatbot9test_chat0s7_0B9_
FNDA:0,_RNCNCNvNtNtCshWAJ4lei3LP_18realestate_backend8handlers7chatbot9test_chat0s8_0B9_
FNDA:0,_RNCNCNvNtNtCshWAJ4lei3LP_18realestate_backend8handlers7chatbot9test_chat0s9_0B9_
FNDA:0,_RNCNCNvNtNtCshWAJ4lei3LP_18realestate_backend8handlers7chatbot9test_chat0s_0B9_
FNDA:0,_RNCNCNvNtNtCshWAJ4lei3LP_18realestate_backend8handlers7chatbot9test_chat0sa_0B9_
FNDA:0,_RNCNvNtNtCshWAJ4lei3LP_18realestate_backend8handlers7chatbot10disconnect0B7_
FNDA:0,_RNCNvNtNtCshWAJ4lei3LP_18realestate_backend8handlers7chatbot10get_config0B7_
FNDA:0,_RNCNvNtNtCshWAJ4lei3LP_18realestate_backend8handlers7chatbot13clear_handoff0B7_
FNDA:0,_RNCNvNtNtCshWAJ4lei3LP_18realestate_backend8handlers7chatbot13update_config0B7_
FNDA:0,_RNCNvNtNtCshWAJ4lei3LP_18realestate_backend8handlers7chatbot14reject_receipt0B7_
FNDA:0,_RNCNvNtNtCshWAJ4lei3LP_18realestate_backend8handlers7chatbot15confirm_receipt0B7_
FNDA:0,_RNCNvNtNtCshWAJ4lei3LP_18realestate_backend8handlers7chatbot16test_chat_stream0B7_
FNDA:0,_RNCNvNtNtCshWAJ4lei3LP_18realestate_backend8handlers7chatbot18list_conversations0B7_
FNDA:0,_RNCNvNtNtCshWAJ4lei3LP_18realestate_backend8handlers7chatbot21list_pending_receipts0B7_
FNDA:0,_RNCNvNtNtCshWAJ4lei3LP_18realestate_backend8handlers7chatbot22extraction_to_response0B7_
FNDA:0,_RNCNvNtNtCshWAJ4lei3LP_18realestate_backend8handlers7chatbot22extraction_to_responses0_0B7_
FNDA:0,_RNCNvNtNtCshWAJ4lei3LP_18realestate_backend8handlers7chatbot22extraction_to_responses1_0B7_
FNDA:0,_RNCNvNtNtCshWAJ4lei3LP_18realestate_backend8handlers7chatbot22extraction_to_responses2_0B7_
FNDA:0,_RNCNvNtNtCshWAJ4lei3LP_18realestate_backend8handlers7chatbot22extraction_to_responses3_0B7_
FNDA:0,_RNCNvNtNtCshWAJ4lei3LP_18realestate_backend8handlers7chatbot22extraction_to_responses4_0B7_
FNDA:0,_RNCNvNtNtCshWAJ4lei3LP_18realestate_backend8handlers7chatbot22extraction_to_responses5_0B7_
FNDA:0,_RNCNvNtNtCshWAJ4lei3LP_18realestate_backend8handlers7chatbot22extraction_to_responses_0B7_
FNDA:0,_RNCNvNtNtCshWAJ4lei3LP_18realestate_backend8handlers7chatbot24get_conversation_history0B7_
FNDA:0,_RNCNvNtNtCshWAJ4lei3LP_18realestate_backend8handlers7chatbot26normalize_baileys_response0B7_
FNDA:0,_RNCNvNtNtCshWAJ4lei3LP_18realestate_backend8handlers7chatbot26normalize_baileys_responses0_0B7_
FNDA:0,_RNCNvNtNtCshWAJ4lei3LP_18realestate_backend8handlers7chatbot26normalize_baileys_responses1_0B7_
FNDA:0,_RNCNvNtNtCshWAJ4lei3LP_18realestate_backend8handlers7chatbot26normalize_baileys_responses2_0B7_
FNDA:0,_RNCNvNtNtCshWAJ4lei3LP_18realestate_backend8handlers7chatbot26normalize_baileys_responses_0B7_
FNDA:0,_RNCNvNtNtCshWAJ4lei3LP_18realestate_backend8handlers7chatbot28create_guidance_rule_handler0B7_
FNDA:0,_RNCNvNtNtCshWAJ4lei3LP_18realestate_backend8handlers7chatbot28delete_guidance_rule_handler0B7_
FNDA:0,_RNCNvNtNtCshWAJ4lei3LP_18realestate_backend8handlers7chatbot28update_guidance_rule_handler0B7_
FNDA:0,_RNCNvNtNtCshWAJ4lei3LP_18realestate_backend8handlers7chatbot35batch_update_guidance_rules_handler0B7_
FNDA:0,_RNCNvNtNtCshWAJ4lei3LP_18realestate_backend8handlers7chatbot6status0B7_
FNDA:0,_RNCNvNtNtCshWAJ4lei3LP_18realestate_backend8handlers7chatbot7connect0B7_
FNDA:0,_RNCNvNtNtCshWAJ4lei3LP_18realestate_backend8handlers7chatbot9test_chat0B7_
FNDA:0,_RNvNtNtCshWAJ4lei3LP_18realestate_backend8handlers7chatbot19disconnected_status
FNDA:0,_RNvNtNtCshWAJ4lei3LP_18realestate_backend8handlers7chatbot22extraction_to_response
FNDA:0,_RNvNtNtCshWAJ4lei3LP_18realestate_backend8handlers7chatbot26normalize_baileys_response
FNDA:0,_RNvNtNtCshWAJ4lei3LP_18realestate_backend8handlers7chatbot10disconnect
FNDA:0,_RNvNtNtCshWAJ4lei3LP_18realestate_backend8handlers7chatbot10get_config
FNDA:0,_RNvNtNtCshWAJ4lei3LP_18realestate_backend8handlers7chatbot13clear_handoff
FNDA:0,_RNvNtNtCshWAJ4lei3LP_18realestate_backend8handlers7chatbot13update_config
FNDA:0,_RNvNtNtCshWAJ4lei3LP_18realestate_backend8handlers7chatbot14reject_receipt
FNDA:0,_RNvNtNtCshWAJ4lei3LP_18realestate_backend8handlers7chatbot15confirm_receipt
FNDA:0,_RNvNtNtCshWAJ4lei3LP_18realestate_backend8handlers7chatbot16test_chat_stream
FNDA:0,_RNvNtNtCshWAJ4lei3LP_18realestate_backend8handlers7chatbot18list_conversations
FNDA:0,_RNvNtNtCshWAJ4lei3LP_18realestate_backend8handlers7chatbot21list_pending_receipts
FNDA:0,_RNvNtNtCshWAJ4lei3LP_18realestate_backend8handlers7chatbot24get_conversation_history
FNDA:0,_RNvNtNtCshWAJ4lei3LP_18realestate_backend8handlers7chatbot28create_guidance_rule_handler
FNDA:0,_RNvNtNtCshWAJ4lei3LP_18realestate_backend8handlers7chatbot28delete_guidance_rule_handler
FNDA:0,_RNvNtNtCshWAJ4lei3LP_18realestate_backend8handlers7chatbot28update_guidance_rule_handler
FNDA:0,_RNvNtNtCshWAJ4lei3LP_18realestate_backend8handlers7chatbot35batch_update_guidance_rules_handler
FNDA:0,_RNvNtNtCshWAJ4lei3LP_18realestate_backend8handlers7chatbot6status
FNDA:0,_RNvNtNtCshWAJ4lei3LP_18realestate_backend8handlers7chatbot7connect
FNDA:0,_RNvNtNtCshWAJ4lei3LP_18realestate_backend8handlers7chatbot9test_chat
FNF:88
FNH:0
DA:24,0
DA:25,0
DA:26,0
DA:27,0
DA:28,0
DA:29,0
DA:30,0
DA:32,0
DA:33,0
DA:34,0
DA:35,0
DA:36,0
DA:37,0
DA:38,0
DA:39,0
DA:40,0
DA:41,0
DA:42,0
DA:43,0
DA:44,0
DA:45,0
DA:46,0
DA:48,0
DA:49,0
DA:50,0
DA:51,0
DA:52,0
DA:53,0
DA:54,0
DA:55,0
DA:56,0
DA:58,0
DA:59,0
DA:61,0
DA:62,0
DA:64,0
DA:65,0
DA:67,0
DA:68,0
DA:69,0
DA:70,0
DA:71,0
DA:72,0
DA:73,0
DA:74,0
DA:75,0
DA:77,0
DA:78,0
DA:80,0
DA:81,0
DA:83,0
DA:84,0
DA:86,0
DA:87,0
DA:88,0
DA:89,0
DA:90,0
DA:92,0
DA:93,0
DA:97,0
DA:100,0
DA:101,0
DA:102,0
DA:103,0
DA:104,0
DA:105,0
DA:107,0
DA:108,0
DA:113,0
DA:116,0
DA:118,0
DA:119,0
DA:120,0
DA:121,0
DA:122,0
DA:123,0
DA:125,0
DA:133,0
DA:134,0
DA:135,0
DA:136,0
DA:137,0
DA:138,0
DA:139,0
DA:140,0
DA:142,0
DA:143,0
DA:144,0
DA:146,0
DA:147,0
DA:148,0
DA:149,0
DA:150,0
DA:151,0
DA:152,0
DA:153,0
DA:154,0
DA:156,0
DA:158,0
DA:159,0
DA:160,0
DA:161,0
DA:162,0
DA:163,0
DA:164,0
DA:165,0
DA:166,0
DA:167,0
DA:168,0
DA:169,0
DA:171,0
DA:172,0
DA:174,0
DA:175,0
DA:176,0
DA:177,0
DA:178,0
DA:179,0
DA:181,0
DA:182,0
DA:184,0
DA:185,0
DA:187,0
DA:188,0
DA:189,0
DA:190,0
DA:191,0
DA:192,0
DA:193,0
DA:195,0
DA:196,0
DA:197,0
DA:199,0
DA:200,0
DA:201,0
DA:202,0
DA:203,0
DA:204,0
DA:205,0
DA:206,0
DA:207,0
DA:209,0
DA:210,0
DA:211,0
DA:213,0
DA:214,0
DA:215,0
DA:216,0
DA:217,0
DA:219,0
DA:220,0
DA:221,0
DA:222,0
DA:223,0
DA:225,0
DA:226,0
DA:227,0
DA:228,0
DA:230,0
DA:231,0
DA:232,0
DA:233,0
DA:235,0
DA:236,0
DA:237,0
DA:238,0
DA:239,0
DA:241,0
DA:243,0
DA:244,0
DA:245,0
DA:246,0
DA:248,0
DA:249,0
DA:250,0
DA:251,0
DA:252,0
DA:253,0
DA:254,0
DA:255,0
DA:256,0
DA:258,0
DA:259,0
DA:262,0
DA:263,0
DA:264,0
DA:265,0
DA:266,0
DA:267,0
DA:268,0
DA:269,0
DA:270,0
DA:271,0
DA:272,0
DA:273,0
DA:274,0
DA:275,0
DA:276,0
DA:277,0
DA:278,0
DA:279,0
DA:280,0
DA:281,0
DA:282,0
DA:283,0
DA:284,0
DA:285,0
DA:286,0
DA:287,0
DA:288,0
DA:289,0
DA:290,0
DA:291,0
DA:292,0
DA:293,0
DA:294,0
DA:295,0
DA:297,0
DA:299,0
DA:300,0
DA:301,0
DA:302,0
DA:303,0
DA:304,0
DA:305,0
DA:307,0
DA:308,0
DA:310,0
DA:312,0
DA:313,0
DA:314,0
DA:315,0
DA:316,0
DA:317,0
DA:318,0
DA:319,0
DA:320,0
DA:321,0
DA:322,0
DA:323,0
DA:324,0
DA:325,0
DA:326,0
DA:327,0
DA:330,0
DA:331,0
DA:332,0
DA:333,0
DA:334,0
DA:335,0
DA:336,0
DA:338,0
DA:339,0
DA:340,0
DA:341,0
DA:343,0
DA:344,0
DA:345,0
DA:346,0
DA:347,0
DA:348,0
DA:349,0
DA:350,0
DA:351,0
DA:352,0
DA:353,0
DA:354,0
DA:355,0
DA:357,0
DA:358,0
DA:359,0
DA:360,0
DA:361,0
DA:362,0
DA:363,0
DA:364,0
DA:366,0
DA:367,0
DA:368,0
DA:370,0
DA:371,0
DA:372,0
DA:373,0
DA:374,0
DA:375,0
DA:376,0
DA:377,0
DA:379,0
DA:380,0
DA:381,0
DA:382,0
DA:383,0
DA:384,0
DA:386,0
DA:387,0
DA:388,0
DA:389,0
DA:390,0
DA:392,0
DA:394,0
DA:395,0
DA:396,0
DA:397,0
DA:398,0
DA:399,0
DA:400,0
DA:401,0
DA:402,0
DA:403,0
DA:404,0
DA:406,0
DA:407,0
DA:408,0
DA:409,0
DA:410,0
DA:412,0
DA:414,0
DA:415,0
DA:416,0
DA:417,0
DA:418,0
DA:419,0
DA:420,0
DA:421,0
DA:424,0
DA:425,0
DA:426,0
DA:427,0
DA:428,0
DA:429,0
DA:430,0
DA:431,0
DA:433,0
DA:434,0
DA:435,0
DA:436,0
DA:438,0
DA:439,0
DA:441,0
DA:442,0
DA:444,0
DA:445,0
DA:446,0
DA:447,0
DA:448,0
DA:449,0
DA:450,0
DA:451,0
DA:452,0
DA:453,0
DA:454,0
DA:455,0
DA:456,0
DA:457,0
DA:458,0
DA:460,0
DA:461,0
DA:462,0
DA:463,0
DA:464,0
DA:465,0
DA:466,0
DA:471,0
DA:472,0
DA:473,0
DA:474,0
DA:477,0
DA:479,0
DA:480,0
DA:481,0
DA:482,0
DA:483,0
DA:484,0
DA:485,0
DA:486,0
DA:487,0
DA:489,0
DA:491,0
DA:492,0
DA:493,0
DA:494,0
DA:495,0
DA:496,0
DA:497,0
DA:498,0
DA:499,0
DA:500,0
DA:501,0
DA:502,0
DA:503,0
DA:504,0
DA:505,0
DA:506,0
DA:509,0
DA:510,0
DA:511,0
DA:512,0
DA:513,0
DA:514,0
DA:515,0
DA:517,0
DA:518,0
DA:519,0
DA:520,0
DA:522,0
DA:523,0
DA:524,0
DA:525,0
DA:526,0
DA:527,0
DA:528,0
DA:529,0
DA:531,0
DA:533,0
DA:534,0
DA:535,0
DA:536,0
DA:537,0
DA:538,0
DA:540,0
DA:541,0
DA:542,0
DA:543,0
DA:544,0
DA:546,0
DA:548,0
DA:549,0
DA:550,0
DA:551,0
DA:552,0
DA:554,0
DA:557,0
DA:558,0
DA:560,0
DA:561,0
DA:562,0
DA:563,0
DA:564,0
DA:565,0
DA:566,0
DA:569,0
DA:570,0
DA:571,0
DA:572,0
DA:573,0
DA:575,0
DA:578,0
DA:579,0
DA:581,0
DA:582,0
DA:584,0
DA:585,0
DA:586,0
DA:587,0
DA:588,0
DA:589,0
DA:590,0
DA:591,0
DA:592,0
DA:593,0
DA:594,0
DA:595,0
DA:597,0
DA:598,0
DA:599,0
DA:600,0
DA:603,0
DA:605,0
DA:606,0
DA:607,0
DA:608,0
DA:609,0
DA:610,0
DA:611,0
DA:612,0
DA:613,0
DA:614,0
DA:615,0
DA:616,0
DA:618,0
DA:619,0
DA:621,0
DA:623,0
DA:648,0
DA:649,0
DA:650,0
DA:651,0
DA:652,0
DA:653,0
DA:655,0
DA:656,0
DA:657,0
DA:658,0
DA:659,0
DA:660,0
DA:661,0
DA:663,0
DA:665,0
DA:666,0
DA:667,0
DA:668,0
DA:669,0
DA:670,0
DA:672,0
DA:673,0
DA:674,0
DA:675,0
DA:676,0
DA:677,0
DA:678,0
DA:679,0
DA:680,0
DA:681,0
DA:682,0
DA:683,0
DA:684,0
DA:685,0
DA:687,0
DA:688,0
DA:689,0
DA:690,0
DA:691,0
DA:692,0
DA:693,0
DA:694,0
DA:695,0
DA:696,0
DA:697,0
DA:698,0
DA:699,0
DA:700,0
DA:701,0
DA:702,0
DA:703,0
DA:705,0
DA:706,0
DA:707,0
DA:708,0
DA:709,0
DA:710,0
DA:711,0
DA:712,0
DA:713,0
DA:714,0
DA:715,0
DA:716,0
DA:717,0
DA:718,0
DA:719,0
DA:721,0
DA:722,0
DA:723,0
DA:724,0
DA:725,0
DA:726,0
DA:727,0
DA:728,0
DA:729,0
DA:730,0
DA:731,0
DA:732,0
DA:733,0
BRF:0
BRH:0
LF:630
LH:0
end_of_record
SF:/home/runner/_work/Gestion-inmobiliaria/Gestion-inmobiliaria/backend/src/handlers/chatbot_internal.rs
FN:35,_RNCNCNvNtNtCsjO1mwjW04O1_18realestate_backend8handlers16chatbot_internal16incoming_webhook00B9_
FN:95,_RNCNCNvNtNtCsjO1mwjW04O1_18realestate_backend8handlers16chatbot_internal16incoming_webhook0s0_0B9_
FN:132,_RNCNCNvNtNtCsjO1mwjW04O1_18realestate_backend8handlers16chatbot_internal16incoming_webhook0s2_0B9_
FN:138,_RNCNCNvNtNtCsjO1mwjW04O1_18realestate_backend8handlers16chatbot_internal16incoming_webhook0s3_0B9_
FN:150,_RNCNCNvNtNtCsjO1mwjW04O1_18realestate_backend8handlers16chatbot_internal16incoming_webhook0s4_0B9_
FN:156,_RNCNCNvNtNtCsjO1mwjW04O1_18realestate_backend8handlers16chatbot_internal16incoming_webhook0s5_0B9_
FN:168,_RNCNCNvNtNtCsjO1mwjW04O1_18realestate_backend8handlers16chatbot_internal16incoming_webhook0s6_0B9_
FN:300,_RNCNCNvNtNtCsjO1mwjW04O1_18realestate_backend8handlers16chatbot_internal16incoming_webhook0s7_0B9_
FN:69,_RNCNCNvNtNtCsjO1mwjW04O1_18realestate_backend8handlers16chatbot_internal16incoming_webhook0s_0B9_
FN:29,_RNCNvNtNtCsjO1mwjW04O1_18realestate_backend8handlers16chatbot_internal16incoming_webhook0B7_
FN:15,_RNvNtNtCsjO1mwjW04O1_18realestate_backend8handlers16chatbot_internal10hash_phone
FN:23,_RNvNtNtCsjO1mwjW04O1_18realestate_backend8handlers16chatbot_internal16incoming_webhook
FN:35,_RNCNCNvNtNtCshWAJ4lei3LP_18realestate_backend8handlers16chatbot_internal16incoming_webhook00B9_
FN:95,_RNCNCNvNtNtCshWAJ4lei3LP_18realestate_backend8handlers16chatbot_internal16incoming_webhook0s0_0B9_
FN:132,_RNCNCNvNtNtCshWAJ4lei3LP_18realestate_backend8handlers16chatbot_internal16incoming_webhook0s2_0B9_
FN:138,_RNCNCNvNtNtCshWAJ4lei3LP_18realestate_backend8handlers16chatbot_internal16incoming_webhook0s3_0B9_
FN:150,_RNCNCNvNtNtCshWAJ4lei3LP_18realestate_backend8handlers16chatbot_internal16incoming_webhook0s4_0B9_
FN:156,_RNCNCNvNtNtCshWAJ4lei3LP_18realestate_backend8handlers16chatbot_internal16incoming_webhook0s5_0B9_
FN:168,_RNCNCNvNtNtCshWAJ4lei3LP_18realestate_backend8handlers16chatbot_internal16incoming_webhook0s6_0B9_
FN:300,_RNCNCNvNtNtCshWAJ4lei3LP_18realestate_backend8handlers16chatbot_internal16incoming_webhook0s7_0B9_
FN:69,_RNCNCNvNtNtCshWAJ4lei3LP_18realestate_backend8handlers16chatbot_internal16incoming_webhook0s_0B9_
FN:29,_RNCNvNtNtCshWAJ4lei3LP_18realestate_backend8handlers16chatbot_internal16incoming_webhook0B7_
FN:15,_RNvNtNtCshWAJ4lei3LP_18realestate_backend8handlers16chatbot_internal10hash_phone
FN:23,_RNvNtNtCshWAJ4lei3LP_18realestate_backend8handlers16chatbot_internal16incoming_webhook
FN:466,_RNvNtNtNtCshWAJ4lei3LP_18realestate_backend8handlers16chatbot_internal5testss_29constant_time_eq_equal_values
FN:476,_RNvNtNtNtCshWAJ4lei3LP_18realestate_backend8handlers16chatbot_internal5testss_33constant_time_eq_different_values
FN:482,_RNvNtNtNtCshWAJ4lei3LP_18realestate_backend8handlers16chatbot_internal5testss_34constant_time_eq_different_lengths
FNDA:0,_RNCNCNvNtNtCsjO1mwjW04O1_18realestate_backend8handlers16chatbot_internal16incoming_webhook00B9_
FNDA:0,_RNCNCNvNtNtCsjO1mwjW04O1_18realestate_backend8handlers16chatbot_internal16incoming_webhook0s0_0B9_
FNDA:0,_RNCNCNvNtNtCsjO1mwjW04O1_18realestate_backend8handlers16chatbot_internal16incoming_webhook0s2_0B9_
FNDA:0,_RNCNCNvNtNtCsjO1mwjW04O1_18realestate_backend8handlers16chatbot_internal16incoming_webhook0s3_0B9_
FNDA:0,_RNCNCNvNtNtCsjO1mwjW04O1_18realestate_backend8handlers16chatbot_internal16incoming_webhook0s4_0B9_
FNDA:0,_RNCNCNvNtNtCsjO1mwjW04O1_18realestate_backend8handlers16chatbot_internal16incoming_webhook0s5_0B9_
FNDA:0,_RNCNCNvNtNtCsjO1mwjW04O1_18realestate_backend8handlers16chatbot_internal16incoming_webhook0s6_0B9_
FNDA:0,_RNCNCNvNtNtCsjO1mwjW04O1_18realestate_backend8handlers16chatbot_internal16incoming_webhook0s7_0B9_
FNDA:0,_RNCNCNvNtNtCsjO1mwjW04O1_18realestate_backend8handlers16chatbot_internal16incoming_webhook0s_0B9_
FNDA:0,_RNCNvNtNtCsjO1mwjW04O1_18realestate_backend8handlers16chatbot_internal16incoming_webhook0B7_
FNDA:0,_RNvNtNtCsjO1mwjW04O1_18realestate_backend8handlers16chatbot_internal10hash_phone
FNDA:0,_RNvNtNtCsjO1mwjW04O1_18realestate_backend8handlers16chatbot_internal16incoming_webhook
FNDA:0,_RNCNCNvNtNtCshWAJ4lei3LP_18realestate_backend8handlers16chatbot_internal16incoming_webhook00B9_
FNDA:0,_RNCNCNvNtNtCshWAJ4lei3LP_18realestate_backend8handlers16chatbot_internal16incoming_webhook0s0_0B9_
FNDA:0,_RNCNCNvNtNtCshWAJ4lei3LP_18realestate_backend8handlers16chatbot_internal16incoming_webhook0s2_0B9_
FNDA:0,_RNCNCNvNtNtCshWAJ4lei3LP_18realestate_backend8handlers16chatbot_internal16incoming_webhook0s3_0B9_
FNDA:0,_RNCNCNvNtNtCshWAJ4lei3LP_18realestate_backend8handlers16chatbot_internal16incoming_webhook0s4_0B9_
FNDA:0,_RNCNCNvNtNtCshWAJ4lei3LP_18realestate_backend8handlers16chatbot_internal16incoming_webhook0s5_0B9_
FNDA:0,_RNCNCNvNtNtCshWAJ4lei3LP_18realestate_backend8handlers16chatbot_internal16incoming_webhook0s6_0B9_
FNDA:0,_RNCNCNvNtNtCshWAJ4lei3LP_18realestate_backend8handlers16chatbot_internal16incoming_webhook0s7_0B9_
FNDA:0,_RNCNCNvNtNtCshWAJ4lei3LP_18realestate_backend8handlers16chatbot_internal16incoming_webhook0s_0B9_
FNDA:0,_RNCNvNtNtCshWAJ4lei3LP_18realestate_backend8handlers16chatbot_internal16incoming_webhook0B7_
FNDA:0,_RNvNtNtCshWAJ4lei3LP_18realestate_backend8handlers16chatbot_internal10hash_phone
FNDA:0,_RNvNtNtCshWAJ4lei3LP_18realestate_backend8handlers16chatbot_internal16incoming_webhook
FNDA:1,_RNvNtNtNtCshWAJ4lei3LP_18realestate_backend8handlers16chatbot_internal5testss_29constant_time_eq_equal_values
FNDA:1,_RNvNtNtNtCshWAJ4lei3LP_18realestate_backend8handlers16chatbot_internal5testss_33constant_time_eq_different_values
FNDA:1,_RNvNtNtNtCshWAJ4lei3LP_18realestate_backend8handlers16chatbot_internal5testss_34constant_time_eq_different_lengths
FNF:15
FNH:3
DA:15,0
DA:17,0
DA:18,0
DA:19,0
DA:20,0
DA:23,0
DA:24,0
DA:25,0
DA:26,0
DA:27,0
DA:28,0
DA:29,0
DA:30,0
DA:32,0
DA:33,0
DA:34,0
DA:35,0
DA:37,0
DA:38,0
DA:39,0
DA:42,0
DA:43,0
DA:44,0
DA:45,0
DA:46,0
DA:47,0
DA:48,0
DA:50,0
DA:51,0
DA:53,0
DA:55,0
DA:56,0
DA:57,0
DA:58,0
DA:60,0
DA:61,0
DA:62,0
DA:63,0
DA:65,0
DA:66,0
DA:67,0
DA:68,0
DA:69,0
DA:70,0
DA:72,0
DA:73,0
DA:74,0
DA:75,0
DA:76,0
DA:77,0
DA:78,0
DA:79,0
DA:81,0
DA:82,0
DA:84,0
DA:88,0
DA:89,0
DA:90,0
DA:92,0
DA:94,0
DA:95,0
DA:96,0
DA:97,0
DA:99,0
DA:100,0
DA:102,0
DA:103,0
DA:104,0
DA:105,0
DA:106,0
DA:107,0
DA:108,0
DA:109,0
DA:110,0
DA:111,0
DA:112,0
DA:113,0
DA:115,0
DA:117,0
DA:121,0
DA:122,0
DA:124,0
DA:125,0
DA:126,0
DA:128,0
DA:129,0
DA:130,0
DA:131,0
DA:132,0
DA:133,0
DA:134,0
DA:135,0
DA:137,0
DA:138,0
DA:140,0
DA:141,0
DA:142,0
DA:143,0
DA:144,0
DA:145,0
DA:147,0
DA:148,0
DA:149,0
DA:150,0
DA:151,0
DA:153,0
DA:154,0
DA:155,0
DA:156,0
DA:157,0
DA:158,0
DA:159,0
DA:160,0
DA:161,0
DA:162,0
DA:163,0
DA:165,0
DA:166,0
DA:167,0
DA:168,0
DA:169,0
DA:171,0
DA:172,0
DA:173,0
DA:174,0
DA:176,0
DA:180,0
DA:181,0
DA:183,0
DA:184,0
DA:185,0
DA:186,0
DA:187,0
DA:188,0
DA:189,0
DA:190,0
DA:191,0
DA:192,0
DA:193,0
DA:194,0
DA:195,0
DA:196,0
DA:197,0
DA:199,0
DA:201,0
DA:202,0
DA:203,0
DA:204,0
DA:205,0
DA:206,0
DA:207,0
DA:208,0
DA:209,0
DA:210,0
DA:211,0
DA:212,0
DA:213,0
DA:215,0
DA:216,0
DA:217,0
DA:218,0
DA:219,0
DA:220,0
DA:221,0
DA:222,0
DA:223,0
DA:224,0
DA:225,0
DA:227,0
DA:228,0
DA:229,0
DA:231,0
DA:232,0
DA:233,0
DA:234,0
DA:235,0
DA:236,0
DA:238,0
DA:240,0
DA:245,0
DA:246,0
DA:247,0
DA:249,0
DA:251,0
DA:252,0
DA:253,0
DA:254,0
DA:255,0
DA:256,0
DA:257,0
DA:258,0
DA:259,0
DA:260,0
DA:261,0
DA:262,0
DA:264,0
DA:265,0
DA:267,0
DA:268,0
DA:269,0
DA:270,0
DA:271,0
DA:273,0
DA:274,0
DA:275,0
DA:276,0
DA:277,0
DA:278,0
DA:279,0
DA:280,0
DA:281,0
DA:283,0
DA:285,0
DA:286,0
DA:287,0
DA:288,0
DA:289,0
DA:290,0
DA:291,0
DA:292,0
DA:293,0
DA:294,0
DA:295,0
DA:296,0
DA:297,0
DA:298,0
DA:300,0
DA:301,0
DA:302,0
DA:304,0
DA:305,0
DA:306,0
DA:308,0
DA:309,0
DA:310,0
DA:311,0
DA:312,0
DA:313,0
DA:314,0
DA:315,0
DA:316,0
DA:317,0
DA:318,0
DA:319,0
DA:320,0
DA:321,0
DA:322,0
DA:324,0
DA:325,0
DA:326,0
DA:327,0
DA:328,0
DA:329,0
DA:330,0
DA:331,0
DA:332,0
DA:333,0
DA:334,0
DA:336,0
DA:338,0
DA:339,0
DA:340,0
DA:342,0
DA:343,0
DA:344,0
DA:346,0
DA:347,0
DA:348,0
DA:349,0
DA:350,0
DA:351,0
DA:353,0
DA:354,0
DA:355,0
DA:357,0
DA:358,0
DA:359,0
DA:360,0
DA:362,0
DA:364,0
DA:367,0
DA:370,0
DA:372,0
DA:377,0
DA:378,0
DA:383,0
DA:388,0
DA:389,0
DA:391,0
DA:392,0
DA:393,0
DA:394,0
DA:395,0
DA:396,0
DA:397,0
DA:398,0
DA:399,0
DA:401,0
DA:403,0
DA:404,0
DA:405,0
DA:407,0
DA:408,0
DA:409,0
DA:410,0
DA:411,0
DA:413,0
DA:415,0
DA:416,0
DA:422,0
DA:423,0
DA:424,0
DA:425,0
DA:426,0
DA:427,0
DA:428,0
DA:429,0
DA:430,0
DA:432,0
DA:434,0
DA:435,0
DA:436,0
DA:440,0
DA:441,0
DA:442,0
DA:443,0
DA:445,0
DA:450,0
DA:452,0
DA:458,0
DA:459,0
DA:466,1
DA:467,1
DA:468,1
DA:469,1
DA:470,1
DA:471,1
DA:473,1
DA:476,1
DA:477,1
DA:478,1
DA:479,1
DA:482,1
DA:483,1
DA:484,1
DA:485,1
BRF:0
BRH:0
LF:354
LH:15
end_of_record
SF:/home/runner/_work/Gestion-inmobiliaria/Gestion-inmobiliaria/backend/src/handlers/condominios.rs
FN:14,_RNCNvNtNtCsjO1mwjW04O1_18realestate_backend8handlers11condominios19crear_cuota_handler0B7_
FN:40,_RNCNvNtNtCsjO1mwjW04O1_18realestate_backend8handlers11condominios21listar_cuotas_handler0B7_
FN:51,_RNCNvNtNtCsjO1mwjW04O1_18realestate_backend8handlers11condominios22eliminar_cuota_handler0B7_
FN:28,_RNCNvNtNtCsjO1mwjW04O1_18realestate_backend8handlers11condominios24actualizar_cuota_handler0B7_
FN:9,_RNvNtNtCsjO1mwjW04O1_18realestate_backend8handlers11condominios19crear_cuota_handler
FN:36,_RNvNtNtCsjO1mwjW04O1_18realestate_backend8handlers11condominios21listar_cuotas_handler
FN:47,_RNvNtNtCsjO1mwjW04O1_18realestate_backend8handlers11condominios22eliminar_cuota_handler
FN:23,_RNvNtNtCsjO1mwjW04O1_18realestate_backend8handlers11condominios24actualizar_cuota_handler
FN:14,_RNCNvNtNtCshWAJ4lei3LP_18realestate_backend8handlers11condominios19crear_cuota_handler0B7_
FN:40,_RNCNvNtNtCshWAJ4lei3LP_18realestate_backend8handlers11condominios21listar_cuotas_handler0B7_
FN:51,_RNCNvNtNtCshWAJ4lei3LP_18realestate_backend8handlers11condominios22eliminar_cuota_handler0B7_
FN:28,_RNCNvNtNtCshWAJ4lei3LP_18realestate_backend8handlers11condominios24actualizar_cuota_handler0B7_
FN:9,_RNvNtNtCshWAJ4lei3LP_18realestate_backend8handlers11condominios19crear_cuota_handler
FN:36,_RNvNtNtCshWAJ4lei3LP_18realestate_backend8handlers11condominios21listar_cuotas_handler
FN:47,_RNvNtNtCshWAJ4lei3LP_18realestate_backend8handlers11condominios22eliminar_cuota_handler
FN:23,_RNvNtNtCshWAJ4lei3LP_18realestate_backend8handlers11condominios24actualizar_cuota_handler
FNDA:0,_RNCNvNtNtCsjO1mwjW04O1_18realestate_backend8handlers11condominios19crear_cuota_handler0B7_
FNDA:0,_RNCNvNtNtCsjO1mwjW04O1_18realestate_backend8handlers11condominios21listar_cuotas_handler0B7_
FNDA:0,_RNCNvNtNtCsjO1mwjW04O1_18realestate_backend8handlers11condominios22eliminar_cuota_handler0B7_
FNDA:0,_RNCNvNtNtCsjO1mwjW04O1_18realestate_backend8handlers11condominios24actualizar_cuota_handler0B7_
FNDA:0,_RNvNtNtCsjO1mwjW04O1_18realestate_backend8handlers11condominios19crear_cuota_handler
FNDA:0,_RNvNtNtCsjO1mwjW04O1_18realestate_backend8handlers11condominios21listar_cuotas_handler
FNDA:0,_RNvNtNtCsjO1mwjW04O1_18realestate_backend8handlers11condominios22eliminar_cuota_handler
FNDA:0,_RNvNtNtCsjO1mwjW04O1_18realestate_backend8handlers11condominios24actualizar_cuota_handler
FNDA:0,_RNCNvNtNtCshWAJ4lei3LP_18realestate_backend8handlers11condominios19crear_cuota_handler0B7_
FNDA:0,_RNCNvNtNtCshWAJ4lei3LP_18realestate_backend8handlers11condominios21listar_cuotas_handler0B7_
FNDA:0,_RNCNvNtNtCshWAJ4lei3LP_18realestate_backend8handlers11condominios22eliminar_cuota_handler0B7_
FNDA:0,_RNCNvNtNtCshWAJ4lei3LP_18realestate_backend8handlers11condominios24actualizar_cuota_handler0B7_
FNDA:0,_RNvNtNtCshWAJ4lei3LP_18realestate_backend8handlers11condominios19crear_cuota_handler
FNDA:0,_RNvNtNtCshWAJ4lei3LP_18realestate_backend8handlers11condominios21listar_cuotas_handler
FNDA:0,_RNvNtNtCshWAJ4lei3LP_18realestate_backend8handlers11condominios22eliminar_cuota_handler
FNDA:0,_RNvNtNtCshWAJ4lei3LP_18realestate_backend8handlers11condominios24actualizar_cuota_handler
FNF:8
FNH:0
DA:9,0
DA:10,0
DA:11,0
DA:12,0
DA:13,0
DA:14,0
DA:15,0
DA:16,0
DA:17,0
DA:18,0
DA:19,0
DA:20,0
DA:21,0
DA:23,0
DA:24,0
DA:25,0
DA:26,0
DA:27,0
DA:28,0
DA:29,0
DA:30,0
DA:31,0
DA:32,0
DA:33,0
DA:34,0
DA:36,0
DA:37,0
DA:38,0
DA:39,0
DA:40,0
DA:41,0
DA:42,0
DA:43,0
DA:44,0
DA:45,0
DA:47,0
DA:48,0
DA:49,0
DA:50,0
DA:51,0
DA:52,0
DA:53,0
DA:54,0
DA:55,0
DA:56,0
BRF:0
BRH:0
LF:49
LH:0
end_of_record
SF:/home/runner/_work/Gestion-inmobiliaria/Gestion-inmobiliaria/backend/src/handlers/configuracion.rs
FN:14,_RNCNvNtNtCsjO1mwjW04O1_18realestate_backend8handlers13configuracion14obtener_moneda0B7_
FN:23,_RNCNvNtNtCsjO1mwjW04O1_18realestate_backend8handlers13configuracion17actualizar_moneda0B7_
FN:42,_RNCNvNtNtCsjO1mwjW04O1_18realestate_backend8handlers13configuracion23obtener_recargo_defecto0B7_
FN:52,_RNCNvNtNtCsjO1mwjW04O1_18realestate_backend8handlers13configuracion26actualizar_recargo_defecto0B7_
FN:11,_RNvNtNtCsjO1mwjW04O1_18realestate_backend8handlers13configuracion14obtener_moneda
FN:19,_RNvNtNtCsjO1mwjW04O1_18realestate_backend8handlers13configuracion17actualizar_moneda
FN:39,_RNvNtNtCsjO1mwjW04O1_18realestate_backend8handlers13configuracion23obtener_recargo_defecto
FN:48,_RNvNtNtCsjO1mwjW04O1_18realestate_backend8handlers13configuracion26actualizar_recargo_defecto
FN:11,_RNvNtNtCshWAJ4lei3LP_18realestate_backend8handlers13configuracion14obtener_moneda
FN:19,_RNvNtNtCshWAJ4lei3LP_18realestate_backend8handlers13configuracion17actualizar_moneda
FN:39,_RNvNtNtCshWAJ4lei3LP_18realestate_backend8handlers13configuracion23obtener_recargo_defecto
FN:48,_RNvNtNtCshWAJ4lei3LP_18realestate_backend8handlers13configuracion26actualizar_recargo_defecto
FN:14,_RNCNvNtNtCshWAJ4lei3LP_18realestate_backend8handlers13configuracion14obtener_moneda0B7_
FN:23,_RNCNvNtNtCshWAJ4lei3LP_18realestate_backend8handlers13configuracion17actualizar_moneda0B7_
FN:42,_RNCNvNtNtCshWAJ4lei3LP_18realestate_backend8handlers13configuracion23obtener_recargo_defecto0B7_
FN:52,_RNCNvNtNtCshWAJ4lei3LP_18realestate_backend8handlers13configuracion26actualizar_recargo_defecto0B7_
FNDA:0,_RNCNvNtNtCsjO1mwjW04O1_18realestate_backend8handlers13configuracion14obtener_moneda0B7_
FNDA:0,_RNCNvNtNtCsjO1mwjW04O1_18realestate_backend8handlers13configuracion17actualizar_moneda0B7_
FNDA:0,_RNCNvNtNtCsjO1mwjW04O1_18realestate_backend8handlers13configuracion23obtener_recargo_defecto0B7_
FNDA:0,_RNCNvNtNtCsjO1mwjW04O1_18realestate_backend8handlers13configuracion26actualizar_recargo_defecto0B7_
FNDA:0,_RNvNtNtCsjO1mwjW04O1_18realestate_backend8handlers13configuracion14obtener_moneda
FNDA:0,_RNvNtNtCsjO1mwjW04O1_18realestate_backend8handlers13configuracion17actualizar_moneda
FNDA:0,_RNvNtNtCsjO1mwjW04O1_18realestate_backend8handlers13configuracion23obtener_recargo_defecto
FNDA:0,_RNvNtNtCsjO1mwjW04O1_18realestate_backend8handlers13configuracion26actualizar_recargo_defecto
FNDA:0,_RNvNtNtCshWAJ4lei3LP_18realestate_backend8handlers13configuracion14obtener_moneda
FNDA:0,_RNvNtNtCshWAJ4lei3LP_18realestate_backend8handlers13configuracion17actualizar_moneda
FNDA:0,_RNvNtNtCshWAJ4lei3LP_18realestate_backend8handlers13configuracion23obtener_recargo_defecto
FNDA:0,_RNvNtNtCshWAJ4lei3LP_18realestate_backend8handlers13configuracion26actualizar_recargo_defecto
FNDA:0,_RNCNvNtNtCshWAJ4lei3LP_18realestate_backend8handlers13configuracion14obtener_moneda0B7_
FNDA:0,_RNCNvNtNtCshWAJ4lei3LP_18realestate_backend8handlers13configuracion17actualizar_moneda0B7_
FNDA:0,_RNCNvNtNtCshWAJ4lei3LP_18realestate_backend8handlers13configuracion23obtener_recargo_defecto0B7_
FNDA:0,_RNCNvNtNtCshWAJ4lei3LP_18realestate_backend8handlers13configuracion26actualizar_recargo_defecto0B7_
FNF:8
FNH:0
DA:11,0
DA:12,0
DA:13,0
DA:14,0
DA:15,0
DA:16,0
DA:17,0
DA:19,0
DA:20,0
DA:21,0
DA:22,0
DA:23,0
DA:24,0
DA:25,0
DA:26,0
DA:27,0
DA:28,0
DA:29,0
DA:30,0
DA:31,0
DA:32,0
DA:33,0
DA:35,0
DA:36,0
DA:37,0
DA:39,0
DA:40,0
DA:41,0
DA:42,0
DA:43,0
DA:44,0
DA:45,0
DA:46,0
DA:48,0
DA:49,0
DA:50,0
DA:51,0
DA:52,0
DA:53,0
DA:54,0
DA:55,0
DA:56,0
DA:57,0
DA:58,0
DA:59,0
DA:60,0
DA:61,0
DA:62,0
DA:64,0
DA:65,0
DA:66,0
DA:67,0
DA:68,0
BRF:0
BRH:0
LF:57
LH:0
end_of_record
SF:/home/runner/_work/Gestion-inmobiliaria/Gestion-inmobiliaria/backend/src/handlers/contratos.rs
FN:205,_RNCNCNvNtNtCsjO1mwjW04O1_18realestate_backend8handlers9contratos13preview_pagos0s_0B9_
FN:165,_RNCNvNtNtCsjO1mwjW04O1_18realestate_backend8handlers9contratos10por_vencer0B7_
FN:228,_RNCNvNtNtCsjO1mwjW04O1_18realestate_backend8handlers9contratos13generar_pagos0B7_
FN:176,_RNCNvNtNtCsjO1mwjW04O1_18realestate_backend8handlers9contratos13preview_pagos0B7_
FN:321,_RNCNvNtNtCsjO1mwjW04O1_18realestate_backend8handlers9contratos18sugerir_renovacion0B7_
FN:303,_RNCNvNtNtCsjO1mwjW04O1_18realestate_backend8handlers9contratos23cambiar_estado_deposito0B7_
FN:68,_RNCNvNtNtCsjO1mwjW04O1_18realestate_backend8handlers9contratos4list0B7_
FN:88,_RNCNvNtNtCsjO1mwjW04O1_18realestate_backend8handlers9contratos6create0B7_
FN:115,_RNCNvNtNtCsjO1mwjW04O1_18realestate_backend8handlers9contratos6delete0B7_
FN:101,_RNCNvNtNtCsjO1mwjW04O1_18realestate_backend8handlers9contratos6update0B7_
FN:128,_RNCNvNtNtCsjO1mwjW04O1_18realestate_backend8handlers9contratos7renovar0B7_
FN:147,_RNCNvNtNtCsjO1mwjW04O1_18realestate_backend8handlers9contratos8terminar0B7_
FN:78,_RNCNvNtNtCsjO1mwjW04O1_18realestate_backend8handlers9contratos9get_by_id0B7_
FN:161,_RNvNtNtCsjO1mwjW04O1_18realestate_backend8handlers9contratos10por_vencer
FN:223,_RNvNtNtCsjO1mwjW04O1_18realestate_backend8handlers9contratos13generar_pagos
FN:171,_RNvNtNtCsjO1mwjW04O1_18realestate_backend8handlers9contratos13preview_pagos
FN:317,_RNvNtNtCsjO1mwjW04O1_18realestate_backend8handlers9contratos18sugerir_renovacion
FN:298,_RNvNtNtCsjO1mwjW04O1_18realestate_backend8handlers9contratos23cambiar_estado_deposito
FN:23,_RNvNtNtCsjO1mwjW04O1_18realestate_backend8handlers9contratos24validate_create_contrato
FN:45,_RNvNtNtCsjO1mwjW04O1_18realestate_backend8handlers9contratos24validate_update_contrato
FN:64,_RNvNtNtCsjO1mwjW04O1_18realestate_backend8handlers9contratos4list
FN:84,_RNvNtNtCsjO1mwjW04O1_18realestate_backend8handlers9contratos6create
FN:111,_RNvNtNtCsjO1mwjW04O1_18realestate_backend8handlers9contratos6delete
FN:96,_RNvNtNtCsjO1mwjW04O1_18realestate_backend8handlers9contratos6update
FN:123,_RNvNtNtCsjO1mwjW04O1_18realestate_backend8handlers9contratos7renovar
FN:142,_RNvNtNtCsjO1mwjW04O1_18realestate_backend8handlers9contratos8terminar
FN:74,_RNvNtNtCsjO1mwjW04O1_18realestate_backend8handlers9contratos9get_by_id
FN:205,_RNCNCNvNtNtCshWAJ4lei3LP_18realestate_backend8handlers9contratos13preview_pagos0s_0B9_
FN:165,_RNCNvNtNtCshWAJ4lei3LP_18realestate_backend8handlers9contratos10por_vencer0B7_
FN:228,_RNCNvNtNtCshWAJ4lei3LP_18realestate_backend8handlers9contratos13generar_pagos0B7_
FN:176,_RNCNvNtNtCshWAJ4lei3LP_18realestate_backend8handlers9contratos13preview_pagos0B7_
FN:321,_RNCNvNtNtCshWAJ4lei3LP_18realestate_backend8handlers9contratos18sugerir_renovacion0B7_
FN:303,_RNCNvNtNtCshWAJ4lei3LP_18realestate_backend8handlers9contratos23cambiar_estado_deposito0B7_
FN:68,_RNCNvNtNtCshWAJ4lei3LP_18realestate_backend8handlers9contratos4list0B7_
FN:88,_RNCNvNtNtCshWAJ4lei3LP_18realestate_backend8handlers9contratos6create0B7_
FN:115,_RNCNvNtNtCshWAJ4lei3LP_18realestate_backend8handlers9contratos6delete0B7_
FN:101,_RNCNvNtNtCshWAJ4lei3LP_18realestate_backend8handlers9contratos6update0B7_
FN:128,_RNCNvNtNtCshWAJ4lei3LP_18realestate_backend8handlers9contratos7renovar0B7_
FN:147,_RNCNvNtNtCshWAJ4lei3LP_18realestate_backend8handlers9contratos8terminar0B7_
FN:78,_RNCNvNtNtCshWAJ4lei3LP_18realestate_backend8handlers9contratos9get_by_id0B7_
FN:23,_RNvNtNtCshWAJ4lei3LP_18realestate_backend8handlers9contratos24validate_create_contrato
FN:45,_RNvNtNtCshWAJ4lei3LP_18realestate_backend8handlers9contratos24validate_update_contrato
FN:161,_RNvNtNtCshWAJ4lei3LP_18realestate_backend8handlers9contratos10por_vencer
FN:223,_RNvNtNtCshWAJ4lei3LP_18realestate_backend8handlers9contratos13generar_pagos
FN:171,_RNvNtNtCshWAJ4lei3LP_18realestate_backend8handlers9contratos13preview_pagos
FN:317,_RNvNtNtCshWAJ4lei3LP_18realestate_backend8handlers9contratos18sugerir_renovacion
FN:298,_RNvNtNtCshWAJ4lei3LP_18realestate_backend8handlers9contratos23cambiar_estado_deposito
FN:64,_RNvNtNtCshWAJ4lei3LP_18realestate_backend8handlers9contratos4list
FN:84,_RNvNtNtCshWAJ4lei3LP_18realestate_backend8handlers9contratos6create
FN:111,_RNvNtNtCshWAJ4lei3LP_18realestate_backend8handlers9contratos6delete
FN:96,_RNvNtNtCshWAJ4lei3LP_18realestate_backend8handlers9contratos6update
FN:123,_RNvNtNtCshWAJ4lei3LP_18realestate_backend8handlers9contratos7renovar
FN:142,_RNvNtNtCshWAJ4lei3LP_18realestate_backend8handlers9contratos8terminar
FN:74,_RNvNtNtCshWAJ4lei3LP_18realestate_backend8handlers9contratos9get_by_id
FNDA:0,_RNCNCNvNtNtCsjO1mwjW04O1_18realestate_backend8handlers9contratos13preview_pagos0s_0B9_
FNDA:0,_RNCNvNtNtCsjO1mwjW04O1_18realestate_backend8handlers9contratos10por_vencer0B7_
FNDA:0,_RNCNvNtNtCsjO1mwjW04O1_18realestate_backend8handlers9contratos13generar_pagos0B7_
FNDA:0,_RNCNvNtNtCsjO1mwjW04O1_18realestate_backend8handlers9contratos13preview_pagos0B7_
FNDA:0,_RNCNvNtNtCsjO1mwjW04O1_18realestate_backend8handlers9contratos18sugerir_renovacion0B7_
FNDA:0,_RNCNvNtNtCsjO1mwjW04O1_18realestate_backend8handlers9contratos23cambiar_estado_deposito0B7_
FNDA:0,_RNCNvNtNtCsjO1mwjW04O1_18realestate_backend8handlers9contratos4list0B7_
FNDA:0,_RNCNvNtNtCsjO1mwjW04O1_18realestate_backend8handlers9contratos6create0B7_
FNDA:0,_RNCNvNtNtCsjO1mwjW04O1_18realestate_backend8handlers9contratos6delete0B7_
FNDA:0,_RNCNvNtNtCsjO1mwjW04O1_18realestate_backend8handlers9contratos6update0B7_
FNDA:0,_RNCNvNtNtCsjO1mwjW04O1_18realestate_backend8handlers9contratos7renovar0B7_
FNDA:0,_RNCNvNtNtCsjO1mwjW04O1_18realestate_backend8handlers9contratos8terminar0B7_
FNDA:0,_RNCNvNtNtCsjO1mwjW04O1_18realestate_backend8handlers9contratos9get_by_id0B7_
FNDA:0,_RNvNtNtCsjO1mwjW04O1_18realestate_backend8handlers9contratos10por_vencer
FNDA:0,_RNvNtNtCsjO1mwjW04O1_18realestate_backend8handlers9contratos13generar_pagos
FNDA:0,_RNvNtNtCsjO1mwjW04O1_18realestate_backend8handlers9contratos13preview_pagos
FNDA:0,_RNvNtNtCsjO1mwjW04O1_18realestate_backend8handlers9contratos18sugerir_renovacion
FNDA:0,_RNvNtNtCsjO1mwjW04O1_18realestate_backend8handlers9contratos23cambiar_estado_deposito
FNDA:0,_RNvNtNtCsjO1mwjW04O1_18realestate_backend8handlers9contratos24validate_create_contrato
FNDA:0,_RNvNtNtCsjO1mwjW04O1_18realestate_backend8handlers9contratos24validate_update_contrato
FNDA:0,_RNvNtNtCsjO1mwjW04O1_18realestate_backend8handlers9contratos4list
FNDA:0,_RNvNtNtCsjO1mwjW04O1_18realestate_backend8handlers9contratos6create
FNDA:0,_RNvNtNtCsjO1mwjW04O1_18realestate_backend8handlers9contratos6delete
FNDA:0,_RNvNtNtCsjO1mwjW04O1_18realestate_backend8handlers9contratos6update
FNDA:0,_RNvNtNtCsjO1mwjW04O1_18realestate_backend8handlers9contratos7renovar
FNDA:0,_RNvNtNtCsjO1mwjW04O1_18realestate_backend8handlers9contratos8terminar
FNDA:0,_RNvNtNtCsjO1mwjW04O1_18realestate_backend8handlers9contratos9get_by_id
FNDA:0,_RNCNCNvNtNtCshWAJ4lei3LP_18realestate_backend8handlers9contratos13preview_pagos0s_0B9_
FNDA:0,_RNCNvNtNtCshWAJ4lei3LP_18realestate_backend8handlers9contratos10por_vencer0B7_
FNDA:0,_RNCNvNtNtCshWAJ4lei3LP_18realestate_backend8handlers9contratos13generar_pagos0B7_
FNDA:0,_RNCNvNtNtCshWAJ4lei3LP_18realestate_backend8handlers9contratos13preview_pagos0B7_
FNDA:0,_RNCNvNtNtCshWAJ4lei3LP_18realestate_backend8handlers9contratos18sugerir_renovacion0B7_
FNDA:0,_RNCNvNtNtCshWAJ4lei3LP_18realestate_backend8handlers9contratos23cambiar_estado_deposito0B7_
FNDA:0,_RNCNvNtNtCshWAJ4lei3LP_18realestate_backend8handlers9contratos4list0B7_
FNDA:0,_RNCNvNtNtCshWAJ4lei3LP_18realestate_backend8handlers9contratos6create0B7_
FNDA:0,_RNCNvNtNtCshWAJ4lei3LP_18realestate_backend8handlers9contratos6delete0B7_
FNDA:0,_RNCNvNtNtCshWAJ4lei3LP_18realestate_backend8handlers9contratos6update0B7_
FNDA:0,_RNCNvNtNtCshWAJ4lei3LP_18realestate_backend8handlers9contratos7renovar0B7_
FNDA:0,_RNCNvNtNtCshWAJ4lei3LP_18realestate_backend8handlers9contratos8terminar0B7_
FNDA:0,_RNCNvNtNtCshWAJ4lei3LP_18realestate_backend8handlers9contratos9get_by_id0B7_
FNDA:0,_RNvNtNtCshWAJ4lei3LP_18realestate_backend8handlers9contratos24validate_create_contrato
FNDA:0,_RNvNtNtCshWAJ4lei3LP_18realestate_backend8handlers9contratos24validate_update_contrato
FNDA:0,_RNvNtNtCshWAJ4lei3LP_18realestate_backend8handlers9contratos10por_vencer
FNDA:0,_RNvNtNtCshWAJ4lei3LP_18realestate_backend8handlers9contratos13generar_pagos
FNDA:0,_RNvNtNtCshWAJ4lei3LP_18realestate_backend8handlers9contratos13preview_pagos
FNDA:0,_RNvNtNtCshWAJ4lei3LP_18realestate_backend8handlers9contratos18sugerir_renovacion
FNDA:0,_RNvNtNtCshWAJ4lei3LP_18realestate_backend8handlers9contratos23cambiar_estado_deposito
FNDA:0,_RNvNtNtCshWAJ4lei3LP_18realestate_backend8handlers9contratos4list
FNDA:0,_RNvNtNtCshWAJ4lei3LP_18realestate_backend8handlers9contratos6create
FNDA:0,_RNvNtNtCshWAJ4lei3LP_18realestate_backend8handlers9contratos6delete
FNDA:0,_RNvNtNtCshWAJ4lei3LP_18realestate_backend8handlers9contratos6update
FNDA:0,_RNvNtNtCshWAJ4lei3LP_18realestate_backend8handlers9contratos7renovar
FNDA:0,_RNvNtNtCshWAJ4lei3LP_18realestate_backend8handlers9contratos8terminar
FNDA:0,_RNvNtNtCshWAJ4lei3LP_18realestate_backend8handlers9contratos9get_by_id
FNF:27
FNH:0
DA:23,0
DA:24,0
DA:25,0
DA:26,0
DA:27,0
DA:28,0
DA:29,0
DA:30,0
DA:31,0
DA:32,0
DA:33,0
DA:34,0
DA:35,0
DA:36,0
DA:37,0
DA:38,0
DA:39,0
DA:40,0
DA:41,0
DA:42,0
DA:43,0
DA:45,0
DA:46,0
DA:47,0
DA:48,0
DA:49,0
DA:50,0
DA:51,0
DA:52,0
DA:53,0
DA:54,0
DA:55,0
DA:56,0
DA:57,0
DA:58,0
DA:59,0
DA:60,0
DA:61,0
DA:62,0
DA:64,0
DA:65,0
DA:66,0
DA:67,0
DA:68,0
DA:69,0
DA:70,0
DA:71,0
DA:72,0
DA:74,0
DA:75,0
DA:76,0
DA:77,0
DA:78,0
DA:79,0
DA:80,0
DA:81,0
DA:82,0
DA:84,0
DA:85,0
DA:86,0
DA:87,0
DA:88,0
DA:89,0
DA:90,0
DA:91,0
DA:92,0
DA:93,0
DA:94,0
DA:96,0
DA:97,0
DA:98,0
DA:99,0
DA:100,0
DA:101,0
DA:102,0
DA:103,0
DA:104,0
DA:105,0
DA:106,0
DA:107,0
DA:108,0
DA:109,0
DA:111,0
DA:112,0
DA:113,0
DA:114,0
DA:115,0
DA:116,0
DA:117,0
DA:118,0
DA:119,0
DA:120,0
DA:121,0
DA:123,0
DA:124,0
DA:125,0
DA:126,0
DA:127,0
DA:128,0
DA:129,0
DA:130,0
DA:131,0
DA:132,0
DA:133,0
DA:134,0
DA:135,0
DA:136,0
DA:137,0
DA:138,0
DA:139,0
DA:140,0
DA:142,0
DA:143,0
DA:144,0
DA:145,0
DA:146,0
DA:147,0
DA:148,0
DA:149,0
DA:150,0
DA:151,0
DA:152,0
DA:153,0
DA:154,0
DA:155,0
DA:156,0
DA:157,0
DA:158,0
DA:159,0
DA:161,0
DA:162,0
DA:163,0
DA:164,0
DA:165,0
DA:166,0
DA:167,0
DA:168,0
DA:169,0
DA:171,0
DA:172,0
DA:173,0
DA:174,0
DA:175,0
DA:176,0
DA:177,0
DA:178,0
DA:180,0
DA:181,0
DA:182,0
DA:184,0
DA:185,0
DA:186,0
DA:187,0
DA:188,0
DA:189,0
DA:192,0
DA:193,0
DA:195,0
DA:197,0
DA:198,0
DA:199,0
DA:200,0
DA:202,0
DA:203,0
DA:204,0
DA:205,0
DA:206,0
DA:207,0
DA:208,0
DA:209,0
DA:211,0
DA:212,0
DA:213,0
DA:214,0
DA:215,0
DA:216,0
DA:217,0
DA:218,0
DA:220,0
DA:221,0
DA:223,0
DA:224,0
DA:225,0
DA:226,0
DA:227,0
DA:228,0
DA:229,0
DA:230,0
DA:231,0
DA:232,0
DA:234,0
DA:235,0
DA:236,0
DA:237,0
DA:239,0
DA:241,0
DA:243,0
DA:244,0
DA:245,0
DA:246,0
DA:247,0
DA:249,0
DA:250,0
DA:251,0
DA:252,0
DA:253,0
DA:254,0
DA:257,0
DA:259,0
DA:261,0
DA:262,0
DA:263,0
DA:264,0
DA:265,0
DA:266,0
DA:267,0
DA:269,0
DA:270,0
DA:271,0
DA:272,0
DA:273,0
DA:274,0
DA:275,0
DA:276,0
DA:277,0
DA:278,0
DA:279,0
DA:280,0
DA:281,0
DA:282,0
DA:284,0
DA:286,0
DA:287,0
DA:289,0
DA:290,0
DA:291,0
DA:292,0
DA:293,0
DA:295,0
DA:296,0
DA:298,0
DA:299,0
DA:300,0
DA:301,0
DA:302,0
DA:303,0
DA:304,0
DA:305,0
DA:306,0
DA:307,0
DA:308,0
DA:309,0
DA:310,0
DA:311,0
DA:312,0
DA:313,0
DA:314,0
DA:315,0
DA:317,0
DA:318,0
DA:319,0
DA:320,0
DA:321,0
DA:322,0
DA:323,0
DA:324,0
DA:325,0
BRF:0
BRH:0
LF:279
LH:0
end_of_record
SF:/home/runner/_work/Gestion-inmobiliaria/Gestion-inmobiliaria/backend/src/handlers/dashboard.rs
FN:44,_RNCNvNtNtCsjO1mwjW04O1_18realestate_backend8handlers9dashboard14pagos_proximos0B7_
FN:61,_RNCNvNtNtCsjO1mwjW04O1_18realestate_backend8handlers9dashboard18gastos_comparacion0B7_
FN:25,_RNCNvNtNtCsjO1mwjW04O1_18realestate_backend8handlers9dashboard19ocupacion_tendencia0B7_
FN:53,_RNCNvNtNtCsjO1mwjW04O1_18realestate_backend8handlers9dashboard20contratos_calendario0B7_
FN:35,_RNCNvNtNtCsjO1mwjW04O1_18realestate_backend8handlers9dashboard20ingresos_comparacion0B7_
FN:14,_RNCNvNtNtCsjO1mwjW04O1_18realestate_backend8handlers9dashboard5stats0B7_
FN:40,_RNvNtNtCsjO1mwjW04O1_18realestate_backend8handlers9dashboard14pagos_proximos
FN:58,_RNvNtNtCsjO1mwjW04O1_18realestate_backend8handlers9dashboard18gastos_comparacion
FN:21,_RNvNtNtCsjO1mwjW04O1_18realestate_backend8handlers9dashboard19ocupacion_tendencia
FN:50,_RNvNtNtCsjO1mwjW04O1_18realestate_backend8handlers9dashboard20contratos_calendario
FN:32,_RNvNtNtCsjO1mwjW04O1_18realestate_backend8handlers9dashboard20ingresos_comparacion
FN:10,_RNvNtNtCsjO1mwjW04O1_18realestate_backend8handlers9dashboard5stats
FN:40,_RNvNtNtCshWAJ4lei3LP_18realestate_backend8handlers9dashboard14pagos_proximos
FN:58,_RNvNtNtCshWAJ4lei3LP_18realestate_backend8handlers9dashboard18gastos_comparacion
FN:21,_RNvNtNtCshWAJ4lei3LP_18realestate_backend8handlers9dashboard19ocupacion_tendencia
FN:50,_RNvNtNtCshWAJ4lei3LP_18realestate_backend8handlers9dashboard20contratos_calendario
FN:32,_RNvNtNtCshWAJ4lei3LP_18realestate_backend8handlers9dashboard20ingresos_comparacion
FN:10,_RNvNtNtCshWAJ4lei3LP_18realestate_backend8handlers9dashboard5stats
FN:44,_RNCNvNtNtCshWAJ4lei3LP_18realestate_backend8handlers9dashboard14pagos_proximos0B7_
FN:61,_RNCNvNtNtCshWAJ4lei3LP_18realestate_backend8handlers9dashboard18gastos_comparacion0B7_
FN:25,_RNCNvNtNtCshWAJ4lei3LP_18realestate_backend8handlers9dashboard19ocupacion_tendencia0B7_
FN:53,_RNCNvNtNtCshWAJ4lei3LP_18realestate_backend8handlers9dashboard20contratos_calendario0B7_
FN:35,_RNCNvNtNtCshWAJ4lei3LP_18realestate_backend8handlers9dashboard20ingresos_comparacion0B7_
FN:14,_RNCNvNtNtCshWAJ4lei3LP_18realestate_backend8handlers9dashboard5stats0B7_
FNDA:0,_RNCNvNtNtCsjO1mwjW04O1_18realestate_backend8handlers9dashboard14pagos_proximos0B7_
FNDA:0,_RNCNvNtNtCsjO1mwjW04O1_18realestate_backend8handlers9dashboard18gastos_comparacion0B7_
FNDA:0,_RNCNvNtNtCsjO1mwjW04O1_18realestate_backend8handlers9dashboard19ocupacion_tendencia0B7_
FNDA:0,_RNCNvNtNtCsjO1mwjW04O1_18realestate_backend8handlers9dashboard20contratos_calendario0B7_
FNDA:0,_RNCNvNtNtCsjO1mwjW04O1_18realestate_backend8handlers9dashboard20ingresos_comparacion0B7_
FNDA:0,_RNCNvNtNtCsjO1mwjW04O1_18realestate_backend8handlers9dashboard5stats0B7_
FNDA:0,_RNvNtNtCsjO1mwjW04O1_18realestate_backend8handlers9dashboard14pagos_proximos
FNDA:0,_RNvNtNtCsjO1mwjW04O1_18realestate_backend8handlers9dashboard18gastos_comparacion
FNDA:0,_RNvNtNtCsjO1mwjW04O1_18realestate_backend8handlers9dashboard19ocupacion_tendencia
FNDA:0,_RNvNtNtCsjO1mwjW04O1_18realestate_backend8handlers9dashboard20contratos_calendario
FNDA:0,_RNvNtNtCsjO1mwjW04O1_18realestate_backend8handlers9dashboard20ingresos_comparacion
FNDA:0,_RNvNtNtCsjO1mwjW04O1_18realestate_backend8handlers9dashboard5stats
FNDA:0,_RNvNtNtCshWAJ4lei3LP_18realestate_backend8handlers9dashboard14pagos_proximos
FNDA:0,_RNvNtNtCshWAJ4lei3LP_18realestate_backend8handlers9dashboard18gastos_comparacion
FNDA:0,_RNvNtNtCshWAJ4lei3LP_18realestate_backend8handlers9dashboard19ocupacion_tendencia
FNDA:0,_RNvNtNtCshWAJ4lei3LP_18realestate_backend8handlers9dashboard20contratos_calendario
FNDA:0,_RNvNtNtCshWAJ4lei3LP_18realestate_backend8handlers9dashboard20ingresos_comparacion
FNDA:0,_RNvNtNtCshWAJ4lei3LP_18realestate_backend8handlers9dashboard5stats
FNDA:0,_RNCNvNtNtCshWAJ4lei3LP_18realestate_backend8handlers9dashboard14pagos_proximos0B7_
FNDA:0,_RNCNvNtNtCshWAJ4lei3LP_18realestate_backend8handlers9dashboard18gastos_comparacion0B7_
FNDA:0,_RNCNvNtNtCshWAJ4lei3LP_18realestate_backend8handlers9dashboard19ocupacion_tendencia0B7_
FNDA:0,_RNCNvNtNtCshWAJ4lei3LP_18realestate_backend8handlers9dashboard20contratos_calendario0B7_
FNDA:0,_RNCNvNtNtCshWAJ4lei3LP_18realestate_backend8handlers9dashboard20ingresos_comparacion0B7_
FNDA:0,_RNCNvNtNtCshWAJ4lei3LP_18realestate_backend8handlers9dashboard5stats0B7_
FNF:12
FNH:0
DA:10,0
DA:11,0
DA:12,0
DA:13,0
DA:14,0
DA:15,0
DA:16,0
DA:17,0
DA:18,0
DA:19,0
DA:21,0
DA:22,0
DA:23,0
DA:24,0
DA:25,0
DA:26,0
DA:27,0
DA:28,0
DA:29,0
DA:30,0
DA:32,0
DA:33,0
DA:34,0
DA:35,0
DA:36,0
DA:37,0
DA:38,0
DA:40,0
DA:41,0
DA:42,0
DA:43,0
DA:44,0
DA:45,0
DA:46,0
DA:47,0
DA:48,0
DA:50,0
DA:51,0
DA:52,0
DA:53,0
DA:54,0
DA:55,0
DA:56,0
DA:58,0
DA:59,0
DA:60,0
DA:61,0
DA:62,0
DA:63,0
DA:64,0
BRF:0
BRH:0
LF:56
LH:0
end_of_record
SF:/home/runner/_work/Gestion-inmobiliaria/Gestion-inmobiliaria/backend/src/handlers/desahucios.rs
FN:89,_RNCNvNtNtCsjO1mwjW04O1_18realestate_backend8handlers10desahucios4list0B7_
FN:55,_RNCNvNtNtCsjO1mwjW04O1_18realestate_backend8handlers10desahucios6create0B7_
FN:72,_RNCNvNtNtCsjO1mwjW04O1_18realestate_backend8handlers10desahucios6update0B7_
FN:13,_RNvNtNtCsjO1mwjW04O1_18realestate_backend8handlers10desahucios15validate_create
FN:27,_RNvNtNtCsjO1mwjW04O1_18realestate_backend8handlers10desahucios15validate_update
FN:85,_RNvNtNtCsjO1mwjW04O1_18realestate_backend8handlers10desahucios4list
FN:51,_RNvNtNtCsjO1mwjW04O1_18realestate_backend8handlers10desahucios6create
FN:67,_RNvNtNtCsjO1mwjW04O1_18realestate_backend8handlers10desahucios6update
FN:85,_RNvNtNtCshWAJ4lei3LP_18realestate_backend8handlers10desahucios4list
FN:51,_RNvNtNtCshWAJ4lei3LP_18realestate_backend8handlers10desahucios6create
FN:67,_RNvNtNtCshWAJ4lei3LP_18realestate_backend8handlers10desahucios6update
FN:89,_RNCNvNtNtCshWAJ4lei3LP_18realestate_backend8handlers10desahucios4list0B7_
FN:55,_RNCNvNtNtCshWAJ4lei3LP_18realestate_backend8handlers10desahucios6create0B7_
FN:72,_RNCNvNtNtCshWAJ4lei3LP_18realestate_backend8handlers10desahucios6update0B7_
FN:13,_RNvNtNtCshWAJ4lei3LP_18realestate_backend8handlers10desahucios15validate_create
FN:27,_RNvNtNtCshWAJ4lei3LP_18realestate_backend8handlers10desahucios15validate_update
FNDA:0,_RNCNvNtNtCsjO1mwjW04O1_18realestate_backend8handlers10desahucios4list0B7_
FNDA:0,_RNCNvNtNtCsjO1mwjW04O1_18realestate_backend8handlers10desahucios6create0B7_
FNDA:0,_RNCNvNtNtCsjO1mwjW04O1_18realestate_backend8handlers10desahucios6update0B7_
FNDA:0,_RNvNtNtCsjO1mwjW04O1_18realestate_backend8handlers10desahucios15validate_create
FNDA:0,_RNvNtNtCsjO1mwjW04O1_18realestate_backend8handlers10desahucios15validate_update
FNDA:0,_RNvNtNtCsjO1mwjW04O1_18realestate_backend8handlers10desahucios4list
FNDA:0,_RNvNtNtCsjO1mwjW04O1_18realestate_backend8handlers10desahucios6create
FNDA:0,_RNvNtNtCsjO1mwjW04O1_18realestate_backend8handlers10desahucios6update
FNDA:0,_RNvNtNtCshWAJ4lei3LP_18realestate_backend8handlers10desahucios4list
FNDA:0,_RNvNtNtCshWAJ4lei3LP_18realestate_backend8handlers10desahucios6create
FNDA:0,_RNvNtNtCshWAJ4lei3LP_18realestate_backend8handlers10desahucios6update
FNDA:0,_RNCNvNtNtCshWAJ4lei3LP_18realestate_backend8handlers10desahucios4list0B7_
FNDA:0,_RNCNvNtNtCshWAJ4lei3LP_18realestate_backend8handlers10desahucios6create0B7_
FNDA:0,_RNCNvNtNtCshWAJ4lei3LP_18realestate_backend8handlers10desahucios6update0B7_
FNDA:0,_RNvNtNtCshWAJ4lei3LP_18realestate_backend8handlers10desahucios15validate_create
FNDA:0,_RNvNtNtCshWAJ4lei3LP_18realestate_backend8handlers10desahucios15validate_update
FNF:8
FNH:0
DA:13,0
DA:14,0
DA:15,0
DA:16,0
DA:17,0
DA:18,0
DA:19,0
DA:20,0
DA:21,0
DA:22,0
DA:23,0
DA:24,0
DA:25,0
DA:27,0
DA:28,0
DA:29,0
DA:30,0
DA:31,0
DA:32,0
DA:33,0
DA:34,0
DA:35,0
DA:36,0
DA:37,0
DA:38,0
DA:39,0
DA:40,0
DA:41,0
DA:42,0
DA:43,0
DA:44,0
DA:45,0
DA:46,0
DA:47,0
DA:48,0
DA:49,0
DA:51,0
DA:52,0
DA:53,0
DA:54,0
DA:55,0
DA:56,0
DA:57,0
DA:59,0
DA:60,0
DA:62,0
DA:64,0
DA:65,0
DA:67,0
DA:68,0
DA:69,0
DA:70,0
DA:71,0
DA:72,0
DA:73,0
DA:74,0
DA:76,0
DA:77,0
DA:78,0
DA:80,0
DA:82,0
DA:83,0
DA:85,0
DA:86,0
DA:87,0
DA:88,0
DA:89,0
DA:90,0
DA:92,0
DA:94,0
DA:95,0
BRF:0
BRH:0
LF:74
LH:0
end_of_record
SF:/home/runner/_work/Gestion-inmobiliaria/Gestion-inmobiliaria/backend/src/handlers/dgii.rs
FN:13,_RNCNvNtNtCsjO1mwjW04O1_18realestate_backend8handlers4dgii13consultar_rnc0B7_
FN:34,_RNCNvNtNtCsjO1mwjW04O1_18realestate_backend8handlers4dgii15invalidar_cache0B7_
FN:24,_RNCNvNtNtCsjO1mwjW04O1_18realestate_backend8handlers4dgii16consultar_nombre0B7_
FN:9,_RNvNtNtCsjO1mwjW04O1_18realestate_backend8handlers4dgii13consultar_rnc
FN:30,_RNvNtNtCsjO1mwjW04O1_18realestate_backend8handlers4dgii15invalidar_cache
FN:21,_RNvNtNtCsjO1mwjW04O1_18realestate_backend8handlers4dgii16consultar_nombre
FN:13,_RNCNvNtNtCshWAJ4lei3LP_18realestate_backend8handlers4dgii13consultar_rnc0B7_
FN:34,_RNCNvNtNtCshWAJ4lei3LP_18realestate_backend8handlers4dgii15invalidar_cache0B7_
FN:24,_RNCNvNtNtCshWAJ4lei3LP_18realestate_backend8handlers4dgii16consultar_nombre0B7_
FN:9,_RNvNtNtCshWAJ4lei3LP_18realestate_backend8handlers4dgii13consultar_rnc
FN:30,_RNvNtNtCshWAJ4lei3LP_18realestate_backend8handlers4dgii15invalidar_cache
FN:21,_RNvNtNtCshWAJ4lei3LP_18realestate_backend8handlers4dgii16consultar_nombre
FNDA:0,_RNCNvNtNtCsjO1mwjW04O1_18realestate_backend8handlers4dgii13consultar_rnc0B7_
FNDA:0,_RNCNvNtNtCsjO1mwjW04O1_18realestate_backend8handlers4dgii15invalidar_cache0B7_
FNDA:0,_RNCNvNtNtCsjO1mwjW04O1_18realestate_backend8handlers4dgii16consultar_nombre0B7_
FNDA:0,_RNvNtNtCsjO1mwjW04O1_18realestate_backend8handlers4dgii13consultar_rnc
FNDA:0,_RNvNtNtCsjO1mwjW04O1_18realestate_backend8handlers4dgii15invalidar_cache
FNDA:0,_RNvNtNtCsjO1mwjW04O1_18realestate_backend8handlers4dgii16consultar_nombre
FNDA:0,_RNCNvNtNtCshWAJ4lei3LP_18realestate_backend8handlers4dgii13consultar_rnc0B7_
FNDA:0,_RNCNvNtNtCshWAJ4lei3LP_18realestate_backend8handlers4dgii15invalidar_cache0B7_
FNDA:0,_RNCNvNtNtCshWAJ4lei3LP_18realestate_backend8handlers4dgii16consultar_nombre0B7_
FNDA:0,_RNvNtNtCshWAJ4lei3LP_18realestate_backend8handlers4dgii13consultar_rnc
FNDA:0,_RNvNtNtCshWAJ4lei3LP_18realestate_backend8handlers4dgii15invalidar_cache
FNDA:0,_RNvNtNtCshWAJ4lei3LP_18realestate_backend8handlers4dgii16consultar_nombre
FNF:6
FNH:0
DA:9,0
DA:10,0
DA:11,0
DA:12,0
DA:13,0
DA:14,0
DA:16,0
DA:18,0
DA:19,0
DA:21,0
DA:22,0
DA:23,0
DA:24,0
DA:25,0
DA:27,0
DA:28,0
DA:30,0
DA:31,0
DA:32,0
DA:33,0
DA:34,0
DA:35,0
DA:36,0
DA:38,0
DA:40,0
DA:41,0
DA:42,0
DA:43,0
BRF:0
BRH:0
LF:31
LH:0
end_of_record
SF:/home/runner/_work/Gestion-inmobiliaria/Gestion-inmobiliaria/backend/src/handlers/documentos.rs
FN:274,_RNCNCNvNtNtCsjO1mwjW04O1_18realestate_backend8handlers10documentos11digitalizar00B9_
FN:286,_RNCNCNvNtNtCsjO1mwjW04O1_18realestate_backend8handlers10documentos11digitalizar0s0_0B9_
FN:293,_RNCNCNvNtNtCsjO1mwjW04O1_18realestate_backend8handlers10documentos11digitalizar0s1_0B9_
FN:305,_RNCNCNvNtNtCsjO1mwjW04O1_18realestate_backend8handlers10documentos11digitalizar0s2_0B9_
FN:309,_RNCNCNvNtNtCsjO1mwjW04O1_18realestate_backend8handlers10documentos11digitalizar0s3_0B9_
FN:311,_RNCNCNvNtNtCsjO1mwjW04O1_18realestate_backend8handlers10documentos11digitalizar0s4_0B9_
FN:279,_RNCNCNvNtNtCsjO1mwjW04O1_18realestate_backend8handlers10documentos11digitalizar0s_0B9_
FN:41,_RNCNCNvNtNtCsjO1mwjW04O1_18realestate_backend8handlers10documentos6upload00B9_
FN:53,_RNCNCNvNtNtCsjO1mwjW04O1_18realestate_backend8handlers10documentos6upload0s0_0B9_
FN:60,_RNCNCNvNtNtCsjO1mwjW04O1_18realestate_backend8handlers10documentos6upload0s1_0B9_
FN:73,_RNCNCNvNtNtCsjO1mwjW04O1_18realestate_backend8handlers10documentos6upload0s2_0B9_
FN:79,_RNCNCNvNtNtCsjO1mwjW04O1_18realestate_backend8handlers10documentos6upload0s3_0B9_
FN:97,_RNCNCNvNtNtCsjO1mwjW04O1_18realestate_backend8handlers10documentos6upload0s4_0B9_
FN:101,_RNCNCNvNtNtCsjO1mwjW04O1_18realestate_backend8handlers10documentos6upload0s5_0B9_
FN:103,_RNCNCNvNtNtCsjO1mwjW04O1_18realestate_backend8handlers10documentos6upload0s6_0B9_
FN:104,_RNCNCNvNtNtCsjO1mwjW04O1_18realestate_backend8handlers10documentos6upload0s7_0B9_
FN:46,_RNCNCNvNtNtCsjO1mwjW04O1_18realestate_backend8handlers10documentos6upload0s_0B9_
FN:185,_RNCNvNtNtCsjO1mwjW04O1_18realestate_backend8handlers10documentos10por_vencer0B7_
FN:265,_RNCNvNtNtCsjO1mwjW04O1_18realestate_backend8handlers10documentos11digitalizar0B7_
FN:194,_RNCNvNtNtCsjO1mwjW04O1_18realestate_backend8handlers10documentos12cumplimiento0B7_
FN:352,_RNCNvNtNtCsjO1mwjW04O1_18realestate_backend8handlers10documentos12exportar_pdf0B7_
FN:416,_RNCNvNtNtCsjO1mwjW04O1_18realestate_backend8handlers10documentos13exportar_docx0B7_
FN:369,_RNCNvNtNtCsjO1mwjW04O1_18realestate_backend8handlers10documentos15crear_plantilla0B7_
FN:335,_RNCNvNtNtCsjO1mwjW04O1_18realestate_backend8handlers10documentos17guardar_contenido0B7_
FN:225,_RNCNvNtNtCsjO1mwjW04O1_18realestate_backend8handlers10documentos17listar_plantillas0B7_
FN:379,_RNCNvNtNtCsjO1mwjW04O1_18realestate_backend8handlers10documentos17obtener_plantilla0B7_
FN:406,_RNCNvNtNtCsjO1mwjW04O1_18realestate_backend8handlers10documentos18eliminar_plantilla0B7_
FN:246,_RNCNvNtNtCsjO1mwjW04O1_18realestate_backend8handlers10documentos18rellenar_plantilla0B7_
FN:390,_RNCNvNtNtCsjO1mwjW04O1_18realestate_backend8handlers10documentos20actualizar_plantilla0B7_
FN:209,_RNCNvNtNtCsjO1mwjW04O1_18realestate_backend8handlers10documentos20cumplimiento_resumen0B7_
FN:134,_RNCNvNtNtCsjO1mwjW04O1_18realestate_backend8handlers10documentos6listar0B7_
FN:28,_RNCNvNtNtCsjO1mwjW04O1_18realestate_backend8handlers10documentos6upload0B7_
FN:169,_RNCNvNtNtCsjO1mwjW04O1_18realestate_backend8handlers10documentos8eliminar0B7_
FN:152,_RNCNvNtNtCsjO1mwjW04O1_18realestate_backend8handlers10documentos9verificar0B7_
FN:181,_RNvNtNtCsjO1mwjW04O1_18realestate_backend8handlers10documentos10por_vencer
FN:260,_RNvNtNtCsjO1mwjW04O1_18realestate_backend8handlers10documentos11digitalizar
FN:190,_RNvNtNtCsjO1mwjW04O1_18realestate_backend8handlers10documentos12cumplimiento
FN:348,_RNvNtNtCsjO1mwjW04O1_18realestate_backend8handlers10documentos12exportar_pdf
FN:412,_RNvNtNtCsjO1mwjW04O1_18realestate_backend8handlers10documentos13exportar_docx
FN:365,_RNvNtNtCsjO1mwjW04O1_18realestate_backend8handlers10documentos15crear_plantilla
FN:330,_RNvNtNtCsjO1mwjW04O1_18realestate_backend8handlers10documentos17guardar_contenido
FN:221,_RNvNtNtCsjO1mwjW04O1_18realestate_backend8handlers10documentos17listar_plantillas
FN:375,_RNvNtNtCsjO1mwjW04O1_18realestate_backend8handlers10documentos17obtener_plantilla
FN:402,_RNvNtNtCsjO1mwjW04O1_18realestate_backend8handlers10documentos18eliminar_plantilla
FN:242,_RNvNtNtCsjO1mwjW04O1_18realestate_backend8handlers10documentos18rellenar_plantilla
FN:385,_RNvNtNtCsjO1mwjW04O1_18realestate_backend8handlers10documentos20actualizar_plantilla
FN:206,_RNvNtNtCsjO1mwjW04O1_18realestate_backend8handlers10documentos20cumplimiento_resumen
FN:129,_RNvNtNtCsjO1mwjW04O1_18realestate_backend8handlers10documentos6listar
FN:23,_RNvNtNtCsjO1mwjW04O1_18realestate_backend8handlers10documentos6upload
FN:165,_RNvNtNtCsjO1mwjW04O1_18realestate_backend8handlers10documentos8eliminar
FN:147,_RNvNtNtCsjO1mwjW04O1_18realestate_backend8handlers10documentos9verificar
FN:274,_RNCNCNvNtNtCshWAJ4lei3LP_18realestate_backend8handlers10documentos11digitalizar00B9_
FN:286,_RNCNCNvNtNtCshWAJ4lei3LP_18realestate_backend8handlers10documentos11digitalizar0s0_0B9_
FN:293,_RNCNCNvNtNtCshWAJ4lei3LP_18realestate_backend8handlers10documentos11digitalizar0s1_0B9_
FN:305,_RNCNCNvNtNtCshWAJ4lei3LP_18realestate_backend8handlers10documentos11digitalizar0s2_0B9_
FN:309,_RNCNCNvNtNtCshWAJ4lei3LP_18realestate_backend8handlers10documentos11digitalizar0s3_0B9_
FN:311,_RNCNCNvNtNtCshWAJ4lei3LP_18realestate_backend8handlers10documentos11digitalizar0s4_0B9_
FN:279,_RNCNCNvNtNtCshWAJ4lei3LP_18realestate_backend8handlers10documentos11digitalizar0s_0B9_
FN:41,_RNCNCNvNtNtCshWAJ4lei3LP_18realestate_backend8handlers10documentos6upload00B9_
FN:53,_RNCNCNvNtNtCshWAJ4lei3LP_18realestate_backend8handlers10documentos6upload0s0_0B9_
FN:60,_RNCNCNvNtNtCshWAJ4lei3LP_18realestate_backend8handlers10documentos6upload0s1_0B9_
FN:73,_RNCNCNvNtNtCshWAJ4lei3LP_18realestate_backend8handlers10documentos6upload0s2_0B9_
FN:79,_RNCNCNvNtNtCshWAJ4lei3LP_18realestate_backend8handlers10documentos6upload0s3_0B9_
FN:97,_RNCNCNvNtNtCshWAJ4lei3LP_18realestate_backend8handlers10documentos6upload0s4_0B9_
FN:101,_RNCNCNvNtNtCshWAJ4lei3LP_18realestate_backend8handlers10documentos6upload0s5_0B9_
FN:103,_RNCNCNvNtNtCshWAJ4lei3LP_18realestate_backend8handlers10documentos6upload0s6_0B9_
FN:104,_RNCNCNvNtNtCshWAJ4lei3LP_18realestate_backend8handlers10documentos6upload0s7_0B9_
FN:46,_RNCNCNvNtNtCshWAJ4lei3LP_18realestate_backend8handlers10documentos6upload0s_0B9_
FN:185,_RNCNvNtNtCshWAJ4lei3LP_18realestate_backend8handlers10documentos10por_vencer0B7_
FN:265,_RNCNvNtNtCshWAJ4lei3LP_18realestate_backend8handlers10documentos11digitalizar0B7_
FN:194,_RNCNvNtNtCshWAJ4lei3LP_18realestate_backend8handlers10documentos12cumplimiento0B7_
FN:352,_RNCNvNtNtCshWAJ4lei3LP_18realestate_backend8handlers10documentos12exportar_pdf0B7_
FN:416,_RNCNvNtNtCshWAJ4lei3LP_18realestate_backend8handlers10documentos13exportar_docx0B7_
FN:369,_RNCNvNtNtCshWAJ4lei3LP_18realestate_backend8handlers10documentos15crear_plantilla0B7_
FN:335,_RNCNvNtNtCshWAJ4lei3LP_18realestate_backend8handlers10documentos17guardar_contenido0B7_
FN:225,_RNCNvNtNtCshWAJ4lei3LP_18realestate_backend8handlers10documentos17listar_plantillas0B7_
FN:379,_RNCNvNtNtCshWAJ4lei3LP_18realestate_backend8handlers10documentos17obtener_plantilla0B7_
FN:406,_RNCNvNtNtCshWAJ4lei3LP_18realestate_backend8handlers10documentos18eliminar_plantilla0B7_
FN:246,_RNCNvNtNtCshWAJ4lei3LP_18realestate_backend8handlers10documentos18rellenar_plantilla0B7_
FN:390,_RNCNvNtNtCshWAJ4lei3LP_18realestate_backend8handlers10documentos20actualizar_plantilla0B7_
FN:209,_RNCNvNtNtCshWAJ4lei3LP_18realestate_backend8handlers10documentos20cumplimiento_resumen0B7_
FN:134,_RNCNvNtNtCshWAJ4lei3LP_18realestate_backend8handlers10documentos6listar0B7_
FN:28,_RNCNvNtNtCshWAJ4lei3LP_18realestate_backend8handlers10documentos6upload0B7_
FN:169,_RNCNvNtNtCshWAJ4lei3LP_18realestate_backend8handlers10documentos8eliminar0B7_
FN:152,_RNCNvNtNtCshWAJ4lei3LP_18realestate_backend8handlers10documentos9verificar0B7_
FN:181,_RNvNtNtCshWAJ4lei3LP_18realestate_backend8handlers10documentos10por_vencer
FN:260,_RNvNtNtCshWAJ4lei3LP_18realestate_backend8handlers10documentos11digitalizar
FN:190,_RNvNtNtCshWAJ4lei3LP_18realestate_backend8handlers10documentos12cumplimiento
FN:348,_RNvNtNtCshWAJ4lei3LP_18realestate_backend8handlers10documentos12exportar_pdf
FN:412,_RNvNtNtCshWAJ4lei3LP_18realestate_backend8handlers10documentos13exportar_docx
FN:365,_RNvNtNtCshWAJ4lei3LP_18realestate_backend8handlers10documentos15crear_plantilla
FN:330,_RNvNtNtCshWAJ4lei3LP_18realestate_backend8handlers10documentos17guardar_contenido
FN:221,_RNvNtNtCshWAJ4lei3LP_18realestate_backend8handlers10documentos17listar_plantillas
FN:375,_RNvNtNtCshWAJ4lei3LP_18realestate_backend8handlers10documentos17obtener_plantilla
FN:402,_RNvNtNtCshWAJ4lei3LP_18realestate_backend8handlers10documentos18eliminar_plantilla
FN:242,_RNvNtNtCshWAJ4lei3LP_18realestate_backend8handlers10documentos18rellenar_plantilla
FN:385,_RNvNtNtCshWAJ4lei3LP_18realestate_backend8handlers10documentos20actualizar_plantilla
FN:206,_RNvNtNtCshWAJ4lei3LP_18realestate_backend8handlers10documentos20cumplimiento_resumen
FN:129,_RNvNtNtCshWAJ4lei3LP_18realestate_backend8handlers10documentos6listar
FN:23,_RNvNtNtCshWAJ4lei3LP_18realestate_backend8handlers10documentos6upload
FN:165,_RNvNtNtCshWAJ4lei3LP_18realestate_backend8handlers10documentos8eliminar
FN:147,_RNvNtNtCshWAJ4lei3LP_18realestate_backend8handlers10documentos9verificar
FNDA:0,_RNCNCNvNtNtCsjO1mwjW04O1_18realestate_backend8handlers10documentos11digitalizar00B9_
FNDA:0,_RNCNCNvNtNtCsjO1mwjW04O1_18realestate_backend8handlers10documentos11digitalizar0s0_0B9_
FNDA:0,_RNCNCNvNtNtCsjO1mwjW04O1_18realestate_backend8handlers10documentos11digitalizar0s1_0B9_
FNDA:0,_RNCNCNvNtNtCsjO1mwjW04O1_18realestate_backend8handlers10documentos11digitalizar0s2_0B9_
FNDA:0,_RNCNCNvNtNtCsjO1mwjW04O1_18realestate_backend8handlers10documentos11digitalizar0s3_0B9_
FNDA:0,_RNCNCNvNtNtCsjO1mwjW04O1_18realestate_backend8handlers10documentos11digitalizar0s4_0B9_
FNDA:0,_RNCNCNvNtNtCsjO1mwjW04O1_18realestate_backend8handlers10documentos11digitalizar0s_0B9_
FNDA:0,_RNCNCNvNtNtCsjO1mwjW04O1_18realestate_backend8handlers10documentos6upload00B9_
FNDA:0,_RNCNCNvNtNtCsjO1mwjW04O1_18realestate_backend8handlers10documentos6upload0s0_0B9_
FNDA:0,_RNCNCNvNtNtCsjO1mwjW04O1_18realestate_backend8handlers10documentos6upload0s1_0B9_
FNDA:0,_RNCNCNvNtNtCsjO1mwjW04O1_18realestate_backend8handlers10documentos6upload0s2_0B9_
FNDA:0,_RNCNCNvNtNtCsjO1mwjW04O1_18realestate_backend8handlers10documentos6upload0s3_0B9_
FNDA:0,_RNCNCNvNtNtCsjO1mwjW04O1_18realestate_backend8handlers10documentos6upload0s4_0B9_
FNDA:0,_RNCNCNvNtNtCsjO1mwjW04O1_18realestate_backend8handlers10documentos6upload0s5_0B9_
FNDA:0,_RNCNCNvNtNtCsjO1mwjW04O1_18realestate_backend8handlers10documentos6upload0s6_0B9_
FNDA:0,_RNCNCNvNtNtCsjO1mwjW04O1_18realestate_backend8handlers10documentos6upload0s7_0B9_
FNDA:0,_RNCNCNvNtNtCsjO1mwjW04O1_18realestate_backend8handlers10documentos6upload0s_0B9_
FNDA:0,_RNCNvNtNtCsjO1mwjW04O1_18realestate_backend8handlers10documentos10por_vencer0B7_
FNDA:0,_RNCNvNtNtCsjO1mwjW04O1_18realestate_backend8handlers10documentos11digitalizar0B7_
FNDA:0,_RNCNvNtNtCsjO1mwjW04O1_18realestate_backend8handlers10documentos12cumplimiento0B7_
FNDA:0,_RNCNvNtNtCsjO1mwjW04O1_18realestate_backend8handlers10documentos12exportar_pdf0B7_
FNDA:0,_RNCNvNtNtCsjO1mwjW04O1_18realestate_backend8handlers10documentos13exportar_docx0B7_
FNDA:0,_RNCNvNtNtCsjO1mwjW04O1_18realestate_backend8handlers10documentos15crear_plantilla0B7_
FNDA:0,_RNCNvNtNtCsjO1mwjW04O1_18realestate_backend8handlers10documentos17guardar_contenido0B7_
FNDA:0,_RNCNvNtNtCsjO1mwjW04O1_18realestate_backend8handlers10documentos17listar_plantillas0B7_
FNDA:0,_RNCNvNtNtCsjO1mwjW04O1_18realestate_backend8handlers10documentos17obtener_plantilla0B7_
FNDA:0,_RNCNvNtNtCsjO1mwjW04O1_18realestate_backend8handlers10documentos18eliminar_plantilla0B7_
FNDA:0,_RNCNvNtNtCsjO1mwjW04O1_18realestate_backend8handlers10documentos18rellenar_plantilla0B7_
FNDA:0,_RNCNvNtNtCsjO1mwjW04O1_18realestate_backend8handlers10documentos20actualizar_plantilla0B7_
FNDA:0,_RNCNvNtNtCsjO1mwjW04O1_18realestate_backend8handlers10documentos20cumplimiento_resumen0B7_
FNDA:0,_RNCNvNtNtCsjO1mwjW04O1_18realestate_backend8handlers10documentos6listar0B7_
FNDA:0,_RNCNvNtNtCsjO1mwjW04O1_18realestate_backend8handlers10documentos6upload0B7_
FNDA:0,_RNCNvNtNtCsjO1mwjW04O1_18realestate_backend8handlers10documentos8eliminar0B7_
FNDA:0,_RNCNvNtNtCsjO1mwjW04O1_18realestate_backend8handlers10documentos9verificar0B7_
FNDA:0,_RNvNtNtCsjO1mwjW04O1_18realestate_backend8handlers10documentos10por_vencer
FNDA:0,_RNvNtNtCsjO1mwjW04O1_18realestate_backend8handlers10documentos11digitalizar
FNDA:0,_RNvNtNtCsjO1mwjW04O1_18realestate_backend8handlers10documentos12cumplimiento
FNDA:0,_RNvNtNtCsjO1mwjW04O1_18realestate_backend8handlers10documentos12exportar_pdf
FNDA:0,_RNvNtNtCsjO1mwjW04O1_18realestate_backend8handlers10documentos13exportar_docx
FNDA:0,_RNvNtNtCsjO1mwjW04O1_18realestate_backend8handlers10documentos15crear_plantilla
FNDA:0,_RNvNtNtCsjO1mwjW04O1_18realestate_backend8handlers10documentos17guardar_contenido
FNDA:0,_RNvNtNtCsjO1mwjW04O1_18realestate_backend8handlers10documentos17listar_plantillas
FNDA:0,_RNvNtNtCsjO1mwjW04O1_18realestate_backend8handlers10documentos17obtener_plantilla
FNDA:0,_RNvNtNtCsjO1mwjW04O1_18realestate_backend8handlers10documentos18eliminar_plantilla
FNDA:0,_RNvNtNtCsjO1mwjW04O1_18realestate_backend8handlers10documentos18rellenar_plantilla
FNDA:0,_RNvNtNtCsjO1mwjW04O1_18realestate_backend8handlers10documentos20actualizar_plantilla
FNDA:0,_RNvNtNtCsjO1mwjW04O1_18realestate_backend8handlers10documentos20cumplimiento_resumen
FNDA:0,_RNvNtNtCsjO1mwjW04O1_18realestate_backend8handlers10documentos6listar
FNDA:0,_RNvNtNtCsjO1mwjW04O1_18realestate_backend8handlers10documentos6upload
FNDA:0,_RNvNtNtCsjO1mwjW04O1_18realestate_backend8handlers10documentos8eliminar
FNDA:0,_RNvNtNtCsjO1mwjW04O1_18realestate_backend8handlers10documentos9verificar
FNDA:0,_RNCNCNvNtNtCshWAJ4lei3LP_18realestate_backend8handlers10documentos11digitalizar00B9_
FNDA:0,_RNCNCNvNtNtCshWAJ4lei3LP_18realestate_backend8handlers10documentos11digitalizar0s0_0B9_
FNDA:0,_RNCNCNvNtNtCshWAJ4lei3LP_18realestate_backend8handlers10documentos11digitalizar0s1_0B9_
FNDA:0,_RNCNCNvNtNtCshWAJ4lei3LP_18realestate_backend8handlers10documentos11digitalizar0s2_0B9_
FNDA:0,_RNCNCNvNtNtCshWAJ4lei3LP_18realestate_backend8handlers10documentos11digitalizar0s3_0B9_
FNDA:0,_RNCNCNvNtNtCshWAJ4lei3LP_18realestate_backend8handlers10documentos11digitalizar0s4_0B9_
FNDA:0,_RNCNCNvNtNtCshWAJ4lei3LP_18realestate_backend8handlers10documentos11digitalizar0s_0B9_
FNDA:0,_RNCNCNvNtNtCshWAJ4lei3LP_18realestate_backend8handlers10documentos6upload00B9_
FNDA:0,_RNCNCNvNtNtCshWAJ4lei3LP_18realestate_backend8handlers10documentos6upload0s0_0B9_
FNDA:0,_RNCNCNvNtNtCshWAJ4lei3LP_18realestate_backend8handlers10documentos6upload0s1_0B9_
FNDA:0,_RNCNCNvNtNtCshWAJ4lei3LP_18realestate_backend8handlers10documentos6upload0s2_0B9_
FNDA:0,_RNCNCNvNtNtCshWAJ4lei3LP_18realestate_backend8handlers10documentos6upload0s3_0B9_
FNDA:0,_RNCNCNvNtNtCshWAJ4lei3LP_18realestate_backend8handlers10documentos6upload0s4_0B9_
FNDA:0,_RNCNCNvNtNtCshWAJ4lei3LP_18realestate_backend8handlers10documentos6upload0s5_0B9_
FNDA:0,_RNCNCNvNtNtCshWAJ4lei3LP_18realestate_backend8handlers10documentos6upload0s6_0B9_
FNDA:0,_RNCNCNvNtNtCshWAJ4lei3LP_18realestate_backend8handlers10documentos6upload0s7_0B9_
FNDA:0,_RNCNCNvNtNtCshWAJ4lei3LP_18realestate_backend8handlers10documentos6upload0s_0B9_
FNDA:0,_RNCNvNtNtCshWAJ4lei3LP_18realestate_backend8handlers10documentos10por_vencer0B7_
FNDA:0,_RNCNvNtNtCshWAJ4lei3LP_18realestate_backend8handlers10documentos11digitalizar0B7_
FNDA:0,_RNCNvNtNtCshWAJ4lei3LP_18realestate_backend8handlers10documentos12cumplimiento0B7_
FNDA:0,_RNCNvNtNtCshWAJ4lei3LP_18realestate_backend8handlers10documentos12exportar_pdf0B7_
FNDA:0,_RNCNvNtNtCshWAJ4lei3LP_18realestate_backend8handlers10documentos13exportar_docx0B7_
FNDA:0,_RNCNvNtNtCshWAJ4lei3LP_18realestate_backend8handlers10documentos15crear_plantilla0B7_
FNDA:0,_RNCNvNtNtCshWAJ4lei3LP_18realestate_backend8handlers10documentos17guardar_contenido0B7_
FNDA:0,_RNCNvNtNtCshWAJ4lei3LP_18realestate_backend8handlers10documentos17listar_plantillas0B7_
FNDA:0,_RNCNvNtNtCshWAJ4lei3LP_18realestate_backend8handlers10documentos17obtener_plantilla0B7_
FNDA:0,_RNCNvNtNtCshWAJ4lei3LP_18realestate_backend8handlers10documentos18eliminar_plantilla0B7_
FNDA:0,_RNCNvNtNtCshWAJ4lei3LP_18realestate_backend8handlers10documentos18rellenar_plantilla0B7_
FNDA:0,_RNCNvNtNtCshWAJ4lei3LP_18realestate_backend8handlers10documentos20actualizar_plantilla0B7_
FNDA:0,_RNCNvNtNtCshWAJ4lei3LP_18realestate_backend8handlers10documentos20cumplimiento_resumen0B7_
FNDA:0,_RNCNvNtNtCshWAJ4lei3LP_18realestate_backend8handlers10documentos6listar0B7_
FNDA:0,_RNCNvNtNtCshWAJ4lei3LP_18realestate_backend8handlers10documentos6upload0B7_
FNDA:0,_RNCNvNtNtCshWAJ4lei3LP_18realestate_backend8handlers10documentos8eliminar0B7_
FNDA:0,_RNCNvNtNtCshWAJ4lei3LP_18realestate_backend8handlers10documentos9verificar0B7_
FNDA:0,_RNvNtNtCshWAJ4lei3LP_18realestate_backend8handlers10documentos10por_vencer
FNDA:0,_RNvNtNtCshWAJ4lei3LP_18realestate_backend8handlers10documentos11digitalizar
FNDA:0,_RNvNtNtCshWAJ4lei3LP_18realestate_backend8handlers10documentos12cumplimiento
FNDA:0,_RNvNtNtCshWAJ4lei3LP_18realestate_backend8handlers10documentos12exportar_pdf
FNDA:0,_RNvNtNtCshWAJ4lei3LP_18realestate_backend8handlers10documentos13exportar_docx
FNDA:0,_RNvNtNtCshWAJ4lei3LP_18realestate_backend8handlers10documentos15crear_plantilla
FNDA:0,_RNvNtNtCshWAJ4lei3LP_18realestate_backend8handlers10documentos17guardar_contenido
FNDA:0,_RNvNtNtCshWAJ4lei3LP_18realestate_backend8handlers10documentos17listar_plantillas
FNDA:0,_RNvNtNtCshWAJ4lei3LP_18realestate_backend8handlers10documentos17obtener_plantilla
FNDA:0,_RNvNtNtCshWAJ4lei3LP_18realestate_backend8handlers10documentos18eliminar_plantilla
FNDA:0,_RNvNtNtCshWAJ4lei3LP_18realestate_backend8handlers10documentos18rellenar_plantilla
FNDA:0,_RNvNtNtCshWAJ4lei3LP_18realestate_backend8handlers10documentos20actualizar_plantilla
FNDA:0,_RNvNtNtCshWAJ4lei3LP_18realestate_backend8handlers10documentos20cumplimiento_resumen
FNDA:0,_RNvNtNtCshWAJ4lei3LP_18realestate_backend8handlers10documentos6listar
FNDA:0,_RNvNtNtCshWAJ4lei3LP_18realestate_backend8handlers10documentos6upload
FNDA:0,_RNvNtNtCshWAJ4lei3LP_18realestate_backend8handlers10documentos8eliminar
FNDA:0,_RNvNtNtCshWAJ4lei3LP_18realestate_backend8handlers10documentos9verificar
FNF:51
FNH:0
DA:23,0
DA:24,0
DA:25,0
DA:26,0
DA:27,0
DA:28,0
DA:29,0
DA:31,0
DA:32,0
DA:33,0
DA:34,0
DA:35,0
DA:36,0
DA:37,0
DA:39,0
DA:40,0
DA:41,0
DA:43,0
DA:44,0
DA:45,0
DA:46,0
DA:47,0
DA:48,0
DA:50,0
DA:51,0
DA:52,0
DA:53,0
DA:54,0
DA:55,0
DA:57,0
DA:58,0
DA:59,0
DA:60,0
DA:61,0
DA:62,0
DA:63,0
DA:64,0
DA:65,0
DA:66,0
DA:68,0
DA:70,0
DA:71,0
DA:72,0
DA:73,0
DA:74,0
DA:76,0
DA:77,0
DA:78,0
DA:79,0
DA:80,0
DA:81,0
DA:82,0
DA:83,0
DA:84,0
DA:86,0
DA:87,0
DA:88,0
DA:89,0
DA:90,0
DA:91,0
DA:92,0
DA:97,0
DA:98,0
DA:99,0
DA:100,0
DA:101,0
DA:102,0
DA:103,0
DA:104,0
DA:105,0
DA:106,0
DA:108,0
DA:110,0
DA:111,0
DA:112,0
DA:113,0
DA:114,0
DA:115,0
DA:116,0
DA:117,0
DA:118,0
DA:119,0
DA:120,0
DA:121,0
DA:122,0
DA:123,0
DA:124,0
DA:126,0
DA:127,0
DA:129,0
DA:130,0
DA:131,0
DA:132,0
DA:133,0
DA:134,0
DA:135,0
DA:136,0
DA:137,0
DA:138,0
DA:139,0
DA:140,0
DA:141,0
DA:142,0
DA:143,0
DA:144,0
DA:145,0
DA:147,0
DA:148,0
DA:149,0
DA:150,0
DA:151,0
DA:152,0
DA:153,0
DA:154,0
DA:155,0
DA:156,0
DA:157,0
DA:158,0
DA:159,0
DA:160,0
DA:161,0
DA:162,0
DA:163,0
DA:165,0
DA:166,0
DA:167,0
DA:168,0
DA:169,0
DA:170,0
DA:171,0
DA:172,0
DA:173,0
DA:174,0
DA:175,0
DA:176,0
DA:177,0
DA:178,0
DA:179,0
DA:181,0
DA:182,0
DA:183,0
DA:184,0
DA:185,0
DA:186,0
DA:187,0
DA:188,0
DA:190,0
DA:191,0
DA:192,0
DA:193,0
DA:194,0
DA:195,0
DA:196,0
DA:197,0
DA:198,0
DA:199,0
DA:200,0
DA:201,0
DA:202,0
DA:203,0
DA:204,0
DA:206,0
DA:207,0
DA:208,0
DA:209,0
DA:210,0
DA:211,0
DA:212,0
DA:213,0
DA:214,0
DA:221,0
DA:222,0
DA:223,0
DA:224,0
DA:225,0
DA:226,0
DA:227,0
DA:228,0
DA:229,0
DA:230,0
DA:231,0
DA:232,0
DA:233,0
DA:242,0
DA:243,0
DA:244,0
DA:245,0
DA:246,0
DA:247,0
DA:248,0
DA:249,0
DA:250,0
DA:251,0
DA:252,0
DA:253,0
DA:254,0
DA:255,0
DA:256,0
DA:257,0
DA:260,0
DA:261,0
DA:262,0
DA:263,0
DA:264,0
DA:265,0
DA:266,0
DA:268,0
DA:269,0
DA:270,0
DA:272,0
DA:273,0
DA:274,0
DA:276,0
DA:277,0
DA:278,0
DA:279,0
DA:280,0
DA:281,0
DA:283,0
DA:284,0
DA:285,0
DA:286,0
DA:287,0
DA:288,0
DA:290,0
DA:291,0
DA:292,0
DA:293,0
DA:294,0
DA:295,0
DA:296,0
DA:297,0
DA:298,0
DA:299,0
DA:301,0
DA:302,0
DA:305,0
DA:306,0
DA:307,0
DA:308,0
DA:309,0
DA:310,0
DA:311,0
DA:313,0
DA:315,0
DA:316,0
DA:317,0
DA:318,0
DA:319,0
DA:320,0
DA:321,0
DA:322,0
DA:323,0
DA:324,0
DA:325,0
DA:327,0
DA:328,0
DA:330,0
DA:331,0
DA:332,0
DA:333,0
DA:334,0
DA:335,0
DA:336,0
DA:337,0
DA:338,0
DA:339,0
DA:340,0
DA:341,0
DA:342,0
DA:343,0
DA:344,0
DA:345,0
DA:346,0
DA:348,0
DA:349,0
DA:350,0
DA:351,0
DA:352,0
DA:353,0
DA:354,0
DA:355,0
DA:356,0
DA:357,0
DA:358,0
DA:359,0
DA:360,0
DA:361,0
DA:362,0
DA:363,0
DA:365,0
DA:366,0
DA:367,0
DA:368,0
DA:369,0
DA:370,0
DA:371,0
DA:372,0
DA:373,0
DA:375,0
DA:376,0
DA:377,0
DA:378,0
DA:379,0
DA:380,0
DA:381,0
DA:382,0
DA:383,0
DA:385,0
DA:386,0
DA:387,0
DA:388,0
DA:389,0
DA:390,0
DA:391,0
DA:392,0
DA:393,0
DA:394,0
DA:395,0
DA:396,0
DA:397,0
DA:398,0
DA:399,0
DA:400,0
DA:402,0
DA:403,0
DA:404,0
DA:405,0
DA:406,0
DA:407,0
DA:408,0
DA:409,0
DA:410,0
DA:412,0
DA:413,0
DA:414,0
DA:415,0
DA:416,0
DA:417,0
DA:418,0
DA:419,0
DA:420,0
DA:421,0
DA:422,0
DA:423,0
DA:424,0
DA:425,0
DA:426,0
DA:427,0
BRF:0
BRH:0
LF:387
LH:0
end_of_record
SF:/home/runner/_work/Gestion-inmobiliaria/Gestion-inmobiliaria/backend/src/handlers/firmas.rs
FN:82,_RNCNvNtNtCsjO1mwjW04O1_18realestate_backend8handlers6firmas13listar_firmas0B7_
FN:108,_RNCNvNtNtCsjO1mwjW04O1_18realestate_backend8handlers6firmas14firmar_publica0B7_
FN:63,_RNCNvNtNtCsjO1mwjW04O1_18realestate_backend8handlers6firmas15solicitar_firma0B7_
FN:24,_RNCNvNtNtCsjO1mwjW04O1_18realestate_backend8handlers6firmas18extract_user_agent0B7_
FN:94,_RNCNvNtNtCsjO1mwjW04O1_18realestate_backend8handlers6firmas23verificar_firma_publica0B7_
FN:36,_RNCNvNtNtCsjO1mwjW04O1_18realestate_backend8handlers6firmas6firmar0B7_
FN:17,_RNvNtNtCsjO1mwjW04O1_18realestate_backend8handlers6firmas10extract_ip
FN:78,_RNvNtNtCsjO1mwjW04O1_18realestate_backend8handlers6firmas13listar_firmas
FN:103,_RNvNtNtCsjO1mwjW04O1_18realestate_backend8handlers6firmas14firmar_publica
FN:57,_RNvNtNtCsjO1mwjW04O1_18realestate_backend8handlers6firmas15solicitar_firma
FN:21,_RNvNtNtCsjO1mwjW04O1_18realestate_backend8handlers6firmas18extract_user_agent
FN:90,_RNvNtNtCsjO1mwjW04O1_18realestate_backend8handlers6firmas23verificar_firma_publica
FN:30,_RNvNtNtCsjO1mwjW04O1_18realestate_backend8handlers6firmas6firmar
FN:82,_RNCNvNtNtCshWAJ4lei3LP_18realestate_backend8handlers6firmas13listar_firmas0B7_
FN:108,_RNCNvNtNtCshWAJ4lei3LP_18realestate_backend8handlers6firmas14firmar_publica0B7_
FN:63,_RNCNvNtNtCshWAJ4lei3LP_18realestate_backend8handlers6firmas15solicitar_firma0B7_
FN:24,_RNCNvNtNtCshWAJ4lei3LP_18realestate_backend8handlers6firmas18extract_user_agent0B7_
FN:94,_RNCNvNtNtCshWAJ4lei3LP_18realestate_backend8handlers6firmas23verificar_firma_publica0B7_
FN:36,_RNCNvNtNtCshWAJ4lei3LP_18realestate_backend8handlers6firmas6firmar0B7_
FN:17,_RNvNtNtCshWAJ4lei3LP_18realestate_backend8handlers6firmas10extract_ip
FN:21,_RNvNtNtCshWAJ4lei3LP_18realestate_backend8handlers6firmas18extract_user_agent
FN:78,_RNvNtNtCshWAJ4lei3LP_18realestate_backend8handlers6firmas13listar_firmas
FN:103,_RNvNtNtCshWAJ4lei3LP_18realestate_backend8handlers6firmas14firmar_publica
FN:57,_RNvNtNtCshWAJ4lei3LP_18realestate_backend8handlers6firmas15solicitar_firma
FN:90,_RNvNtNtCshWAJ4lei3LP_18realestate_backend8handlers6firmas23verificar_firma_publica
FN:30,_RNvNtNtCshWAJ4lei3LP_18realestate_backend8handlers6firmas6firmar
FNDA:0,_RNCNvNtNtCsjO1mwjW04O1_18realestate_backend8handlers6firmas13listar_firmas0B7_
FNDA:0,_RNCNvNtNtCsjO1mwjW04O1_18realestate_backend8handlers6firmas14firmar_publica0B7_
FNDA:0,_RNCNvNtNtCsjO1mwjW04O1_18realestate_backend8handlers6firmas15solicitar_firma0B7_
FNDA:0,_RNCNvNtNtCsjO1mwjW04O1_18realestate_backend8handlers6firmas18extract_user_agent0B7_
FNDA:0,_RNCNvNtNtCsjO1mwjW04O1_18realestate_backend8handlers6firmas23verificar_firma_publica0B7_
FNDA:0,_RNCNvNtNtCsjO1mwjW04O1_18realestate_backend8handlers6firmas6firmar0B7_
FNDA:0,_RNvNtNtCsjO1mwjW04O1_18realestate_backend8handlers6firmas10extract_ip
FNDA:0,_RNvNtNtCsjO1mwjW04O1_18realestate_backend8handlers6firmas13listar_firmas
FNDA:0,_RNvNtNtCsjO1mwjW04O1_18realestate_backend8handlers6firmas14firmar_publica
FNDA:0,_RNvNtNtCsjO1mwjW04O1_18realestate_backend8handlers6firmas15solicitar_firma
FNDA:0,_RNvNtNtCsjO1mwjW04O1_18realestate_backend8handlers6firmas18extract_user_agent
FNDA:0,_RNvNtNtCsjO1mwjW04O1_18realestate_backend8handlers6firmas23verificar_firma_publica
FNDA:0,_RNvNtNtCsjO1mwjW04O1_18realestate_backend8handlers6firmas6firmar
FNDA:0,_RNCNvNtNtCshWAJ4lei3LP_18realestate_backend8handlers6firmas13listar_firmas0B7_
FNDA:0,_RNCNvNtNtCshWAJ4lei3LP_18realestate_backend8handlers6firmas14firmar_publica0B7_
FNDA:0,_RNCNvNtNtCshWAJ4lei3LP_18realestate_backend8handlers6firmas15solicitar_firma0B7_
FNDA:0,_RNCNvNtNtCshWAJ4lei3LP_18realestate_backend8handlers6firmas18extract_user_agent0B7_
FNDA:0,_RNCNvNtNtCshWAJ4lei3LP_18realestate_backend8handlers6firmas23verificar_firma_publica0B7_
FNDA:0,_RNCNvNtNtCshWAJ4lei3LP_18realestate_backend8handlers6firmas6firmar0B7_
FNDA:0,_RNvNtNtCshWAJ4lei3LP_18realestate_backend8handlers6firmas10extract_ip
FNDA:0,_RNvNtNtCshWAJ4lei3LP_18realestate_backend8handlers6firmas18extract_user_agent
FNDA:0,_RNvNtNtCshWAJ4lei3LP_18realestate_backend8handlers6firmas13listar_firmas
FNDA:0,_RNvNtNtCshWAJ4lei3LP_18realestate_backend8handlers6firmas14firmar_publica
FNDA:0,_RNvNtNtCshWAJ4lei3LP_18realestate_backend8handlers6firmas15solicitar_firma
FNDA:0,_RNvNtNtCshWAJ4lei3LP_18realestate_backend8handlers6firmas23verificar_firma_publica
FNDA:0,_RNvNtNtCshWAJ4lei3LP_18realestate_backend8handlers6firmas6firmar
FNF:13
FNH:0
DA:17,0
DA:18,0
DA:19,0
DA:21,0
DA:22,0
DA:23,0
DA:24,0
DA:25,0
DA:26,0
DA:27,0
DA:30,0
DA:31,0
DA:32,0
DA:33,0
DA:34,0
DA:35,0
DA:36,0
DA:37,0
DA:38,0
DA:39,0
DA:40,0
DA:42,0
DA:43,0
DA:44,0
DA:45,0
DA:46,0
DA:47,0
DA:48,0
DA:49,0
DA:50,0
DA:51,0
DA:52,0
DA:54,0
DA:55,0
DA:57,0
DA:58,0
DA:59,0
DA:60,0
DA:61,0
DA:62,0
DA:63,0
DA:64,0
DA:66,0
DA:67,0
DA:68,0
DA:69,0
DA:70,0
DA:71,0
DA:72,0
DA:73,0
DA:75,0
DA:76,0
DA:78,0
DA:79,0
DA:80,0
DA:81,0
DA:82,0
DA:83,0
DA:85,0
DA:87,0
DA:88,0
DA:90,0
DA:91,0
DA:92,0
DA:93,0
DA:94,0
DA:95,0
DA:97,0
DA:99,0
DA:100,0
DA:103,0
DA:104,0
DA:105,0
DA:106,0
DA:107,0
DA:108,0
DA:109,0
DA:110,0
DA:111,0
DA:113,0
DA:114,0
DA:115,0
DA:116,0
DA:117,0
DA:118,0
DA:119,0
DA:120,0
DA:121,0
DA:123,0
DA:124,0
BRF:0
BRH:0
LF:96
LH:0
end_of_record
SF:/home/runner/_work/Gestion-inmobiliaria/Gestion-inmobiliaria/backend/src/handlers/fiscal.rs
FN:32,_RNCNvNtNtCsjO1mwjW04O1_18realestate_backend8handlers6fiscal21obtener_estado_fiscal0B7_
FN:13,_RNCNvNtNtCsjO1mwjW04O1_18realestate_backend8handlers6fiscal22actualizar_tipo_fiscal0B7_
FN:29,_RNvNtNtCsjO1mwjW04O1_18realestate_backend8handlers6fiscal21obtener_estado_fiscal
FN:9,_RNvNtNtCsjO1mwjW04O1_18realestate_backend8handlers6fiscal22actualizar_tipo_fiscal
FN:29,_RNvNtNtCshWAJ4lei3LP_18realestate_backend8handlers6fiscal21obtener_estado_fiscal
FN:9,_RNvNtNtCshWAJ4lei3LP_18realestate_backend8handlers6fiscal22actualizar_tipo_fiscal
FN:32,_RNCNvNtNtCshWAJ4lei3LP_18realestate_backend8handlers6fiscal21obtener_estado_fiscal0B7_
FN:13,_RNCNvNtNtCshWAJ4lei3LP_18realestate_backend8handlers6fiscal22actualizar_tipo_fiscal0B7_
FNDA:0,_RNCNvNtNtCsjO1mwjW04O1_18realestate_backend8handlers6fiscal21obtener_estado_fiscal0B7_
FNDA:0,_RNCNvNtNtCsjO1mwjW04O1_18realestate_backend8handlers6fiscal22actualizar_tipo_fiscal0B7_
FNDA:0,_RNvNtNtCsjO1mwjW04O1_18realestate_backend8handlers6fiscal21obtener_estado_fiscal
FNDA:0,_RNvNtNtCsjO1mwjW04O1_18realestate_backend8handlers6fiscal22actualizar_tipo_fiscal
FNDA:0,_RNvNtNtCshWAJ4lei3LP_18realestate_backend8handlers6fiscal21obtener_estado_fiscal
FNDA:0,_RNvNtNtCshWAJ4lei3LP_18realestate_backend8handlers6fiscal22actualizar_tipo_fiscal
FNDA:0,_RNCNvNtNtCshWAJ4lei3LP_18realestate_backend8handlers6fiscal21obtener_estado_fiscal0B7_
FNDA:0,_RNCNvNtNtCshWAJ4lei3LP_18realestate_backend8handlers6fiscal22actualizar_tipo_fiscal0B7_
FNF:4
FNH:0
DA:9,0
DA:10,0
DA:11,0
DA:12,0
DA:13,0
DA:14,0
DA:15,0
DA:17,0
DA:18,0
DA:19,0
DA:20,0
DA:21,0
DA:22,0
DA:23,0
DA:25,0
DA:26,0
DA:27,0
DA:29,0
DA:30,0
DA:31,0
DA:32,0
DA:33,0
DA:34,0
DA:35,0
DA:36,0
BRF:0
BRH:0
LF:27
LH:0
end_of_record
SF:/home/runner/_work/Gestion-inmobiliaria/Gestion-inmobiliaria/backend/src/handlers/gastos.rs
FN:138,_RNCNvNtNtCsjO1mwjW04O1_18realestate_backend8handlers6gastos18resumen_categorias0B7_
FN:88,_RNCNvNtNtCsjO1mwjW04O1_18realestate_backend8handlers6gastos4list0B7_
FN:73,_RNCNvNtNtCsjO1mwjW04O1_18realestate_backend8handlers6gastos6create0B7_
FN:124,_RNCNvNtNtCsjO1mwjW04O1_18realestate_backend8handlers6gastos6delete0B7_
FN:108,_RNCNvNtNtCsjO1mwjW04O1_18realestate_backend8handlers6gastos6update0B7_
FN:97,_RNCNvNtNtCsjO1mwjW04O1_18realestate_backend8handlers6gastos9get_by_id0B7_
FN:134,_RNvNtNtCsjO1mwjW04O1_18realestate_backend8handlers6gastos18resumen_categorias
FN:15,_RNvNtNtCsjO1mwjW04O1_18realestate_backend8handlers6gastos21validate_create_gasto
FN:35,_RNvNtNtCsjO1mwjW04O1_18realestate_backend8handlers6gastos21validate_update_gasto
FN:84,_RNvNtNtCsjO1mwjW04O1_18realestate_backend8handlers6gastos4list
FN:69,_RNvNtNtCsjO1mwjW04O1_18realestate_backend8handlers6gastos6create
FN:120,_RNvNtNtCsjO1mwjW04O1_18realestate_backend8handlers6gastos6delete
FN:103,_RNvNtNtCsjO1mwjW04O1_18realestate_backend8handlers6gastos6update
FN:93,_RNvNtNtCsjO1mwjW04O1_18realestate_backend8handlers6gastos9get_by_id
FN:138,_RNCNvNtNtCshWAJ4lei3LP_18realestate_backend8handlers6gastos18resumen_categorias0B7_
FN:88,_RNCNvNtNtCshWAJ4lei3LP_18realestate_backend8handlers6gastos4list0B7_
FN:73,_RNCNvNtNtCshWAJ4lei3LP_18realestate_backend8handlers6gastos6create0B7_
FN:124,_RNCNvNtNtCshWAJ4lei3LP_18realestate_backend8handlers6gastos6delete0B7_
FN:108,_RNCNvNtNtCshWAJ4lei3LP_18realestate_backend8handlers6gastos6update0B7_
FN:97,_RNCNvNtNtCshWAJ4lei3LP_18realestate_backend8handlers6gastos9get_by_id0B7_
FN:15,_RNvNtNtCshWAJ4lei3LP_18realestate_backend8handlers6gastos21validate_create_gasto
FN:35,_RNvNtNtCshWAJ4lei3LP_18realestate_backend8handlers6gastos21validate_update_gasto
FN:134,_RNvNtNtCshWAJ4lei3LP_18realestate_backend8handlers6gastos18resumen_categorias
FN:84,_RNvNtNtCshWAJ4lei3LP_18realestate_backend8handlers6gastos4list
FN:69,_RNvNtNtCshWAJ4lei3LP_18realestate_backend8handlers6gastos6create
FN:120,_RNvNtNtCshWAJ4lei3LP_18realestate_backend8handlers6gastos6delete
FN:103,_RNvNtNtCshWAJ4lei3LP_18realestate_backend8handlers6gastos6update
FN:93,_RNvNtNtCshWAJ4lei3LP_18realestate_backend8handlers6gastos9get_by_id
FNDA:0,_RNCNvNtNtCsjO1mwjW04O1_18realestate_backend8handlers6gastos18resumen_categorias0B7_
FNDA:0,_RNCNvNtNtCsjO1mwjW04O1_18realestate_backend8handlers6gastos4list0B7_
FNDA:0,_RNCNvNtNtCsjO1mwjW04O1_18realestate_backend8handlers6gastos6create0B7_
FNDA:0,_RNCNvNtNtCsjO1mwjW04O1_18realestate_backend8handlers6gastos6delete0B7_
FNDA:0,_RNCNvNtNtCsjO1mwjW04O1_18realestate_backend8handlers6gastos6update0B7_
FNDA:0,_RNCNvNtNtCsjO1mwjW04O1_18realestate_backend8handlers6gastos9get_by_id0B7_
FNDA:0,_RNvNtNtCsjO1mwjW04O1_18realestate_backend8handlers6gastos18resumen_categorias
FNDA:0,_RNvNtNtCsjO1mwjW04O1_18realestate_backend8handlers6gastos21validate_create_gasto
FNDA:0,_RNvNtNtCsjO1mwjW04O1_18realestate_backend8handlers6gastos21validate_update_gasto
FNDA:0,_RNvNtNtCsjO1mwjW04O1_18realestate_backend8handlers6gastos4list
FNDA:0,_RNvNtNtCsjO1mwjW04O1_18realestate_backend8handlers6gastos6create
FNDA:0,_RNvNtNtCsjO1mwjW04O1_18realestate_backend8handlers6gastos6delete
FNDA:0,_RNvNtNtCsjO1mwjW04O1_18realestate_backend8handlers6gastos6update
FNDA:0,_RNvNtNtCsjO1mwjW04O1_18realestate_backend8handlers6gastos9get_by_id
FNDA:0,_RNCNvNtNtCshWAJ4lei3LP_18realestate_backend8handlers6gastos18resumen_categorias0B7_
FNDA:0,_RNCNvNtNtCshWAJ4lei3LP_18realestate_backend8handlers6gastos4list0B7_
FNDA:0,_RNCNvNtNtCshWAJ4lei3LP_18realestate_backend8handlers6gastos6create0B7_
FNDA:0,_RNCNvNtNtCshWAJ4lei3LP_18realestate_backend8handlers6gastos6delete0B7_
FNDA:0,_RNCNvNtNtCshWAJ4lei3LP_18realestate_backend8handlers6gastos6update0B7_
FNDA:0,_RNCNvNtNtCshWAJ4lei3LP_18realestate_backend8handlers6gastos9get_by_id0B7_
FNDA:0,_RNvNtNtCshWAJ4lei3LP_18realestate_backend8handlers6gastos21validate_create_gasto
FNDA:0,_RNvNtNtCshWAJ4lei3LP_18realestate_backend8handlers6gastos21validate_update_gasto
FNDA:0,_RNvNtNtCshWAJ4lei3LP_18realestate_backend8handlers6gastos18resumen_categorias
FNDA:0,_RNvNtNtCshWAJ4lei3LP_18realestate_backend8handlers6gastos4list
FNDA:0,_RNvNtNtCshWAJ4lei3LP_18realestate_backend8handlers6gastos6create
FNDA:0,_RNvNtNtCshWAJ4lei3LP_18realestate_backend8handlers6gastos6delete
FNDA:0,_RNvNtNtCshWAJ4lei3LP_18realestate_backend8handlers6gastos6update
FNDA:0,_RNvNtNtCshWAJ4lei3LP_18realestate_backend8handlers6gastos9get_by_id
FNF:14
FNH:0
DA:15,0
DA:16,0
DA:17,0
DA:18,0
DA:19,0
DA:20,0
DA:21,0
DA:22,0
DA:23,0
DA:24,0
DA:25,0
DA:26,0
DA:27,0
DA:28,0
DA:29,0
DA:30,0
DA:31,0
DA:32,0
DA:33,0
DA:35,0
DA:36,0
DA:37,0
DA:38,0
DA:39,0
DA:40,0
DA:41,0
DA:42,0
DA:43,0
DA:44,0
DA:45,0
DA:46,0
DA:47,0
DA:48,0
DA:49,0
DA:50,0
DA:51,0
DA:52,0
DA:53,0
DA:54,0
DA:55,0
DA:56,0
DA:57,0
DA:58,0
DA:59,0
DA:60,0
DA:61,0
DA:62,0
DA:63,0
DA:64,0
DA:65,0
DA:66,0
DA:67,0
DA:69,0
DA:70,0
DA:71,0
DA:72,0
DA:73,0
DA:74,0
DA:75,0
DA:76,0
DA:77,0
DA:78,0
DA:79,0
DA:80,0
DA:81,0
DA:82,0
DA:84,0
DA:85,0
DA:86,0
DA:87,0
DA:88,0
DA:89,0
DA:90,0
DA:91,0
DA:93,0
DA:94,0
DA:95,0
DA:96,0
DA:97,0
DA:98,0
DA:99,0
DA:100,0
DA:101,0
DA:103,0
DA:104,0
DA:105,0
DA:106,0
DA:107,0
DA:108,0
DA:109,0
DA:110,0
DA:111,0
DA:112,0
DA:113,0
DA:114,0
DA:115,0
DA:116,0
DA:117,0
DA:118,0
DA:120,0
DA:121,0
DA:122,0
DA:123,0
DA:124,0
DA:125,0
DA:126,0
DA:127,0
DA:128,0
DA:129,0
DA:130,0
DA:131,0
DA:132,0
DA:134,0
DA:135,0
DA:136,0
DA:137,0
DA:138,0
DA:139,0
DA:140,0
DA:141,0
DA:142,0
DA:143,0
BRF:0
BRH:0
LF:128
LH:0
end_of_record
SF:/home/runner/_work/Gestion-inmobiliaria/Gestion-inmobiliaria/backend/src/handlers/gastos_recurrentes.rs
FN:17,_RNCNvNtNtCsjO1mwjW04O1_18realestate_backend8handlers18gastos_recurrentes4list0B7_
FN:37,_RNCNvNtNtCsjO1mwjW04O1_18realestate_backend8handlers18gastos_recurrentes6create0B7_
FN:66,_RNCNvNtNtCsjO1mwjW04O1_18realestate_backend8handlers18gastos_recurrentes6delete0B7_
FN:51,_RNCNvNtNtCsjO1mwjW04O1_18realestate_backend8handlers18gastos_recurrentes6update0B7_
FN:27,_RNCNvNtNtCsjO1mwjW04O1_18realestate_backend8handlers18gastos_recurrentes9get_by_id0B7_
FN:13,_RNvNtNtCsjO1mwjW04O1_18realestate_backend8handlers18gastos_recurrentes4list
FN:33,_RNvNtNtCsjO1mwjW04O1_18realestate_backend8handlers18gastos_recurrentes6create
FN:62,_RNvNtNtCsjO1mwjW04O1_18realestate_backend8handlers18gastos_recurrentes6delete
FN:46,_RNvNtNtCsjO1mwjW04O1_18realestate_backend8handlers18gastos_recurrentes6update
FN:23,_RNvNtNtCsjO1mwjW04O1_18realestate_backend8handlers18gastos_recurrentes9get_by_id
FN:13,_RNvNtNtCshWAJ4lei3LP_18realestate_backend8handlers18gastos_recurrentes4list
FN:33,_RNvNtNtCshWAJ4lei3LP_18realestate_backend8handlers18gastos_recurrentes6create
FN:62,_RNvNtNtCshWAJ4lei3LP_18realestate_backend8handlers18gastos_recurrentes6delete
FN:46,_RNvNtNtCshWAJ4lei3LP_18realestate_backend8handlers18gastos_recurrentes6update
FN:23,_RNvNtNtCshWAJ4lei3LP_18realestate_backend8handlers18gastos_recurrentes9get_by_id
FN:17,_RNCNvNtNtCshWAJ4lei3LP_18realestate_backend8handlers18gastos_recurrentes4list0B7_
FN:37,_RNCNvNtNtCshWAJ4lei3LP_18realestate_backend8handlers18gastos_recurrentes6create0B7_
FN:66,_RNCNvNtNtCshWAJ4lei3LP_18realestate_backend8handlers18gastos_recurrentes6delete0B7_
FN:51,_RNCNvNtNtCshWAJ4lei3LP_18realestate_backend8handlers18gastos_recurrentes6update0B7_
FN:27,_RNCNvNtNtCshWAJ4lei3LP_18realestate_backend8handlers18gastos_recurrentes9get_by_id0B7_
FNDA:0,_RNCNvNtNtCsjO1mwjW04O1_18realestate_backend8handlers18gastos_recurrentes4list0B7_
FNDA:0,_RNCNvNtNtCsjO1mwjW04O1_18realestate_backend8handlers18gastos_recurrentes6create0B7_
FNDA:0,_RNCNvNtNtCsjO1mwjW04O1_18realestate_backend8handlers18gastos_recurrentes6delete0B7_
FNDA:0,_RNCNvNtNtCsjO1mwjW04O1_18realestate_backend8handlers18gastos_recurrentes6update0B7_
FNDA:0,_RNCNvNtNtCsjO1mwjW04O1_18realestate_backend8handlers18gastos_recurrentes9get_by_id0B7_
FNDA:0,_RNvNtNtCsjO1mwjW04O1_18realestate_backend8handlers18gastos_recurrentes4list
FNDA:0,_RNvNtNtCsjO1mwjW04O1_18realestate_backend8handlers18gastos_recurrentes6create
FNDA:0,_RNvNtNtCsjO1mwjW04O1_18realestate_backend8handlers18gastos_recurrentes6delete
FNDA:0,_RNvNtNtCsjO1mwjW04O1_18realestate_backend8handlers18gastos_recurrentes6update
FNDA:0,_RNvNtNtCsjO1mwjW04O1_18realestate_backend8handlers18gastos_recurrentes9get_by_id
FNDA:0,_RNvNtNtCshWAJ4lei3LP_18realestate_backend8handlers18gastos_recurrentes4list
FNDA:0,_RNvNtNtCshWAJ4lei3LP_18realestate_backend8handlers18gastos_recurrentes6create
FNDA:0,_RNvNtNtCshWAJ4lei3LP_18realestate_backend8handlers18gastos_recurrentes6delete
FNDA:0,_RNvNtNtCshWAJ4lei3LP_18realestate_backend8handlers18gastos_recurrentes6update
FNDA:0,_RNvNtNtCshWAJ4lei3LP_18realestate_backend8handlers18gastos_recurrentes9get_by_id
FNDA:0,_RNCNvNtNtCshWAJ4lei3LP_18realestate_backend8handlers18gastos_recurrentes4list0B7_
FNDA:0,_RNCNvNtNtCshWAJ4lei3LP_18realestate_backend8handlers18gastos_recurrentes6create0B7_
FNDA:0,_RNCNvNtNtCshWAJ4lei3LP_18realestate_backend8handlers18gastos_recurrentes6delete0B7_
FNDA:0,_RNCNvNtNtCshWAJ4lei3LP_18realestate_backend8handlers18gastos_recurrentes6update0B7_
FNDA:0,_RNCNvNtNtCshWAJ4lei3LP_18realestate_backend8handlers18gastos_recurrentes9get_by_id0B7_
FNF:10
FNH:0
DA:13,0
DA:14,0
DA:15,0
DA:16,0
DA:17,0
DA:18,0
DA:19,0
DA:20,0
DA:21,0
DA:23,0
DA:24,0
DA:25,0
DA:26,0
DA:27,0
DA:28,0
DA:29,0
DA:30,0
DA:31,0
DA:33,0
DA:34,0
DA:35,0
DA:36,0
DA:37,0
DA:38,0
DA:39,0
DA:40,0
DA:41,0
DA:42,0
DA:43,0
DA:44,0
DA:46,0
DA:47,0
DA:48,0
DA:49,0
DA:50,0
DA:51,0
DA:52,0
DA:53,0
DA:54,0
DA:55,0
DA:56,0
DA:57,0
DA:58,0
DA:59,0
DA:60,0
DA:62,0
DA:63,0
DA:64,0
DA:65,0
DA:66,0
DA:67,0
DA:68,0
DA:69,0
DA:70,0
DA:71,0
DA:72,0
DA:73,0
DA:74,0
BRF:0
BRH:0
LF:63
LH:0
end_of_record
SF:/home/runner/_work/Gestion-inmobiliaria/Gestion-inmobiliaria/backend/src/handlers/importacion.rs
FN:45,_RNCNCNvNtNtCsjO1mwjW04O1_18realestate_backend8handlers11importacion12extract_file00B9_
FN:57,_RNCNCNvNtNtCsjO1mwjW04O1_18realestate_backend8handlers11importacion12extract_file0s0_0B9_
FN:63,_RNCNCNvNtNtCsjO1mwjW04O1_18realestate_backend8handlers11importacion12extract_file0s1_0B9_
FN:70,_RNCNCNvNtNtCsjO1mwjW04O1_18realestate_backend8handlers11importacion12extract_file0s2_0B9_
FN:74,_RNCNCNvNtNtCsjO1mwjW04O1_18realestate_backend8handlers11importacion12extract_file0s3_0B9_
FN:50,_RNCNCNvNtNtCsjO1mwjW04O1_18realestate_backend8handlers11importacion12extract_file0s_0B9_
FN:194,_RNCNCNvNtNtCsjO1mwjW04O1_18realestate_backend8handlers11importacion17confirmar_preview00B9_
FN:212,_RNCNCNvNtNtCsjO1mwjW04O1_18realestate_backend8handlers11importacion17confirmar_preview0s0_0B9_
FN:211,_RNCNCNvNtNtCsjO1mwjW04O1_18realestate_backend8handlers11importacion17confirmar_preview0s_0B9_
FN:240,_RNCNCNvNtNtCsjO1mwjW04O1_18realestate_backend8handlers11importacion23validate_preview_fields00B9_
FN:241,_RNCNCNvNtNtCsjO1mwjW04O1_18realestate_backend8handlers11importacion23validate_preview_fields0s_0B9_
FN:39,_RNCNvNtNtCsjO1mwjW04O1_18realestate_backend8handlers11importacion12extract_file0B7_
FN:136,_RNCNvNtNtCsjO1mwjW04O1_18realestate_backend8handlers11importacion14importar_pagos0B7_
FN:162,_RNCNvNtNtCsjO1mwjW04O1_18realestate_backend8handlers11importacion15importar_gastos0B7_
FN:191,_RNCNvNtNtCsjO1mwjW04O1_18realestate_backend8handlers11importacion17confirmar_preview0B7_
FN:283,_RNCNvNtNtCsjO1mwjW04O1_18realestate_backend8handlers11importacion17descartar_preview0B7_
FN:103,_RNCNvNtNtCsjO1mwjW04O1_18realestate_backend8handlers11importacion19importar_inquilinos0B7_
FN:84,_RNCNvNtNtCsjO1mwjW04O1_18realestate_backend8handlers11importacion20importar_propiedades0B7_
FN:236,_RNCNvNtNtCsjO1mwjW04O1_18realestate_backend8handlers11importacion23validate_preview_fields0B7_
FN:250,_RNCNvNtNtCsjO1mwjW04O1_18realestate_backend8handlers11importacion23validate_preview_fieldss_0B7_
FN:39,_RNvNtNtCsjO1mwjW04O1_18realestate_backend8handlers11importacion12extract_file
FN:17,_RNvNtNtCsjO1mwjW04O1_18realestate_backend8handlers11importacion13detect_format
FN:131,_RNvNtNtCsjO1mwjW04O1_18realestate_backend8handlers11importacion14importar_pagos
FN:157,_RNvNtNtCsjO1mwjW04O1_18realestate_backend8handlers11importacion15importar_gastos
FN:186,_RNvNtNtCsjO1mwjW04O1_18realestate_backend8handlers11importacion17confirmar_preview
FN:279,_RNvNtNtCsjO1mwjW04O1_18realestate_backend8handlers11importacion17descartar_preview
FN:99,_RNvNtNtCsjO1mwjW04O1_18realestate_backend8handlers11importacion19importar_inquilinos
FN:80,_RNvNtNtCsjO1mwjW04O1_18realestate_backend8handlers11importacion20importar_propiedades
FN:235,_RNvNtNtCsjO1mwjW04O1_18realestate_backend8handlers11importacion23validate_preview_fields
FN:117,_RNvNtNtCsjO1mwjW04O1_18realestate_backend8handlers11importacion26content_type_from_filename
FN:45,_RNCNCNvNtNtCshWAJ4lei3LP_18realestate_backend8handlers11importacion12extract_file00B9_
FN:57,_RNCNCNvNtNtCshWAJ4lei3LP_18realestate_backend8handlers11importacion12extract_file0s0_0B9_
FN:63,_RNCNCNvNtNtCshWAJ4lei3LP_18realestate_backend8handlers11importacion12extract_file0s1_0B9_
FN:70,_RNCNCNvNtNtCshWAJ4lei3LP_18realestate_backend8handlers11importacion12extract_file0s2_0B9_
FN:74,_RNCNCNvNtNtCshWAJ4lei3LP_18realestate_backend8handlers11importacion12extract_file0s3_0B9_
FN:50,_RNCNCNvNtNtCshWAJ4lei3LP_18realestate_backend8handlers11importacion12extract_file0s_0B9_
FN:194,_RNCNCNvNtNtCshWAJ4lei3LP_18realestate_backend8handlers11importacion17confirmar_preview00B9_
FN:212,_RNCNCNvNtNtCshWAJ4lei3LP_18realestate_backend8handlers11importacion17confirmar_preview0s0_0B9_
FN:211,_RNCNCNvNtNtCshWAJ4lei3LP_18realestate_backend8handlers11importacion17confirmar_preview0s_0B9_
FN:240,_RNCNCNvNtNtCshWAJ4lei3LP_18realestate_backend8handlers11importacion23validate_preview_fields00B9_
FN:241,_RNCNCNvNtNtCshWAJ4lei3LP_18realestate_backend8handlers11importacion23validate_preview_fields0s_0B9_
FN:39,_RNCNvNtNtCshWAJ4lei3LP_18realestate_backend8handlers11importacion12extract_file0B7_
FN:136,_RNCNvNtNtCshWAJ4lei3LP_18realestate_backend8handlers11importacion14importar_pagos0B7_
FN:162,_RNCNvNtNtCshWAJ4lei3LP_18realestate_backend8handlers11importacion15importar_gastos0B7_
FN:191,_RNCNvNtNtCshWAJ4lei3LP_18realestate_backend8handlers11importacion17confirmar_preview0B7_
FN:283,_RNCNvNtNtCshWAJ4lei3LP_18realestate_backend8handlers11importacion17descartar_preview0B7_
FN:103,_RNCNvNtNtCshWAJ4lei3LP_18realestate_backend8handlers11importacion19importar_inquilinos0B7_
FN:84,_RNCNvNtNtCshWAJ4lei3LP_18realestate_backend8handlers11importacion20importar_propiedades0B7_
FN:236,_RNCNvNtNtCshWAJ4lei3LP_18realestate_backend8handlers11importacion23validate_preview_fields0B7_
FN:250,_RNCNvNtNtCshWAJ4lei3LP_18realestate_backend8handlers11importacion23validate_preview_fieldss_0B7_
FN:39,_RNvNtNtCshWAJ4lei3LP_18realestate_backend8handlers11importacion12extract_file
FN:17,_RNvNtNtCshWAJ4lei3LP_18realestate_backend8handlers11importacion13detect_format
FN:235,_RNvNtNtCshWAJ4lei3LP_18realestate_backend8handlers11importacion23validate_preview_fields
FN:117,_RNvNtNtCshWAJ4lei3LP_18realestate_backend8handlers11importacion26content_type_from_filename
FN:131,_RNvNtNtCshWAJ4lei3LP_18realestate_backend8handlers11importacion14importar_pagos
FN:157,_RNvNtNtCshWAJ4lei3LP_18realestate_backend8handlers11importacion15importar_gastos
FN:186,_RNvNtNtCshWAJ4lei3LP_18realestate_backend8handlers11importacion17confirmar_preview
FN:279,_RNvNtNtCshWAJ4lei3LP_18realestate_backend8handlers11importacion17descartar_preview
FN:99,_RNvNtNtCshWAJ4lei3LP_18realestate_backend8handlers11importacion19importar_inquilinos
FN:80,_RNvNtNtCshWAJ4lei3LP_18realestate_backend8handlers11importacion20importar_propiedades
FNDA:0,_RNCNCNvNtNtCsjO1mwjW04O1_18realestate_backend8handlers11importacion12extract_file00B9_
FNDA:0,_RNCNCNvNtNtCsjO1mwjW04O1_18realestate_backend8handlers11importacion12extract_file0s0_0B9_
FNDA:0,_RNCNCNvNtNtCsjO1mwjW04O1_18realestate_backend8handlers11importacion12extract_file0s1_0B9_
FNDA:0,_RNCNCNvNtNtCsjO1mwjW04O1_18realestate_backend8handlers11importacion12extract_file0s2_0B9_
FNDA:0,_RNCNCNvNtNtCsjO1mwjW04O1_18realestate_backend8handlers11importacion12extract_file0s3_0B9_
FNDA:0,_RNCNCNvNtNtCsjO1mwjW04O1_18realestate_backend8handlers11importacion12extract_file0s_0B9_
FNDA:0,_RNCNCNvNtNtCsjO1mwjW04O1_18realestate_backend8handlers11importacion17confirmar_preview00B9_
FNDA:0,_RNCNCNvNtNtCsjO1mwjW04O1_18realestate_backend8handlers11importacion17confirmar_preview0s0_0B9_
FNDA:0,_RNCNCNvNtNtCsjO1mwjW04O1_18realestate_backend8handlers11importacion17confirmar_preview0s_0B9_
FNDA:0,_RNCNCNvNtNtCsjO1mwjW04O1_18realestate_backend8handlers11importacion23validate_preview_fields00B9_
FNDA:0,_RNCNCNvNtNtCsjO1mwjW04O1_18realestate_backend8handlers11importacion23validate_preview_fields0s_0B9_
FNDA:0,_RNCNvNtNtCsjO1mwjW04O1_18realestate_backend8handlers11importacion12extract_file0B7_
FNDA:0,_RNCNvNtNtCsjO1mwjW04O1_18realestate_backend8handlers11importacion14importar_pagos0B7_
FNDA:0,_RNCNvNtNtCsjO1mwjW04O1_18realestate_backend8handlers11importacion15importar_gastos0B7_
FNDA:0,_RNCNvNtNtCsjO1mwjW04O1_18realestate_backend8handlers11importacion17confirmar_preview0B7_
FNDA:0,_RNCNvNtNtCsjO1mwjW04O1_18realestate_backend8handlers11importacion17descartar_preview0B7_
FNDA:0,_RNCNvNtNtCsjO1mwjW04O1_18realestate_backend8handlers11importacion19importar_inquilinos0B7_
FNDA:0,_RNCNvNtNtCsjO1mwjW04O1_18realestate_backend8handlers11importacion20importar_propiedades0B7_
FNDA:0,_RNCNvNtNtCsjO1mwjW04O1_18realestate_backend8handlers11importacion23validate_preview_fields0B7_
FNDA:0,_RNCNvNtNtCsjO1mwjW04O1_18realestate_backend8handlers11importacion23validate_preview_fieldss_0B7_
FNDA:0,_RNvNtNtCsjO1mwjW04O1_18realestate_backend8handlers11importacion12extract_file
FNDA:0,_RNvNtNtCsjO1mwjW04O1_18realestate_backend8handlers11importacion13detect_format
FNDA:0,_RNvNtNtCsjO1mwjW04O1_18realestate_backend8handlers11importacion14importar_pagos
FNDA:0,_RNvNtNtCsjO1mwjW04O1_18realestate_backend8handlers11importacion15importar_gastos
FNDA:0,_RNvNtNtCsjO1mwjW04O1_18realestate_backend8handlers11importacion17confirmar_preview
FNDA:0,_RNvNtNtCsjO1mwjW04O1_18realestate_backend8handlers11importacion17descartar_preview
FNDA:0,_RNvNtNtCsjO1mwjW04O1_18realestate_backend8handlers11importacion19importar_inquilinos
FNDA:0,_RNvNtNtCsjO1mwjW04O1_18realestate_backend8handlers11importacion20importar_propiedades
FNDA:0,_RNvNtNtCsjO1mwjW04O1_18realestate_backend8handlers11importacion23validate_preview_fields
FNDA:0,_RNvNtNtCsjO1mwjW04O1_18realestate_backend8handlers11importacion26content_type_from_filename
FNDA:0,_RNCNCNvNtNtCshWAJ4lei3LP_18realestate_backend8handlers11importacion12extract_file00B9_
FNDA:0,_RNCNCNvNtNtCshWAJ4lei3LP_18realestate_backend8handlers11importacion12extract_file0s0_0B9_
FNDA:0,_RNCNCNvNtNtCshWAJ4lei3LP_18realestate_backend8handlers11importacion12extract_file0s1_0B9_
FNDA:0,_RNCNCNvNtNtCshWAJ4lei3LP_18realestate_backend8handlers11importacion12extract_file0s2_0B9_
FNDA:0,_RNCNCNvNtNtCshWAJ4lei3LP_18realestate_backend8handlers11importacion12extract_file0s3_0B9_
FNDA:0,_RNCNCNvNtNtCshWAJ4lei3LP_18realestate_backend8handlers11importacion12extract_file0s_0B9_
FNDA:0,_RNCNCNvNtNtCshWAJ4lei3LP_18realestate_backend8handlers11importacion17confirmar_preview00B9_
FNDA:0,_RNCNCNvNtNtCshWAJ4lei3LP_18realestate_backend8handlers11importacion17confirmar_preview0s0_0B9_
FNDA:0,_RNCNCNvNtNtCshWAJ4lei3LP_18realestate_backend8handlers11importacion17confirmar_preview0s_0B9_
FNDA:0,_RNCNCNvNtNtCshWAJ4lei3LP_18realestate_backend8handlers11importacion23validate_preview_fields00B9_
FNDA:0,_RNCNCNvNtNtCshWAJ4lei3LP_18realestate_backend8handlers11importacion23validate_preview_fields0s_0B9_
FNDA:0,_RNCNvNtNtCshWAJ4lei3LP_18realestate_backend8handlers11importacion12extract_file0B7_
FNDA:0,_RNCNvNtNtCshWAJ4lei3LP_18realestate_backend8handlers11importacion14importar_pagos0B7_
FNDA:0,_RNCNvNtNtCshWAJ4lei3LP_18realestate_backend8handlers11importacion15importar_gastos0B7_
FNDA:0,_RNCNvNtNtCshWAJ4lei3LP_18realestate_backend8handlers11importacion17confirmar_preview0B7_
FNDA:0,_RNCNvNtNtCshWAJ4lei3LP_18realestate_backend8handlers11importacion17descartar_preview0B7_
FNDA:0,_RNCNvNtNtCshWAJ4lei3LP_18realestate_backend8handlers11importacion19importar_inquilinos0B7_
FNDA:0,_RNCNvNtNtCshWAJ4lei3LP_18realestate_backend8handlers11importacion20importar_propiedades0B7_
FNDA:0,_RNCNvNtNtCshWAJ4lei3LP_18realestate_backend8handlers11importacion23validate_preview_fields0B7_
FNDA:0,_RNCNvNtNtCshWAJ4lei3LP_18realestate_backend8handlers11importacion23validate_preview_fieldss_0B7_
FNDA:0,_RNvNtNtCshWAJ4lei3LP_18realestate_backend8handlers11importacion12extract_file
FNDA:0,_RNvNtNtCshWAJ4lei3LP_18realestate_backend8handlers11importacion13detect_format
FNDA:0,_RNvNtNtCshWAJ4lei3LP_18realestate_backend8handlers11importacion23validate_preview_fields
FNDA:0,_RNvNtNtCshWAJ4lei3LP_18realestate_backend8handlers11importacion26content_type_from_filename
FNDA:0,_RNvNtNtCshWAJ4lei3LP_18realestate_backend8handlers11importacion14importar_pagos
FNDA:0,_RNvNtNtCshWAJ4lei3LP_18realestate_backend8handlers11importacion15importar_gastos
FNDA:0,_RNvNtNtCshWAJ4lei3LP_18realestate_backend8handlers11importacion17confirmar_preview
FNDA:0,_RNvNtNtCshWAJ4lei3LP_18realestate_backend8handlers11importacion17descartar_preview
FNDA:0,_RNvNtNtCshWAJ4lei3LP_18realestate_backend8handlers11importacion19importar_inquilinos
FNDA:0,_RNvNtNtCshWAJ4lei3LP_18realestate_backend8handlers11importacion20importar_propiedades
FNF:30
FNH:0
DA:17,0
DA:18,0
DA:19,0
DA:20,0
DA:21,0
DA:22,0
DA:23,0
DA:24,0
DA:25,0
DA:26,0
DA:27,0
DA:28,0
DA:30,0
DA:32,0
DA:33,0
DA:34,0
DA:36,0
DA:39,0
DA:40,0
DA:41,0
DA:43,0
DA:44,0
DA:45,0
DA:47,0
DA:48,0
DA:49,0
DA:50,0
DA:51,0
DA:52,0
DA:54,0
DA:55,0
DA:56,0
DA:57,0
DA:58,0
DA:60,0
DA:61,0
DA:62,0
DA:63,0
DA:64,0
DA:66,0
DA:67,0
DA:70,0
DA:71,0
DA:72,0
DA:73,0
DA:74,0
DA:76,0
DA:77,0
DA:80,0
DA:81,0
DA:82,0
DA:83,0
DA:84,0
DA:85,0
DA:86,0
DA:87,0
DA:88,0
DA:89,0
DA:90,0
DA:91,0
DA:92,0
DA:93,0
DA:94,0
DA:95,0
DA:96,0
DA:99,0
DA:100,0
DA:101,0
DA:102,0
DA:103,0
DA:104,0
DA:105,0
DA:106,0
DA:107,0
DA:108,0
DA:109,0
DA:110,0
DA:111,0
DA:112,0
DA:113,0
DA:114,0
DA:115,0
DA:117,0
DA:118,0
DA:119,0
DA:120,0
DA:121,0
DA:122,0
DA:123,0
DA:124,0
DA:126,0
DA:128,0
DA:131,0
DA:132,0
DA:133,0
DA:134,0
DA:135,0
DA:136,0
DA:137,0
DA:138,0
DA:140,0
DA:142,0
DA:143,0
DA:144,0
DA:145,0
DA:146,0
DA:147,0
DA:149,0
DA:150,0
DA:151,0
DA:152,0
DA:154,0
DA:157,0
DA:158,0
DA:159,0
DA:160,0
DA:161,0
DA:162,0
DA:163,0
DA:164,0
DA:166,0
DA:167,0
DA:168,0
DA:169,0
DA:170,0
DA:171,0
DA:172,0
DA:174,0
DA:175,0
DA:176,0
DA:177,0
DA:178,0
DA:179,0
DA:180,0
DA:181,0
DA:182,0
DA:184,0
DA:186,0
DA:187,0
DA:188,0
DA:189,0
DA:190,0
DA:191,0
DA:192,0
DA:193,0
DA:194,0
DA:196,0
DA:197,0
DA:198,0
DA:199,0
DA:200,0
DA:201,0
DA:203,0
DA:205,0
DA:207,0
DA:208,0
DA:209,0
DA:210,0
DA:211,0
DA:212,0
DA:213,0
DA:214,0
DA:216,0
DA:217,0
DA:218,0
DA:219,0
DA:220,0
DA:221,0
DA:224,0
DA:227,0
DA:228,0
DA:229,0
DA:230,0
DA:231,0
DA:232,0
DA:233,0
DA:235,0
DA:236,0
DA:237,0
DA:238,0
DA:239,0
DA:240,0
DA:241,0
DA:242,0
DA:244,0
DA:245,0
DA:246,0
DA:247,0
DA:248,0
DA:249,0
DA:250,0
DA:251,0
DA:252,0
DA:253,0
DA:255,0
DA:256,0
DA:257,0
DA:258,0
DA:260,0
DA:261,0
DA:262,0
DA:263,0
DA:264,0
DA:265,0
DA:266,0
DA:268,0
DA:269,0
DA:270,0
DA:271,0
DA:272,0
DA:273,0
DA:274,0
DA:276,0
DA:277,0
DA:279,0
DA:280,0
DA:281,0
DA:282,0
DA:283,0
DA:284,0
DA:285,0
DA:286,0
DA:287,0
DA:288,0
DA:289,0
DA:291,0
BRF:0
BRH:0
LF:247
LH:0
end_of_record
SF:/home/runner/_work/Gestion-inmobiliaria/Gestion-inmobiliaria/backend/src/handlers/indexacion.rs
FN:39,_RNCNvNtNtCsjO1mwjW04O1_18realestate_backend8handlers10indexacion15proximos_vencer0B7_
FN:15,_RNCNvNtNtCsjO1mwjW04O1_18realestate_backend8handlers10indexacion17obtener_propuesta0B7_
FN:26,_RNCNvNtNtCsjO1mwjW04O1_18realestate_backend8handlers10indexacion26aprobar_renovacion_handler0B7_
FN:36,_RNvNtNtCsjO1mwjW04O1_18realestate_backend8handlers10indexacion15proximos_vencer
FN:11,_RNvNtNtCsjO1mwjW04O1_18realestate_backend8handlers10indexacion17obtener_propuesta
FN:21,_RNvNtNtCsjO1mwjW04O1_18realestate_backend8handlers10indexacion26aprobar_renovacion_handler
FN:39,_RNCNvNtNtCshWAJ4lei3LP_18realestate_backend8handlers10indexacion15proximos_vencer0B7_
FN:15,_RNCNvNtNtCshWAJ4lei3LP_18realestate_backend8handlers10indexacion17obtener_propuesta0B7_
FN:26,_RNCNvNtNtCshWAJ4lei3LP_18realestate_backend8handlers10indexacion26aprobar_renovacion_handler0B7_
FN:36,_RNvNtNtCshWAJ4lei3LP_18realestate_backend8handlers10indexacion15proximos_vencer
FN:11,_RNvNtNtCshWAJ4lei3LP_18realestate_backend8handlers10indexacion17obtener_propuesta
FN:21,_RNvNtNtCshWAJ4lei3LP_18realestate_backend8handlers10indexacion26aprobar_renovacion_handler
FNDA:0,_RNCNvNtNtCsjO1mwjW04O1_18realestate_backend8handlers10indexacion15proximos_vencer0B7_
FNDA:0,_RNCNvNtNtCsjO1mwjW04O1_18realestate_backend8handlers10indexacion17obtener_propuesta0B7_
FNDA:0,_RNCNvNtNtCsjO1mwjW04O1_18realestate_backend8handlers10indexacion26aprobar_renovacion_handler0B7_
FNDA:0,_RNvNtNtCsjO1mwjW04O1_18realestate_backend8handlers10indexacion15proximos_vencer
FNDA:0,_RNvNtNtCsjO1mwjW04O1_18realestate_backend8handlers10indexacion17obtener_propuesta
FNDA:0,_RNvNtNtCsjO1mwjW04O1_18realestate_backend8handlers10indexacion26aprobar_renovacion_handler
FNDA:0,_RNCNvNtNtCshWAJ4lei3LP_18realestate_backend8handlers10indexacion15proximos_vencer0B7_
FNDA:0,_RNCNvNtNtCshWAJ4lei3LP_18realestate_backend8handlers10indexacion17obtener_propuesta0B7_
FNDA:0,_RNCNvNtNtCshWAJ4lei3LP_18realestate_backend8handlers10indexacion26aprobar_renovacion_handler0B7_
FNDA:0,_RNvNtNtCshWAJ4lei3LP_18realestate_backend8handlers10indexacion15proximos_vencer
FNDA:0,_RNvNtNtCshWAJ4lei3LP_18realestate_backend8handlers10indexacion17obtener_propuesta
FNDA:0,_RNvNtNtCshWAJ4lei3LP_18realestate_backend8handlers10indexacion26aprobar_renovacion_handler
FNF:6
FNH:0
DA:11,0
DA:12,0
DA:13,0
DA:14,0
DA:15,0
DA:16,0
DA:17,0
DA:18,0
DA:19,0
DA:21,0
DA:22,0
DA:23,0
DA:24,0
DA:25,0
DA:26,0
DA:27,0
DA:28,0
DA:29,0
DA:30,0
DA:31,0
DA:32,0
DA:33,0
DA:34,0
DA:36,0
DA:37,0
DA:38,0
DA:39,0
DA:40,0
DA:41,0
DA:42,0
DA:43,0
BRF:0
BRH:0
LF:34
LH:0
end_of_record
SF:/home/runner/_work/Gestion-inmobiliaria/Gestion-inmobiliaria/backend/src/handlers/inquilinos.rs
FN:108,_RNCNCNvNtNtCsjO1mwjW04O1_18realestate_backend8handlers10inquilinos4list00B9_
FN:106,_RNCNvNtNtCsjO1mwjW04O1_18realestate_backend8handlers10inquilinos4list0B7_
FN:134,_RNCNvNtNtCsjO1mwjW04O1_18realestate_backend8handlers10inquilinos6create0B7_
FN:166,_RNCNvNtNtCsjO1mwjW04O1_18realestate_backend8handlers10inquilinos6delete0B7_
FN:150,_RNCNvNtNtCsjO1mwjW04O1_18realestate_backend8handlers10inquilinos6update0B7_
FN:124,_RNCNvNtNtCsjO1mwjW04O1_18realestate_backend8handlers10inquilinos9get_by_id0B7_
FN:54,_RNvNtNtCsjO1mwjW04O1_18realestate_backend8handlers10inquilinos14validate_email
FN:40,_RNvNtNtCsjO1mwjW04O1_18realestate_backend8handlers10inquilinos15validate_cedula
FN:12,_RNvNtNtCsjO1mwjW04O1_18realestate_backend8handlers10inquilinos15validate_nombre
FN:26,_RNvNtNtCsjO1mwjW04O1_18realestate_backend8handlers10inquilinos17validate_apellido
FN:61,_RNvNtNtCsjO1mwjW04O1_18realestate_backend8handlers10inquilinos17validate_telefono
FN:70,_RNvNtNtCsjO1mwjW04O1_18realestate_backend8handlers10inquilinos25validate_create_inquilino
FN:83,_RNvNtNtCsjO1mwjW04O1_18realestate_backend8handlers10inquilinos25validate_update_inquilino
FN:102,_RNvNtNtCsjO1mwjW04O1_18realestate_backend8handlers10inquilinos4list
FN:130,_RNvNtNtCsjO1mwjW04O1_18realestate_backend8handlers10inquilinos6create
FN:162,_RNvNtNtCsjO1mwjW04O1_18realestate_backend8handlers10inquilinos6delete
FN:145,_RNvNtNtCsjO1mwjW04O1_18realestate_backend8handlers10inquilinos6update
FN:120,_RNvNtNtCsjO1mwjW04O1_18realestate_backend8handlers10inquilinos9get_by_id
FN:179,_RNCNvNtNtNtCshWAJ4lei3LP_18realestate_backend8handlers10inquilinos5tests19apply_search_filter0B9_
FN:178,_RNvNtNtNtCshWAJ4lei3LP_18realestate_backend8handlers10inquilinos5tests19apply_search_filter
FN:213,_RNvNtNtNtCshWAJ4lei3LP_18realestate_backend8handlers10inquilinos5testss_22both_none_returns_none
FN:183,_RNvNtNtNtCshWAJ4lei3LP_18realestate_backend8handlers10inquilinos5testss_35search_term_at_least_2_chars_passes
FN:201,_RNvNtNtNtCshWAJ4lei3LP_18realestate_backend8handlers10inquilinos5testss_37busqueda_takes_precedence_over_search
FN:219,_RNvNtNtNtCshWAJ4lei3LP_18realestate_backend8handlers10inquilinos5testss_38short_fallback_search_filtered_to_none
FN:189,_RNvNtNtNtCshWAJ4lei3LP_18realestate_backend8handlers10inquilinos5testss_40search_term_single_char_filtered_to_none
FN:195,_RNvNtNtNtCshWAJ4lei3LP_18realestate_backend8handlers10inquilinos5testss_41search_term_empty_string_filtered_to_none
FN:207,_RNvNtNtNtCshWAJ4lei3LP_18realestate_backend8handlers10inquilinos5testss_42falls_back_to_search_when_busqueda_is_none
FN:102,_RNvNtNtCshWAJ4lei3LP_18realestate_backend8handlers10inquilinos4list
FN:130,_RNvNtNtCshWAJ4lei3LP_18realestate_backend8handlers10inquilinos6create
FN:162,_RNvNtNtCshWAJ4lei3LP_18realestate_backend8handlers10inquilinos6delete
FN:145,_RNvNtNtCshWAJ4lei3LP_18realestate_backend8handlers10inquilinos6update
FN:120,_RNvNtNtCshWAJ4lei3LP_18realestate_backend8handlers10inquilinos9get_by_id
FN:108,_RNCNCNvNtNtCshWAJ4lei3LP_18realestate_backend8handlers10inquilinos4list00B9_
FN:106,_RNCNvNtNtCshWAJ4lei3LP_18realestate_backend8handlers10inquilinos4list0B7_
FN:134,_RNCNvNtNtCshWAJ4lei3LP_18realestate_backend8handlers10inquilinos6create0B7_
FN:166,_RNCNvNtNtCshWAJ4lei3LP_18realestate_backend8handlers10inquilinos6delete0B7_
FN:150,_RNCNvNtNtCshWAJ4lei3LP_18realestate_backend8handlers10inquilinos6update0B7_
FN:124,_RNCNvNtNtCshWAJ4lei3LP_18realestate_backend8handlers10inquilinos9get_by_id0B7_
FN:54,_RNvNtNtCshWAJ4lei3LP_18realestate_backend8handlers10inquilinos14validate_email
FN:40,_RNvNtNtCshWAJ4lei3LP_18realestate_backend8handlers10inquilinos15validate_cedula
FN:12,_RNvNtNtCshWAJ4lei3LP_18realestate_backend8handlers10inquilinos15validate_nombre
FN:26,_RNvNtNtCshWAJ4lei3LP_18realestate_backend8handlers10inquilinos17validate_apellido
FN:61,_RNvNtNtCshWAJ4lei3LP_18realestate_backend8handlers10inquilinos17validate_telefono
FN:70,_RNvNtNtCshWAJ4lei3LP_18realestate_backend8handlers10inquilinos25validate_create_inquilino
FN:83,_RNvNtNtCshWAJ4lei3LP_18realestate_backend8handlers10inquilinos25validate_update_inquilino
FNDA:0,_RNCNCNvNtNtCsjO1mwjW04O1_18realestate_backend8handlers10inquilinos4list00B9_
FNDA:0,_RNCNvNtNtCsjO1mwjW04O1_18realestate_backend8handlers10inquilinos4list0B7_
FNDA:0,_RNCNvNtNtCsjO1mwjW04O1_18realestate_backend8handlers10inquilinos6create0B7_
FNDA:0,_RNCNvNtNtCsjO1mwjW04O1_18realestate_backend8handlers10inquilinos6delete0B7_
FNDA:0,_RNCNvNtNtCsjO1mwjW04O1_18realestate_backend8handlers10inquilinos6update0B7_
FNDA:0,_RNCNvNtNtCsjO1mwjW04O1_18realestate_backend8handlers10inquilinos9get_by_id0B7_
FNDA:0,_RNvNtNtCsjO1mwjW04O1_18realestate_backend8handlers10inquilinos14validate_email
FNDA:0,_RNvNtNtCsjO1mwjW04O1_18realestate_backend8handlers10inquilinos15validate_cedula
FNDA:0,_RNvNtNtCsjO1mwjW04O1_18realestate_backend8handlers10inquilinos15validate_nombre
FNDA:0,_RNvNtNtCsjO1mwjW04O1_18realestate_backend8handlers10inquilinos17validate_apellido
FNDA:0,_RNvNtNtCsjO1mwjW04O1_18realestate_backend8handlers10inquilinos17validate_telefono
FNDA:0,_RNvNtNtCsjO1mwjW04O1_18realestate_backend8handlers10inquilinos25validate_create_inquilino
FNDA:0,_RNvNtNtCsjO1mwjW04O1_18realestate_backend8handlers10inquilinos25validate_update_inquilino
FNDA:0,_RNvNtNtCsjO1mwjW04O1_18realestate_backend8handlers10inquilinos4list
FNDA:0,_RNvNtNtCsjO1mwjW04O1_18realestate_backend8handlers10inquilinos6create
FNDA:0,_RNvNtNtCsjO1mwjW04O1_18realestate_backend8handlers10inquilinos6delete
FNDA:0,_RNvNtNtCsjO1mwjW04O1_18realestate_backend8handlers10inquilinos6update
FNDA:0,_RNvNtNtCsjO1mwjW04O1_18realestate_backend8handlers10inquilinos9get_by_id
FNDA:6,_RNCNvNtNtNtCshWAJ4lei3LP_18realestate_backend8handlers10inquilinos5tests19apply_search_filter0B9_
FNDA:7,_RNvNtNtNtCshWAJ4lei3LP_18realestate_backend8handlers10inquilinos5tests19apply_search_filter
FNDA:1,_RNvNtNtNtCshWAJ4lei3LP_18realestate_backend8handlers10inquilinos5testss_22both_none_returns_none
FNDA:1,_RNvNtNtNtCshWAJ4lei3LP_18realestate_backend8handlers10inquilinos5testss_35search_term_at_least_2_chars_passes
FNDA:1,_RNvNtNtNtCshWAJ4lei3LP_18realestate_backend8handlers10inquilinos5testss_37busqueda_takes_precedence_over_search
FNDA:1,_RNvNtNtNtCshWAJ4lei3LP_18realestate_backend8handlers10inquilinos5testss_38short_fallback_search_filtered_to_none
FNDA:1,_RNvNtNtNtCshWAJ4lei3LP_18realestate_backend8handlers10inquilinos5testss_40search_term_single_char_filtered_to_none
FNDA:1,_RNvNtNtNtCshWAJ4lei3LP_18realestate_backend8handlers10inquilinos5testss_41search_term_empty_string_filtered_to_none
FNDA:1,_RNvNtNtNtCshWAJ4lei3LP_18realestate_backend8handlers10inquilinos5testss_42falls_back_to_search_when_busqueda_is_none
FNDA:0,_RNvNtNtCshWAJ4lei3LP_18realestate_backend8handlers10inquilinos4list
FNDA:0,_RNvNtNtCshWAJ4lei3LP_18realestate_backend8handlers10inquilinos6create
FNDA:0,_RNvNtNtCshWAJ4lei3LP_18realestate_backend8handlers10inquilinos6delete
FNDA:0,_RNvNtNtCshWAJ4lei3LP_18realestate_backend8handlers10inquilinos6update
FNDA:0,_RNvNtNtCshWAJ4lei3LP_18realestate_backend8handlers10inquilinos9get_by_id
FNDA:0,_RNCNCNvNtNtCshWAJ4lei3LP_18realestate_backend8handlers10inquilinos4list00B9_
FNDA:0,_RNCNvNtNtCshWAJ4lei3LP_18realestate_backend8handlers10inquilinos4list0B7_
FNDA:0,_RNCNvNtNtCshWAJ4lei3LP_18realestate_backend8handlers10inquilinos6create0B7_
FNDA:0,_RNCNvNtNtCshWAJ4lei3LP_18realestate_backend8handlers10inquilinos6delete0B7_
FNDA:0,_RNCNvNtNtCshWAJ4lei3LP_18realestate_backend8handlers10inquilinos6update0B7_
FNDA:0,_RNCNvNtNtCshWAJ4lei3LP_18realestate_backend8handlers10inquilinos9get_by_id0B7_
FNDA:0,_RNvNtNtCshWAJ4lei3LP_18realestate_backend8handlers10inquilinos14validate_email
FNDA:0,_RNvNtNtCshWAJ4lei3LP_18realestate_backend8handlers10inquilinos15validate_cedula
FNDA:0,_RNvNtNtCshWAJ4lei3LP_18realestate_backend8handlers10inquilinos15validate_nombre
FNDA:0,_RNvNtNtCshWAJ4lei3LP_18realestate_backend8handlers10inquilinos17validate_apellido
FNDA:0,_RNvNtNtCshWAJ4lei3LP_18realestate_backend8handlers10inquilinos17validate_telefono
FNDA:0,_RNvNtNtCshWAJ4lei3LP_18realestate_backend8handlers10inquilinos25validate_create_inquilino
FNDA:0,_RNvNtNtCshWAJ4lei3LP_18realestate_backend8handlers10inquilinos25validate_update_inquilino
FNF:27
FNH:9
DA:12,0
DA:13,0
DA:14,0
DA:15,0
DA:16,0
DA:17,0
DA:18,0
DA:19,0
DA:20,0
DA:21,0
DA:22,0
DA:23,0
DA:24,0
DA:26,0
DA:27,0
DA:28,0
DA:29,0
DA:30,0
DA:31,0
DA:32,0
DA:33,0
DA:34,0
DA:35,0
DA:36,0
DA:37,0
DA:38,0
DA:40,0
DA:41,0
DA:42,0
DA:43,0
DA:44,0
DA:45,0
DA:46,0
DA:47,0
DA:48,0
DA:49,0
DA:50,0
DA:51,0
DA:52,0
DA:54,0
DA:55,0
DA:56,0
DA:57,0
DA:58,0
DA:59,0
DA:61,0
DA:62,0
DA:63,0
DA:64,0
DA:65,0
DA:66,0
DA:67,0
DA:68,0
DA:70,0
DA:71,0
DA:72,0
DA:73,0
DA:74,0
DA:75,0
DA:76,0
DA:77,0
DA:78,0
DA:79,0
DA:80,0
DA:81,0
DA:83,0
DA:84,0
DA:85,0
DA:86,0
DA:87,0
DA:88,0
DA:89,0
DA:90,0
DA:91,0
DA:92,0
DA:93,0
DA:94,0
DA:95,0
DA:96,0
DA:97,0
DA:98,0
DA:99,0
DA:100,0
DA:102,0
DA:103,0
DA:104,0
DA:105,0
DA:106,0
DA:107,0
DA:108,0
DA:109,0
DA:110,0
DA:111,0
DA:112,0
DA:113,0
DA:114,0
DA:115,0
DA:116,0
DA:117,0
DA:118,0
DA:120,0
DA:121,0
DA:122,0
DA:123,0
DA:124,0
DA:125,0
DA:126,0
DA:127,0
DA:128,0
DA:130,0
DA:131,0
DA:132,0
DA:133,0
DA:134,0
DA:135,0
DA:136,0
DA:137,0
DA:138,0
DA:139,0
DA:140,0
DA:141,0
DA:142,0
DA:143,0
DA:145,0
DA:146,0
DA:147,0
DA:148,0
DA:149,0
DA:150,0
DA:151,0
DA:152,0
DA:153,0
DA:154,0
DA:155,0
DA:156,0
DA:157,0
DA:158,0
DA:159,0
DA:160,0
DA:162,0
DA:163,0
DA:164,0
DA:165,0
DA:166,0
DA:167,0
DA:168,0
DA:169,0
DA:170,0
DA:171,0
DA:172,0
DA:173,0
DA:174,0
DA:178,7
DA:179,7
DA:180,7
DA:183,1
DA:184,1
DA:185,1
DA:186,1
DA:189,1
DA:190,1
DA:191,1
DA:192,1
DA:195,1
DA:196,1
DA:197,1
DA:198,1
DA:201,1
DA:202,1
DA:203,1
DA:204,1
DA:207,1
DA:208,1
DA:209,1
DA:210,1
DA:213,1
DA:214,1
DA:215,1
DA:216,1
DA:219,1
DA:220,1
DA:221,1
DA:222,1
BRF:0
BRH:0
LF:190
LH:32
end_of_record
SF:/home/runner/_work/Gestion-inmobiliaria/Gestion-inmobiliaria/backend/src/handlers/invitaciones.rs
FN:14,_RNCNvNtNtCsjO1mwjW04O1_18realestate_backend8handlers12invitaciones5crear0B7_
FN:24,_RNCNvNtNtCsjO1mwjW04O1_18realestate_backend8handlers12invitaciones6listar0B7_
FN:36,_RNCNvNtNtCsjO1mwjW04O1_18realestate_backend8handlers12invitaciones7revocar0B7_
FN:10,_RNvNtNtCsjO1mwjW04O1_18realestate_backend8handlers12invitaciones5crear
FN:20,_RNvNtNtCsjO1mwjW04O1_18realestate_backend8handlers12invitaciones6listar
FN:32,_RNvNtNtCsjO1mwjW04O1_18realestate_backend8handlers12invitaciones7revocar
FN:14,_RNCNvNtNtCshWAJ4lei3LP_18realestate_backend8handlers12invitaciones5crear0B7_
FN:24,_RNCNvNtNtCshWAJ4lei3LP_18realestate_backend8handlers12invitaciones6listar0B7_
FN:36,_RNCNvNtNtCshWAJ4lei3LP_18realestate_backend8handlers12invitaciones7revocar0B7_
FN:10,_RNvNtNtCshWAJ4lei3LP_18realestate_backend8handlers12invitaciones5crear
FN:20,_RNvNtNtCshWAJ4lei3LP_18realestate_backend8handlers12invitaciones6listar
FN:32,_RNvNtNtCshWAJ4lei3LP_18realestate_backend8handlers12invitaciones7revocar
FNDA:0,_RNCNvNtNtCsjO1mwjW04O1_18realestate_backend8handlers12invitaciones5crear0B7_
FNDA:0,_RNCNvNtNtCsjO1mwjW04O1_18realestate_backend8handlers12invitaciones6listar0B7_
FNDA:0,_RNCNvNtNtCsjO1mwjW04O1_18realestate_backend8handlers12invitaciones7revocar0B7_
FNDA:0,_RNvNtNtCsjO1mwjW04O1_18realestate_backend8handlers12invitaciones5crear
FNDA:0,_RNvNtNtCsjO1mwjW04O1_18realestate_backend8handlers12invitaciones6listar
FNDA:0,_RNvNtNtCsjO1mwjW04O1_18realestate_backend8handlers12invitaciones7revocar
FNDA:0,_RNCNvNtNtCshWAJ4lei3LP_18realestate_backend8handlers12invitaciones5crear0B7_
FNDA:0,_RNCNvNtNtCshWAJ4lei3LP_18realestate_backend8handlers12invitaciones6listar0B7_
FNDA:0,_RNCNvNtNtCshWAJ4lei3LP_18realestate_backend8handlers12invitaciones7revocar0B7_
FNDA:0,_RNvNtNtCshWAJ4lei3LP_18realestate_backend8handlers12invitaciones5crear
FNDA:0,_RNvNtNtCshWAJ4lei3LP_18realestate_backend8handlers12invitaciones6listar
FNDA:0,_RNvNtNtCshWAJ4lei3LP_18realestate_backend8handlers12invitaciones7revocar
FNF:6
FNH:0
DA:10,0
DA:11,0
DA:12,0
DA:13,0
DA:14,0
DA:15,0
DA:16,0
DA:17,0
DA:18,0
DA:20,0
DA:21,0
DA:22,0
DA:23,0
DA:24,0
DA:25,0
DA:26,0
DA:27,0
DA:28,0
DA:29,0
DA:30,0
DA:32,0
DA:33,0
DA:34,0
DA:35,0
DA:36,0
DA:37,0
DA:38,0
DA:39,0
DA:40,0
BRF:0
BRH:0
LF:32
LH:0
end_of_record
SF:/home/runner/_work/Gestion-inmobiliaria/Gestion-inmobiliaria/backend/src/handlers/ipc.rs
FN:16,_RNCNCNvNtNtCsjO1mwjW04O1_18realestate_backend8handlers3ipc11obtener_ipc00B9_
FN:22,_RNCNCNvNtNtCsjO1mwjW04O1_18realestate_backend8handlers3ipc11obtener_ipc0s_0B9_
FN:12,_RNCNvNtNtCsjO1mwjW04O1_18realestate_backend8handlers3ipc11obtener_ipc0B7_
FN:37,_RNCNvNtNtCsjO1mwjW04O1_18realestate_backend8handlers3ipc14actualizar_ipc0B7_
FN:9,_RNvNtNtCsjO1mwjW04O1_18realestate_backend8handlers3ipc11obtener_ipc
FN:33,_RNvNtNtCsjO1mwjW04O1_18realestate_backend8handlers3ipc14actualizar_ipc
FN:16,_RNCNCNvNtNtCshWAJ4lei3LP_18realestate_backend8handlers3ipc11obtener_ipc00B9_
FN:22,_RNCNCNvNtNtCshWAJ4lei3LP_18realestate_backend8handlers3ipc11obtener_ipc0s_0B9_
FN:12,_RNCNvNtNtCshWAJ4lei3LP_18realestate_backend8handlers3ipc11obtener_ipc0B7_
FN:37,_RNCNvNtNtCshWAJ4lei3LP_18realestate_backend8handlers3ipc14actualizar_ipc0B7_
FN:9,_RNvNtNtCshWAJ4lei3LP_18realestate_backend8handlers3ipc11obtener_ipc
FN:33,_RNvNtNtCshWAJ4lei3LP_18realestate_backend8handlers3ipc14actualizar_ipc
FNDA:0,_RNCNCNvNtNtCsjO1mwjW04O1_18realestate_backend8handlers3ipc11obtener_ipc00B9_
FNDA:0,_RNCNCNvNtNtCsjO1mwjW04O1_18realestate_backend8handlers3ipc11obtener_ipc0s_0B9_
FNDA:0,_RNCNvNtNtCsjO1mwjW04O1_18realestate_backend8handlers3ipc11obtener_ipc0B7_
FNDA:0,_RNCNvNtNtCsjO1mwjW04O1_18realestate_backend8handlers3ipc14actualizar_ipc0B7_
FNDA:0,_RNvNtNtCsjO1mwjW04O1_18realestate_backend8handlers3ipc11obtener_ipc
FNDA:0,_RNvNtNtCsjO1mwjW04O1_18realestate_backend8handlers3ipc14actualizar_ipc
FNDA:0,_RNCNCNvNtNtCshWAJ4lei3LP_18realestate_backend8handlers3ipc11obtener_ipc00B9_
FNDA:0,_RNCNCNvNtNtCshWAJ4lei3LP_18realestate_backend8handlers3ipc11obtener_ipc0s_0B9_
FNDA:0,_RNCNvNtNtCshWAJ4lei3LP_18realestate_backend8handlers3ipc11obtener_ipc0B7_
FNDA:0,_RNCNvNtNtCshWAJ4lei3LP_18realestate_backend8handlers3ipc14actualizar_ipc0B7_
FNDA:0,_RNvNtNtCshWAJ4lei3LP_18realestate_backend8handlers3ipc11obtener_ipc
FNDA:0,_RNvNtNtCshWAJ4lei3LP_18realestate_backend8handlers3ipc14actualizar_ipc
FNF:6
FNH:0
DA:9,0
DA:10,0
DA:11,0
DA:12,0
DA:13,0
DA:15,0
DA:16,0
DA:17,0
DA:18,0
DA:19,0
DA:20,0
DA:21,0
DA:22,0
DA:23,0
DA:24,0
DA:25,0
DA:26,0
DA:27,0
DA:28,0
DA:29,0
DA:31,0
DA:33,0
DA:34,0
DA:35,0
DA:36,0
DA:37,0
DA:38,0
DA:40,0
DA:41,0
DA:42,0
DA:43,0
DA:44,0
DA:46,0
DA:47,0
BRF:0
BRH:0
LF:36
LH:0
end_of_record
SF:/home/runner/_work/Gestion-inmobiliaria/Gestion-inmobiliaria/backend/src/handlers/ipi.rs
FN:34,_RNCNvNtNtCsjO1mwjW04O1_18realestate_backend8handlers3ipi17actualizar_umbral0B7_
FN:54,_RNCNvNtNtCsjO1mwjW04O1_18realestate_backend8handlers3ipi19crear_copropietario0B7_
FN:24,_RNCNvNtNtCsjO1mwjW04O1_18realestate_backend8handlers3ipi20calcular_ipi_handler0B7_
FN:44,_RNCNvNtNtCsjO1mwjW04O1_18realestate_backend8handlers3ipi21listar_copropietarios0B7_
FN:30,_RNvNtNtCsjO1mwjW04O1_18realestate_backend8handlers3ipi17actualizar_umbral
FN:50,_RNvNtNtCsjO1mwjW04O1_18realestate_backend8handlers3ipi19crear_copropietario
FN:21,_RNvNtNtCsjO1mwjW04O1_18realestate_backend8handlers3ipi20calcular_ipi_handler
FN:40,_RNvNtNtCsjO1mwjW04O1_18realestate_backend8handlers3ipi21listar_copropietarios
FN:30,_RNvNtNtCshWAJ4lei3LP_18realestate_backend8handlers3ipi17actualizar_umbral
FN:50,_RNvNtNtCshWAJ4lei3LP_18realestate_backend8handlers3ipi19crear_copropietario
FN:21,_RNvNtNtCshWAJ4lei3LP_18realestate_backend8handlers3ipi20calcular_ipi_handler
FN:40,_RNvNtNtCshWAJ4lei3LP_18realestate_backend8handlers3ipi21listar_copropietarios
FN:34,_RNCNvNtNtCshWAJ4lei3LP_18realestate_backend8handlers3ipi17actualizar_umbral0B7_
FN:54,_RNCNvNtNtCshWAJ4lei3LP_18realestate_backend8handlers3ipi19crear_copropietario0B7_
FN:24,_RNCNvNtNtCshWAJ4lei3LP_18realestate_backend8handlers3ipi20calcular_ipi_handler0B7_
FN:44,_RNCNvNtNtCshWAJ4lei3LP_18realestate_backend8handlers3ipi21listar_copropietarios0B7_
FNDA:0,_RNCNvNtNtCsjO1mwjW04O1_18realestate_backend8handlers3ipi17actualizar_umbral0B7_
FNDA:0,_RNCNvNtNtCsjO1mwjW04O1_18realestate_backend8handlers3ipi19crear_copropietario0B7_
FNDA:0,_RNCNvNtNtCsjO1mwjW04O1_18realestate_backend8handlers3ipi20calcular_ipi_handler0B7_
FNDA:0,_RNCNvNtNtCsjO1mwjW04O1_18realestate_backend8handlers3ipi21listar_copropietarios0B7_
FNDA:0,_RNvNtNtCsjO1mwjW04O1_18realestate_backend8handlers3ipi17actualizar_umbral
FNDA:0,_RNvNtNtCsjO1mwjW04O1_18realestate_backend8handlers3ipi19crear_copropietario
FNDA:0,_RNvNtNtCsjO1mwjW04O1_18realestate_backend8handlers3ipi20calcular_ipi_handler
FNDA:0,_RNvNtNtCsjO1mwjW04O1_18realestate_backend8handlers3ipi21listar_copropietarios
FNDA:0,_RNvNtNtCshWAJ4lei3LP_18realestate_backend8handlers3ipi17actualizar_umbral
FNDA:0,_RNvNtNtCshWAJ4lei3LP_18realestate_backend8handlers3ipi19crear_copropietario
FNDA:0,_RNvNtNtCshWAJ4lei3LP_18realestate_backend8handlers3ipi20calcular_ipi_handler
FNDA:0,_RNvNtNtCshWAJ4lei3LP_18realestate_backend8handlers3ipi21listar_copropietarios
FNDA:0,_RNCNvNtNtCshWAJ4lei3LP_18realestate_backend8handlers3ipi17actualizar_umbral0B7_
FNDA:0,_RNCNvNtNtCshWAJ4lei3LP_18realestate_backend8handlers3ipi19crear_copropietario0B7_
FNDA:0,_RNCNvNtNtCshWAJ4lei3LP_18realestate_backend8handlers3ipi20calcular_ipi_handler0B7_
FNDA:0,_RNCNvNtNtCshWAJ4lei3LP_18realestate_backend8handlers3ipi21listar_copropietarios0B7_
FNF:8
FNH:0
DA:21,0
DA:22,0
DA:23,0
DA:24,0
DA:25,0
DA:26,0
DA:27,0
DA:28,0
DA:30,0
DA:31,0
DA:32,0
DA:33,0
DA:34,0
DA:35,0
DA:36,0
DA:37,0
DA:38,0
DA:40,0
DA:41,0
DA:42,0
DA:43,0
DA:44,0
DA:45,0
DA:46,0
DA:47,0
DA:48,0
DA:50,0
DA:51,0
DA:52,0
DA:53,0
DA:54,0
DA:55,0
DA:56,0
DA:57,0
DA:58,0
DA:59,0
DA:60,0
DA:61,0
DA:62,0
DA:63,0
DA:64,0
DA:65,0
DA:66,0
DA:67,0
BRF:0
BRH:0
LF:48
LH:0
end_of_record
SF:/home/runner/_work/Gestion-inmobiliaria/Gestion-inmobiliaria/backend/src/handlers/mantenimiento.rs
FN:192,_RNCNvNtNtCsjO1mwjW04O1_18realestate_backend8handlers13mantenimiento12agregar_nota0B7_
FN:161,_RNCNvNtNtCsjO1mwjW04O1_18realestate_backend8handlers13mantenimiento14cambiar_estado0B7_
FN:108,_RNCNvNtNtCsjO1mwjW04O1_18realestate_backend8handlers13mantenimiento4list0B7_
FN:128,_RNCNvNtNtCsjO1mwjW04O1_18realestate_backend8handlers13mantenimiento6create0B7_
FN:177,_RNCNvNtNtCsjO1mwjW04O1_18realestate_backend8handlers13mantenimiento6delete0B7_
FN:144,_RNCNvNtNtCsjO1mwjW04O1_18realestate_backend8handlers13mantenimiento6update0B7_
FN:118,_RNCNvNtNtCsjO1mwjW04O1_18realestate_backend8handlers13mantenimiento9get_by_id0B7_
FN:187,_RNvNtNtCsjO1mwjW04O1_18realestate_backend8handlers13mantenimiento12agregar_nota
FN:156,_RNvNtNtCsjO1mwjW04O1_18realestate_backend8handlers13mantenimiento14cambiar_estado
FN:25,_RNvNtNtCsjO1mwjW04O1_18realestate_backend8handlers13mantenimiento14validate_costo
FN:16,_RNvNtNtCsjO1mwjW04O1_18realestate_backend8handlers13mantenimiento20validate_descripcion
FN:94,_RNvNtNtCsjO1mwjW04O1_18realestate_backend8handlers13mantenimiento23validate_cambiar_estado
FN:34,_RNvNtNtCsjO1mwjW04O1_18realestate_backend8handlers13mantenimiento25validate_create_solicitud
FN:68,_RNvNtNtCsjO1mwjW04O1_18realestate_backend8handlers13mantenimiento25validate_update_solicitud
FN:104,_RNvNtNtCsjO1mwjW04O1_18realestate_backend8handlers13mantenimiento4list
FN:124,_RNvNtNtCsjO1mwjW04O1_18realestate_backend8handlers13mantenimiento6create
FN:173,_RNvNtNtCsjO1mwjW04O1_18realestate_backend8handlers13mantenimiento6delete
FN:139,_RNvNtNtCsjO1mwjW04O1_18realestate_backend8handlers13mantenimiento6update
FN:114,_RNvNtNtCsjO1mwjW04O1_18realestate_backend8handlers13mantenimiento9get_by_id
FN:192,_RNCNvNtNtCshWAJ4lei3LP_18realestate_backend8handlers13mantenimiento12agregar_nota0B7_
FN:161,_RNCNvNtNtCshWAJ4lei3LP_18realestate_backend8handlers13mantenimiento14cambiar_estado0B7_
FN:108,_RNCNvNtNtCshWAJ4lei3LP_18realestate_backend8handlers13mantenimiento4list0B7_
FN:128,_RNCNvNtNtCshWAJ4lei3LP_18realestate_backend8handlers13mantenimiento6create0B7_
FN:177,_RNCNvNtNtCshWAJ4lei3LP_18realestate_backend8handlers13mantenimiento6delete0B7_
FN:144,_RNCNvNtNtCshWAJ4lei3LP_18realestate_backend8handlers13mantenimiento6update0B7_
FN:118,_RNCNvNtNtCshWAJ4lei3LP_18realestate_backend8handlers13mantenimiento9get_by_id0B7_
FN:25,_RNvNtNtCshWAJ4lei3LP_18realestate_backend8handlers13mantenimiento14validate_costo
FN:16,_RNvNtNtCshWAJ4lei3LP_18realestate_backend8handlers13mantenimiento20validate_descripcion
FN:94,_RNvNtNtCshWAJ4lei3LP_18realestate_backend8handlers13mantenimiento23validate_cambiar_estado
FN:34,_RNvNtNtCshWAJ4lei3LP_18realestate_backend8handlers13mantenimiento25validate_create_solicitud
FN:68,_RNvNtNtCshWAJ4lei3LP_18realestate_backend8handlers13mantenimiento25validate_update_solicitud
FN:187,_RNvNtNtCshWAJ4lei3LP_18realestate_backend8handlers13mantenimiento12agregar_nota
FN:156,_RNvNtNtCshWAJ4lei3LP_18realestate_backend8handlers13mantenimiento14cambiar_estado
FN:104,_RNvNtNtCshWAJ4lei3LP_18realestate_backend8handlers13mantenimiento4list
FN:124,_RNvNtNtCshWAJ4lei3LP_18realestate_backend8handlers13mantenimiento6create
FN:173,_RNvNtNtCshWAJ4lei3LP_18realestate_backend8handlers13mantenimiento6delete
FN:139,_RNvNtNtCshWAJ4lei3LP_18realestate_backend8handlers13mantenimiento6update
FN:114,_RNvNtNtCshWAJ4lei3LP_18realestate_backend8handlers13mantenimiento9get_by_id
FNDA:0,_RNCNvNtNtCsjO1mwjW04O1_18realestate_backend8handlers13mantenimiento12agregar_nota0B7_
FNDA:0,_RNCNvNtNtCsjO1mwjW04O1_18realestate_backend8handlers13mantenimiento14cambiar_estado0B7_
FNDA:0,_RNCNvNtNtCsjO1mwjW04O1_18realestate_backend8handlers13mantenimiento4list0B7_
FNDA:0,_RNCNvNtNtCsjO1mwjW04O1_18realestate_backend8handlers13mantenimiento6create0B7_
FNDA:0,_RNCNvNtNtCsjO1mwjW04O1_18realestate_backend8handlers13mantenimiento6delete0B7_
FNDA:0,_RNCNvNtNtCsjO1mwjW04O1_18realestate_backend8handlers13mantenimiento6update0B7_
FNDA:0,_RNCNvNtNtCsjO1mwjW04O1_18realestate_backend8handlers13mantenimiento9get_by_id0B7_
FNDA:0,_RNvNtNtCsjO1mwjW04O1_18realestate_backend8handlers13mantenimiento12agregar_nota
FNDA:0,_RNvNtNtCsjO1mwjW04O1_18realestate_backend8handlers13mantenimiento14cambiar_estado
FNDA:0,_RNvNtNtCsjO1mwjW04O1_18realestate_backend8handlers13mantenimiento14validate_costo
FNDA:0,_RNvNtNtCsjO1mwjW04O1_18realestate_backend8handlers13mantenimiento20validate_descripcion
FNDA:0,_RNvNtNtCsjO1mwjW04O1_18realestate_backend8handlers13mantenimiento23validate_cambiar_estado
FNDA:0,_RNvNtNtCsjO1mwjW04O1_18realestate_backend8handlers13mantenimiento25validate_create_solicitud
FNDA:0,_RNvNtNtCsjO1mwjW04O1_18realestate_backend8handlers13mantenimiento25validate_update_solicitud
FNDA:0,_RNvNtNtCsjO1mwjW04O1_18realestate_backend8handlers13mantenimiento4list
FNDA:0,_RNvNtNtCsjO1mwjW04O1_18realestate_backend8handlers13mantenimiento6create
FNDA:0,_RNvNtNtCsjO1mwjW04O1_18realestate_backend8handlers13mantenimiento6delete
FNDA:0,_RNvNtNtCsjO1mwjW04O1_18realestate_backend8handlers13mantenimiento6update
FNDA:0,_RNvNtNtCsjO1mwjW04O1_18realestate_backend8handlers13mantenimiento9get_by_id
FNDA:0,_RNCNvNtNtCshWAJ4lei3LP_18realestate_backend8handlers13mantenimiento12agregar_nota0B7_
FNDA:0,_RNCNvNtNtCshWAJ4lei3LP_18realestate_backend8handlers13mantenimiento14cambiar_estado0B7_
FNDA:0,_RNCNvNtNtCshWAJ4lei3LP_18realestate_backend8handlers13mantenimiento4list0B7_
FNDA:0,_RNCNvNtNtCshWAJ4lei3LP_18realestate_backend8handlers13mantenimiento6create0B7_
FNDA:0,_RNCNvNtNtCshWAJ4lei3LP_18realestate_backend8handlers13mantenimiento6delete0B7_
FNDA:0,_RNCNvNtNtCshWAJ4lei3LP_18realestate_backend8handlers13mantenimiento6update0B7_
FNDA:0,_RNCNvNtNtCshWAJ4lei3LP_18realestate_backend8handlers13mantenimiento9get_by_id0B7_
FNDA:0,_RNvNtNtCshWAJ4lei3LP_18realestate_backend8handlers13mantenimiento14validate_costo
FNDA:0,_RNvNtNtCshWAJ4lei3LP_18realestate_backend8handlers13mantenimiento20validate_descripcion
FNDA:0,_RNvNtNtCshWAJ4lei3LP_18realestate_backend8handlers13mantenimiento23validate_cambiar_estado
FNDA:0,_RNvNtNtCshWAJ4lei3LP_18realestate_backend8handlers13mantenimiento25validate_create_solicitud
FNDA:0,_RNvNtNtCshWAJ4lei3LP_18realestate_backend8handlers13mantenimiento25validate_update_solicitud
FNDA:0,_RNvNtNtCshWAJ4lei3LP_18realestate_backend8handlers13mantenimiento12agregar_nota
FNDA:0,_RNvNtNtCshWAJ4lei3LP_18realestate_backend8handlers13mantenimiento14cambiar_estado
FNDA:0,_RNvNtNtCshWAJ4lei3LP_18realestate_backend8handlers13mantenimiento4list
FNDA:0,_RNvNtNtCshWAJ4lei3LP_18realestate_backend8handlers13mantenimiento6create
FNDA:0,_RNvNtNtCshWAJ4lei3LP_18realestate_backend8handlers13mantenimiento6delete
FNDA:0,_RNvNtNtCshWAJ4lei3LP_18realestate_backend8handlers13mantenimiento6update
FNDA:0,_RNvNtNtCshWAJ4lei3LP_18realestate_backend8handlers13mantenimiento9get_by_id
FNF:19
FNH:0
DA:16,0
DA:17,0
DA:18,0
DA:19,0
DA:20,0
DA:21,0
DA:22,0
DA:23,0
DA:25,0
DA:26,0
DA:27,0
DA:28,0
DA:29,0
DA:30,0
DA:31,0
DA:32,0
DA:34,0
DA:35,0
DA:36,0
DA:37,0
DA:38,0
DA:39,0
DA:40,0
DA:41,0
DA:42,0
DA:43,0
DA:44,0
DA:45,0
DA:46,0
DA:47,0
DA:48,0
DA:49,0
DA:50,0
DA:51,0
DA:52,0
DA:53,0
DA:54,0
DA:55,0
DA:56,0
DA:57,0
DA:58,0
DA:59,0
DA:60,0
DA:61,0
DA:62,0
DA:63,0
DA:64,0
DA:65,0
DA:66,0
DA:68,0
DA:69,0
DA:70,0
DA:71,0
DA:72,0
DA:73,0
DA:74,0
DA:75,0
DA:76,0
DA:77,0
DA:78,0
DA:79,0
DA:80,0
DA:81,0
DA:82,0
DA:83,0
DA:84,0
DA:85,0
DA:86,0
DA:87,0
DA:88,0
DA:89,0
DA:90,0
DA:91,0
DA:92,0
DA:94,0
DA:95,0
DA:96,0
DA:97,0
DA:98,0
DA:99,0
DA:100,0
DA:101,0
DA:102,0
DA:104,0
DA:105,0
DA:106,0
DA:107,0
DA:108,0
DA:109,0
DA:110,0
DA:111,0
DA:112,0
DA:114,0
DA:115,0
DA:116,0
DA:117,0
DA:118,0
DA:119,0
DA:120,0
DA:121,0
DA:122,0
DA:124,0
DA:125,0
DA:126,0
DA:127,0
DA:128,0
DA:129,0
DA:130,0
DA:131,0
DA:132,0
DA:133,0
DA:134,0
DA:135,0
DA:136,0
DA:137,0
DA:139,0
DA:140,0
DA:141,0
DA:142,0
DA:143,0
DA:144,0
DA:145,0
DA:146,0
DA:147,0
DA:148,0
DA:149,0
DA:150,0
DA:151,0
DA:152,0
DA:153,0
DA:154,0
DA:156,0
DA:157,0
DA:158,0
DA:159,0
DA:160,0
DA:161,0
DA:162,0
DA:163,0
DA:164,0
DA:165,0
DA:166,0
DA:167,0
DA:168,0
DA:169,0
DA:170,0
DA:171,0
DA:173,0
DA:174,0
DA:175,0
DA:176,0
DA:177,0
DA:178,0
DA:179,0
DA:180,0
DA:181,0
DA:182,0
DA:183,0
DA:184,0
DA:185,0
DA:187,0
DA:188,0
DA:189,0
DA:190,0
DA:191,0
DA:192,0
DA:193,0
DA:194,0
DA:195,0
DA:196,0
DA:197,0
DA:198,0
DA:199,0
DA:200,0
DA:201,0
DA:202,0
DA:203,0
DA:204,0
DA:205,0
DA:206,0
DA:207,0
DA:208,0
DA:209,0
DA:210,0
DA:211,0
DA:212,0
DA:213,0
DA:214,0
DA:215,0
DA:216,0
DA:217,0
DA:218,0
BRF:0
BRH:0
LF:199
LH:0
end_of_record
SF:/home/runner/_work/Gestion-inmobiliaria/Gestion-inmobiliaria/backend/src/handlers/mantenimiento_programado.rs
FN:18,_RNCNvNtNtCsjO1mwjW04O1_18realestate_backend8handlers24mantenimiento_programado4list0B7_
FN:40,_RNCNvNtNtCsjO1mwjW04O1_18realestate_backend8handlers24mantenimiento_programado6create0B7_
FN:70,_RNCNvNtNtCsjO1mwjW04O1_18realestate_backend8handlers24mantenimiento_programado6delete0B7_
FN:55,_RNCNvNtNtCsjO1mwjW04O1_18realestate_backend8handlers24mantenimiento_programado6update0B7_
FN:29,_RNCNvNtNtCsjO1mwjW04O1_18realestate_backend8handlers24mantenimiento_programado9get_by_id0B7_
FN:14,_RNvNtNtCsjO1mwjW04O1_18realestate_backend8handlers24mantenimiento_programado4list
FN:36,_RNvNtNtCsjO1mwjW04O1_18realestate_backend8handlers24mantenimiento_programado6create
FN:66,_RNvNtNtCsjO1mwjW04O1_18realestate_backend8handlers24mantenimiento_programado6delete
FN:50,_RNvNtNtCsjO1mwjW04O1_18realestate_backend8handlers24mantenimiento_programado6update
FN:25,_RNvNtNtCsjO1mwjW04O1_18realestate_backend8handlers24mantenimiento_programado9get_by_id
FN:18,_RNCNvNtNtCshWAJ4lei3LP_18realestate_backend8handlers24mantenimiento_programado4list0B7_
FN:40,_RNCNvNtNtCshWAJ4lei3LP_18realestate_backend8handlers24mantenimiento_programado6create0B7_
FN:70,_RNCNvNtNtCshWAJ4lei3LP_18realestate_backend8handlers24mantenimiento_programado6delete0B7_
FN:55,_RNCNvNtNtCshWAJ4lei3LP_18realestate_backend8handlers24mantenimiento_programado6update0B7_
FN:29,_RNCNvNtNtCshWAJ4lei3LP_18realestate_backend8handlers24mantenimiento_programado9get_by_id0B7_
FN:14,_RNvNtNtCshWAJ4lei3LP_18realestate_backend8handlers24mantenimiento_programado4list
FN:36,_RNvNtNtCshWAJ4lei3LP_18realestate_backend8handlers24mantenimiento_programado6create
FN:66,_RNvNtNtCshWAJ4lei3LP_18realestate_backend8handlers24mantenimiento_programado6delete
FN:50,_RNvNtNtCshWAJ4lei3LP_18realestate_backend8handlers24mantenimiento_programado6update
FN:25,_RNvNtNtCshWAJ4lei3LP_18realestate_backend8handlers24mantenimiento_programado9get_by_id
FNDA:0,_RNCNvNtNtCsjO1mwjW04O1_18realestate_backend8handlers24mantenimiento_programado4list0B7_
FNDA:0,_RNCNvNtNtCsjO1mwjW04O1_18realestate_backend8handlers24mantenimiento_programado6create0B7_
FNDA:0,_RNCNvNtNtCsjO1mwjW04O1_18realestate_backend8handlers24mantenimiento_programado6delete0B7_
FNDA:0,_RNCNvNtNtCsjO1mwjW04O1_18realestate_backend8handlers24mantenimiento_programado6update0B7_
FNDA:0,_RNCNvNtNtCsjO1mwjW04O1_18realestate_backend8handlers24mantenimiento_programado9get_by_id0B7_
FNDA:0,_RNvNtNtCsjO1mwjW04O1_18realestate_backend8handlers24mantenimiento_programado4list
FNDA:0,_RNvNtNtCsjO1mwjW04O1_18realestate_backend8handlers24mantenimiento_programado6create
FNDA:0,_RNvNtNtCsjO1mwjW04O1_18realestate_backend8handlers24mantenimiento_programado6delete
FNDA:0,_RNvNtNtCsjO1mwjW04O1_18realestate_backend8handlers24mantenimiento_programado6update
FNDA:0,_RNvNtNtCsjO1mwjW04O1_18realestate_backend8handlers24mantenimiento_programado9get_by_id
FNDA:0,_RNCNvNtNtCshWAJ4lei3LP_18realestate_backend8handlers24mantenimiento_programado4list0B7_
FNDA:0,_RNCNvNtNtCshWAJ4lei3LP_18realestate_backend8handlers24mantenimiento_programado6create0B7_
FNDA:0,_RNCNvNtNtCshWAJ4lei3LP_18realestate_backend8handlers24mantenimiento_programado6delete0B7_
FNDA:0,_RNCNvNtNtCshWAJ4lei3LP_18realestate_backend8handlers24mantenimiento_programado6update0B7_
FNDA:0,_RNCNvNtNtCshWAJ4lei3LP_18realestate_backend8handlers24mantenimiento_programado9get_by_id0B7_
FNDA:0,_RNvNtNtCshWAJ4lei3LP_18realestate_backend8handlers24mantenimiento_programado4list
FNDA:0,_RNvNtNtCshWAJ4lei3LP_18realestate_backend8handlers24mantenimiento_programado6create
FNDA:0,_RNvNtNtCshWAJ4lei3LP_18realestate_backend8handlers24mantenimiento_programado6delete
FNDA:0,_RNvNtNtCshWAJ4lei3LP_18realestate_backend8handlers24mantenimiento_programado6update
FNDA:0,_RNvNtNtCshWAJ4lei3LP_18realestate_backend8handlers24mantenimiento_programado9get_by_id
FNF:10
FNH:0
DA:14,0
DA:15,0
DA:16,0
DA:17,0
DA:18,0
DA:19,0
DA:20,0
DA:21,0
DA:22,0
DA:23,0
DA:25,0
DA:26,0
DA:27,0
DA:28,0
DA:29,0
DA:30,0
DA:31,0
DA:32,0
DA:33,0
DA:34,0
DA:36,0
DA:37,0
DA:38,0
DA:39,0
DA:40,0
DA:41,0
DA:42,0
DA:43,0
DA:44,0
DA:45,0
DA:46,0
DA:47,0
DA:48,0
DA:50,0
DA:51,0
DA:52,0
DA:53,0
DA:54,0
DA:55,0
DA:56,0
DA:57,0
DA:58,0
DA:59,0
DA:60,0
DA:61,0
DA:62,0
DA:63,0
DA:64,0
DA:66,0
DA:67,0
DA:68,0
DA:69,0
DA:70,0
DA:71,0
DA:72,0
DA:73,0
DA:74,0
DA:75,0
DA:76,0
DA:77,0
DA:78,0
BRF:0
BRH:0
LF:66
LH:0
end_of_record
SF:/home/runner/_work/Gestion-inmobiliaria/Gestion-inmobiliaria/backend/src/handlers/ncf.rs
FN:31,_RNCNvNtNtCsjO1mwjW04O1_18realestate_backend8handlers3ncf15obtener_alertas0B7_
FN:12,_RNCNvNtNtCsjO1mwjW04O1_18realestate_backend8handlers3ncf17listar_secuencias0B7_
FN:22,_RNCNvNtNtCsjO1mwjW04O1_18realestate_backend8handlers3ncf24configurar_rango_handler0B7_
FN:28,_RNvNtNtCsjO1mwjW04O1_18realestate_backend8handlers3ncf15obtener_alertas
FN:9,_RNvNtNtCsjO1mwjW04O1_18realestate_backend8handlers3ncf17listar_secuencias
FN:18,_RNvNtNtCsjO1mwjW04O1_18realestate_backend8handlers3ncf24configurar_rango_handler
FN:31,_RNCNvNtNtCshWAJ4lei3LP_18realestate_backend8handlers3ncf15obtener_alertas0B7_
FN:12,_RNCNvNtNtCshWAJ4lei3LP_18realestate_backend8handlers3ncf17listar_secuencias0B7_
FN:22,_RNCNvNtNtCshWAJ4lei3LP_18realestate_backend8handlers3ncf24configurar_rango_handler0B7_
FN:28,_RNvNtNtCshWAJ4lei3LP_18realestate_backend8handlers3ncf15obtener_alertas
FN:9,_RNvNtNtCshWAJ4lei3LP_18realestate_backend8handlers3ncf17listar_secuencias
FN:18,_RNvNtNtCshWAJ4lei3LP_18realestate_backend8handlers3ncf24configurar_rango_handler
FNDA:0,_RNCNvNtNtCsjO1mwjW04O1_18realestate_backend8handlers3ncf15obtener_alertas0B7_
FNDA:0,_RNCNvNtNtCsjO1mwjW04O1_18realestate_backend8handlers3ncf17listar_secuencias0B7_
FNDA:0,_RNCNvNtNtCsjO1mwjW04O1_18realestate_backend8handlers3ncf24configurar_rango_handler0B7_
FNDA:0,_RNvNtNtCsjO1mwjW04O1_18realestate_backend8handlers3ncf15obtener_alertas
FNDA:0,_RNvNtNtCsjO1mwjW04O1_18realestate_backend8handlers3ncf17listar_secuencias
FNDA:0,_RNvNtNtCsjO1mwjW04O1_18realestate_backend8handlers3ncf24configurar_rango_handler
FNDA:0,_RNCNvNtNtCshWAJ4lei3LP_18realestate_backend8handlers3ncf15obtener_alertas0B7_
FNDA:0,_RNCNvNtNtCshWAJ4lei3LP_18realestate_backend8handlers3ncf17listar_secuencias0B7_
FNDA:0,_RNCNvNtNtCshWAJ4lei3LP_18realestate_backend8handlers3ncf24configurar_rango_handler0B7_
FNDA:0,_RNvNtNtCshWAJ4lei3LP_18realestate_backend8handlers3ncf15obtener_alertas
FNDA:0,_RNvNtNtCshWAJ4lei3LP_18realestate_backend8handlers3ncf17listar_secuencias
FNDA:0,_RNvNtNtCshWAJ4lei3LP_18realestate_backend8handlers3ncf24configurar_rango_handler
FNF:6
FNH:0
DA:9,0
DA:10,0
DA:11,0
DA:12,0
DA:13,0
DA:14,0
DA:15,0
DA:16,0
DA:18,0
DA:19,0
DA:20,0
DA:21,0
DA:22,0
DA:23,0
DA:24,0
DA:25,0
DA:26,0
DA:28,0
DA:29,0
DA:30,0
DA:31,0
DA:32,0
DA:33,0
DA:34,0
DA:35,0
BRF:0
BRH:0
LF:28
LH:0
end_of_record
SF:/home/runner/_work/Gestion-inmobiliaria/Gestion-inmobiliaria/backend/src/handlers/notificaciones.rs
FN:43,_RNCNvNtNtCsjO1mwjW04O1_18realestate_backend8handlers14notificaciones12marcar_leida0B7_
FN:16,_RNCNvNtNtCsjO1mwjW04O1_18realestate_backend8handlers14notificaciones14pagos_vencidos0B7_
FN:34,_RNCNvNtNtCsjO1mwjW04O1_18realestate_backend8handlers14notificaciones16conteo_no_leidas0B7_
FN:52,_RNCNvNtNtCsjO1mwjW04O1_18realestate_backend8handlers14notificaciones19marcar_todas_leidas0B7_
FN:26,_RNCNvNtNtCsjO1mwjW04O1_18realestate_backend8handlers14notificaciones6listar0B7_
FN:60,_RNCNvNtNtCsjO1mwjW04O1_18realestate_backend8handlers14notificaciones7generar0B7_
FN:39,_RNvNtNtCsjO1mwjW04O1_18realestate_backend8handlers14notificaciones12marcar_leida
FN:13,_RNvNtNtCsjO1mwjW04O1_18realestate_backend8handlers14notificaciones14pagos_vencidos
FN:31,_RNvNtNtCsjO1mwjW04O1_18realestate_backend8handlers14notificaciones16conteo_no_leidas
FN:49,_RNvNtNtCsjO1mwjW04O1_18realestate_backend8handlers14notificaciones19marcar_todas_leidas
FN:22,_RNvNtNtCsjO1mwjW04O1_18realestate_backend8handlers14notificaciones6listar
FN:57,_RNvNtNtCsjO1mwjW04O1_18realestate_backend8handlers14notificaciones7generar
FN:43,_RNCNvNtNtCshWAJ4lei3LP_18realestate_backend8handlers14notificaciones12marcar_leida0B7_
FN:16,_RNCNvNtNtCshWAJ4lei3LP_18realestate_backend8handlers14notificaciones14pagos_vencidos0B7_
FN:34,_RNCNvNtNtCshWAJ4lei3LP_18realestate_backend8handlers14notificaciones16conteo_no_leidas0B7_
FN:52,_RNCNvNtNtCshWAJ4lei3LP_18realestate_backend8handlers14notificaciones19marcar_todas_leidas0B7_
FN:26,_RNCNvNtNtCshWAJ4lei3LP_18realestate_backend8handlers14notificaciones6listar0B7_
FN:60,_RNCNvNtNtCshWAJ4lei3LP_18realestate_backend8handlers14notificaciones7generar0B7_
FN:39,_RNvNtNtCshWAJ4lei3LP_18realestate_backend8handlers14notificaciones12marcar_leida
FN:13,_RNvNtNtCshWAJ4lei3LP_18realestate_backend8handlers14notificaciones14pagos_vencidos
FN:31,_RNvNtNtCshWAJ4lei3LP_18realestate_backend8handlers14notificaciones16conteo_no_leidas
FN:49,_RNvNtNtCshWAJ4lei3LP_18realestate_backend8handlers14notificaciones19marcar_todas_leidas
FN:22,_RNvNtNtCshWAJ4lei3LP_18realestate_backend8handlers14notificaciones6listar
FN:57,_RNvNtNtCshWAJ4lei3LP_18realestate_backend8handlers14notificaciones7generar
FNDA:0,_RNCNvNtNtCsjO1mwjW04O1_18realestate_backend8handlers14notificaciones12marcar_leida0B7_
FNDA:0,_RNCNvNtNtCsjO1mwjW04O1_18realestate_backend8handlers14notificaciones14pagos_vencidos0B7_
FNDA:0,_RNCNvNtNtCsjO1mwjW04O1_18realestate_backend8handlers14notificaciones16conteo_no_leidas0B7_
FNDA:0,_RNCNvNtNtCsjO1mwjW04O1_18realestate_backend8handlers14notificaciones19marcar_todas_leidas0B7_
FNDA:0,_RNCNvNtNtCsjO1mwjW04O1_18realestate_backend8handlers14notificaciones6listar0B7_
FNDA:0,_RNCNvNtNtCsjO1mwjW04O1_18realestate_backend8handlers14notificaciones7generar0B7_
FNDA:0,_RNvNtNtCsjO1mwjW04O1_18realestate_backend8handlers14notificaciones12marcar_leida
FNDA:0,_RNvNtNtCsjO1mwjW04O1_18realestate_backend8handlers14notificaciones14pagos_vencidos
FNDA:0,_RNvNtNtCsjO1mwjW04O1_18realestate_backend8handlers14notificaciones16conteo_no_leidas
FNDA:0,_RNvNtNtCsjO1mwjW04O1_18realestate_backend8handlers14notificaciones19marcar_todas_leidas
FNDA:0,_RNvNtNtCsjO1mwjW04O1_18realestate_backend8handlers14notificaciones6listar
FNDA:0,_RNvNtNtCsjO1mwjW04O1_18realestate_backend8handlers14notificaciones7generar
FNDA:0,_RNCNvNtNtCshWAJ4lei3LP_18realestate_backend8handlers14notificaciones12marcar_leida0B7_
FNDA:0,_RNCNvNtNtCshWAJ4lei3LP_18realestate_backend8handlers14notificaciones14pagos_vencidos0B7_
FNDA:0,_RNCNvNtNtCshWAJ4lei3LP_18realestate_backend8handlers14notificaciones16conteo_no_leidas0B7_
FNDA:0,_RNCNvNtNtCshWAJ4lei3LP_18realestate_backend8handlers14notificaciones19marcar_todas_leidas0B7_
FNDA:0,_RNCNvNtNtCshWAJ4lei3LP_18realestate_backend8handlers14notificaciones6listar0B7_
FNDA:0,_RNCNvNtNtCshWAJ4lei3LP_18realestate_backend8handlers14notificaciones7generar0B7_
FNDA:0,_RNvNtNtCshWAJ4lei3LP_18realestate_backend8handlers14notificaciones12marcar_leida
FNDA:0,_RNvNtNtCshWAJ4lei3LP_18realestate_backend8handlers14notificaciones14pagos_vencidos
FNDA:0,_RNvNtNtCshWAJ4lei3LP_18realestate_backend8handlers14notificaciones16conteo_no_leidas
FNDA:0,_RNvNtNtCshWAJ4lei3LP_18realestate_backend8handlers14notificaciones19marcar_todas_leidas
FNDA:0,_RNvNtNtCshWAJ4lei3LP_18realestate_backend8handlers14notificaciones6listar
FNDA:0,_RNvNtNtCshWAJ4lei3LP_18realestate_backend8handlers14notificaciones7generar
FNF:12
FNH:0
DA:13,0
DA:14,0
DA:15,0
DA:16,0
DA:17,0
DA:18,0
DA:19,0
DA:20,0
DA:22,0
DA:23,0
DA:24,0
DA:25,0
DA:26,0
DA:27,0
DA:28,0
DA:29,0
DA:31,0
DA:32,0
DA:33,0
DA:34,0
DA:35,0
DA:36,0
DA:37,0
DA:39,0
DA:40,0
DA:41,0
DA:42,0
DA:43,0
DA:44,0
DA:45,0
DA:46,0
DA:47,0
DA:49,0
DA:50,0
DA:51,0
DA:52,0
DA:53,0
DA:54,0
DA:55,0
DA:57,0
DA:58,0
DA:59,0
DA:60,0
DA:61,0
DA:62,0
DA:63,0
DA:64,0
BRF:0
BRH:0
LF:53
LH:0
end_of_record
SF:/home/runner/_work/Gestion-inmobiliaria/Gestion-inmobiliaria/backend/src/handlers/ocr.rs
FN:44,_RNCNCNvNtNtCsjO1mwjW04O1_18realestate_backend8handlers3ocr11ocr_extract00B9_
FN:57,_RNCNCNvNtNtCsjO1mwjW04O1_18realestate_backend8handlers3ocr11ocr_extract0s0_0B9_
FN:62,_RNCNCNvNtNtCsjO1mwjW04O1_18realestate_backend8handlers3ocr11ocr_extract0s1_0B9_
FN:77,_RNCNCNvNtNtCsjO1mwjW04O1_18realestate_backend8handlers3ocr11ocr_extract0s2_0B9_
FN:82,_RNCNCNvNtNtCsjO1mwjW04O1_18realestate_backend8handlers3ocr11ocr_extract0s3_0B9_
FN:94,_RNCNCNvNtNtCsjO1mwjW04O1_18realestate_backend8handlers3ocr11ocr_extract0s4_0B9_
FN:100,_RNCNCNvNtNtCsjO1mwjW04O1_18realestate_backend8handlers3ocr11ocr_extract0s5_0B9_
FN:150,_RNCNCNvNtNtCsjO1mwjW04O1_18realestate_backend8handlers3ocr11ocr_extract0s6_0B9_
FN:152,_RNCNCNvNtNtCsjO1mwjW04O1_18realestate_backend8handlers3ocr11ocr_extract0s7_0B9_
FN:49,_RNCNCNvNtNtCsjO1mwjW04O1_18realestate_backend8handlers3ocr11ocr_extract0s_0B9_
FN:37,_RNCNvNtNtCsjO1mwjW04O1_18realestate_backend8handlers3ocr11ocr_extract0B7_
FN:168,_RNCNvNtNtCsjO1mwjW04O1_18realestate_backend8handlers3ocr22raw_fields_from_result0B7_
FN:34,_RNvNtNtCsjO1mwjW04O1_18realestate_backend8handlers3ocr11ocr_extract
FN:29,_RNvNtNtCsjO1mwjW04O1_18realestate_backend8handlers3ocr21is_valid_content_type
FN:163,_RNvNtNtCsjO1mwjW04O1_18realestate_backend8handlers3ocr22raw_fields_from_result
FN:16,_RNvNtNtCsjO1mwjW04O1_18realestate_backend8handlers3ocr26content_type_from_filename
FN:44,_RNCNCNvNtNtCshWAJ4lei3LP_18realestate_backend8handlers3ocr11ocr_extract00B9_
FN:57,_RNCNCNvNtNtCshWAJ4lei3LP_18realestate_backend8handlers3ocr11ocr_extract0s0_0B9_
FN:62,_RNCNCNvNtNtCshWAJ4lei3LP_18realestate_backend8handlers3ocr11ocr_extract0s1_0B9_
FN:77,_RNCNCNvNtNtCshWAJ4lei3LP_18realestate_backend8handlers3ocr11ocr_extract0s2_0B9_
FN:82,_RNCNCNvNtNtCshWAJ4lei3LP_18realestate_backend8handlers3ocr11ocr_extract0s3_0B9_
FN:94,_RNCNCNvNtNtCshWAJ4lei3LP_18realestate_backend8handlers3ocr11ocr_extract0s4_0B9_
FN:100,_RNCNCNvNtNtCshWAJ4lei3LP_18realestate_backend8handlers3ocr11ocr_extract0s5_0B9_
FN:150,_RNCNCNvNtNtCshWAJ4lei3LP_18realestate_backend8handlers3ocr11ocr_extract0s6_0B9_
FN:152,_RNCNCNvNtNtCshWAJ4lei3LP_18realestate_backend8handlers3ocr11ocr_extract0s7_0B9_
FN:49,_RNCNCNvNtNtCshWAJ4lei3LP_18realestate_backend8handlers3ocr11ocr_extract0s_0B9_
FN:37,_RNCNvNtNtCshWAJ4lei3LP_18realestate_backend8handlers3ocr11ocr_extract0B7_
FN:168,_RNCNvNtNtCshWAJ4lei3LP_18realestate_backend8handlers3ocr22raw_fields_from_result0B7_
FN:29,_RNvNtNtCshWAJ4lei3LP_18realestate_backend8handlers3ocr21is_valid_content_type
FN:163,_RNvNtNtCshWAJ4lei3LP_18realestate_backend8handlers3ocr22raw_fields_from_result
FN:16,_RNvNtNtCshWAJ4lei3LP_18realestate_backend8handlers3ocr26content_type_from_filename
FN:34,_RNvNtNtCshWAJ4lei3LP_18realestate_backend8handlers3ocr11ocr_extract
FNDA:0,_RNCNCNvNtNtCsjO1mwjW04O1_18realestate_backend8handlers3ocr11ocr_extract00B9_
FNDA:0,_RNCNCNvNtNtCsjO1mwjW04O1_18realestate_backend8handlers3ocr11ocr_extract0s0_0B9_
FNDA:0,_RNCNCNvNtNtCsjO1mwjW04O1_18realestate_backend8handlers3ocr11ocr_extract0s1_0B9_
FNDA:0,_RNCNCNvNtNtCsjO1mwjW04O1_18realestate_backend8handlers3ocr11ocr_extract0s2_0B9_
FNDA:0,_RNCNCNvNtNtCsjO1mwjW04O1_18realestate_backend8handlers3ocr11ocr_extract0s3_0B9_
FNDA:0,_RNCNCNvNtNtCsjO1mwjW04O1_18realestate_backend8handlers3ocr11ocr_extract0s4_0B9_
FNDA:0,_RNCNCNvNtNtCsjO1mwjW04O1_18realestate_backend8handlers3ocr11ocr_extract0s5_0B9_
FNDA:0,_RNCNCNvNtNtCsjO1mwjW04O1_18realestate_backend8handlers3ocr11ocr_extract0s6_0B9_
FNDA:0,_RNCNCNvNtNtCsjO1mwjW04O1_18realestate_backend8handlers3ocr11ocr_extract0s7_0B9_
FNDA:0,_RNCNCNvNtNtCsjO1mwjW04O1_18realestate_backend8handlers3ocr11ocr_extract0s_0B9_
FNDA:0,_RNCNvNtNtCsjO1mwjW04O1_18realestate_backend8handlers3ocr11ocr_extract0B7_
FNDA:0,_RNCNvNtNtCsjO1mwjW04O1_18realestate_backend8handlers3ocr22raw_fields_from_result0B7_
FNDA:0,_RNvNtNtCsjO1mwjW04O1_18realestate_backend8handlers3ocr11ocr_extract
FNDA:0,_RNvNtNtCsjO1mwjW04O1_18realestate_backend8handlers3ocr21is_valid_content_type
FNDA:0,_RNvNtNtCsjO1mwjW04O1_18realestate_backend8handlers3ocr22raw_fields_from_result
FNDA:0,_RNvNtNtCsjO1mwjW04O1_18realestate_backend8handlers3ocr26content_type_from_filename
FNDA:0,_RNCNCNvNtNtCshWAJ4lei3LP_18realestate_backend8handlers3ocr11ocr_extract00B9_
FNDA:0,_RNCNCNvNtNtCshWAJ4lei3LP_18realestate_backend8handlers3ocr11ocr_extract0s0_0B9_
FNDA:0,_RNCNCNvNtNtCshWAJ4lei3LP_18realestate_backend8handlers3ocr11ocr_extract0s1_0B9_
FNDA:0,_RNCNCNvNtNtCshWAJ4lei3LP_18realestate_backend8handlers3ocr11ocr_extract0s2_0B9_
FNDA:0,_RNCNCNvNtNtCshWAJ4lei3LP_18realestate_backend8handlers3ocr11ocr_extract0s3_0B9_
FNDA:0,_RNCNCNvNtNtCshWAJ4lei3LP_18realestate_backend8handlers3ocr11ocr_extract0s4_0B9_
FNDA:0,_RNCNCNvNtNtCshWAJ4lei3LP_18realestate_backend8handlers3ocr11ocr_extract0s5_0B9_
FNDA:0,_RNCNCNvNtNtCshWAJ4lei3LP_18realestate_backend8handlers3ocr11ocr_extract0s6_0B9_
FNDA:0,_RNCNCNvNtNtCshWAJ4lei3LP_18realestate_backend8handlers3ocr11ocr_extract0s7_0B9_
FNDA:0,_RNCNCNvNtNtCshWAJ4lei3LP_18realestate_backend8handlers3ocr11ocr_extract0s_0B9_
FNDA:0,_RNCNvNtNtCshWAJ4lei3LP_18realestate_backend8handlers3ocr11ocr_extract0B7_
FNDA:0,_RNCNvNtNtCshWAJ4lei3LP_18realestate_backend8handlers3ocr22raw_fields_from_result0B7_
FNDA:0,_RNvNtNtCshWAJ4lei3LP_18realestate_backend8handlers3ocr21is_valid_content_type
FNDA:0,_RNvNtNtCshWAJ4lei3LP_18realestate_backend8handlers3ocr22raw_fields_from_result
FNDA:0,_RNvNtNtCshWAJ4lei3LP_18realestate_backend8handlers3ocr26content_type_from_filename
FNDA:0,_RNvNtNtCshWAJ4lei3LP_18realestate_backend8handlers3ocr11ocr_extract
FNF:16
FNH:0
DA:16,0
DA:17,0
DA:18,0
DA:19,0
DA:20,0
DA:21,0
DA:22,0
DA:23,0
DA:25,0
DA:27,0
DA:29,0
DA:30,0
DA:31,0
DA:34,0
DA:35,0
DA:36,0
DA:37,0
DA:38,0
DA:39,0
DA:40,0
DA:42,0
DA:43,0
DA:44,0
DA:46,0
DA:47,0
DA:48,0
DA:49,0
DA:50,0
DA:51,0
DA:53,0
DA:54,0
DA:55,0
DA:56,0
DA:57,0
DA:58,0
DA:60,0
DA:61,0
DA:62,0
DA:63,0
DA:64,0
DA:65,0
DA:66,0
DA:67,0
DA:68,0
DA:69,0
DA:70,0
DA:72,0
DA:74,0
DA:75,0
DA:76,0
DA:77,0
DA:78,0
DA:79,0
DA:80,0
DA:81,0
DA:82,0
DA:85,0
DA:86,0
DA:87,0
DA:88,0
DA:90,0
DA:94,0
DA:95,0
DA:96,0
DA:98,0
DA:100,0
DA:101,0
DA:102,0
DA:104,0
DA:105,0
DA:106,0
DA:107,0
DA:108,0
DA:110,0
DA:111,0
DA:112,0
DA:113,0
DA:114,0
DA:116,0
DA:118,0
DA:119,0
DA:120,0
DA:121,0
DA:123,0
DA:124,0
DA:125,0
DA:126,0
DA:127,0
DA:128,0
DA:130,0
DA:131,0
DA:132,0
DA:133,0
DA:134,0
DA:135,0
DA:139,0
DA:140,0
DA:141,0
DA:143,0
DA:144,0
DA:145,0
DA:146,0
DA:147,0
DA:148,0
DA:150,0
DA:152,0
DA:154,0
DA:155,0
DA:156,0
DA:157,0
DA:158,0
DA:160,0
DA:161,0
DA:163,0
DA:164,0
DA:165,0
DA:166,0
DA:167,0
DA:168,0
DA:169,0
DA:170,0
DA:172,0
DA:173,0
DA:174,0
BRF:0
BRH:0
LF:139
LH:0
end_of_record
SF:/home/runner/_work/Gestion-inmobiliaria/Gestion-inmobiliaria/backend/src/handlers/organizaciones.rs
FN:13,_RNCNvNtNtCsjO1mwjW04O1_18realestate_backend8handlers14organizaciones3get0B7_
FN:22,_RNCNvNtNtCsjO1mwjW04O1_18realestate_backend8handlers14organizaciones6update0B7_
FN:10,_RNvNtNtCsjO1mwjW04O1_18realestate_backend8handlers14organizaciones3get
FN:18,_RNvNtNtCsjO1mwjW04O1_18realestate_backend8handlers14organizaciones6update
FN:10,_RNvNtNtCshWAJ4lei3LP_18realestate_backend8handlers14organizaciones3get
FN:18,_RNvNtNtCshWAJ4lei3LP_18realestate_backend8handlers14organizaciones6update
FN:13,_RNCNvNtNtCshWAJ4lei3LP_18realestate_backend8handlers14organizaciones3get0B7_
FN:22,_RNCNvNtNtCshWAJ4lei3LP_18realestate_backend8handlers14organizaciones6update0B7_
FNDA:0,_RNCNvNtNtCsjO1mwjW04O1_18realestate_backend8handlers14organizaciones3get0B7_
FNDA:0,_RNCNvNtNtCsjO1mwjW04O1_18realestate_backend8handlers14organizaciones6update0B7_
FNDA:0,_RNvNtNtCsjO1mwjW04O1_18realestate_backend8handlers14organizaciones3get
FNDA:0,_RNvNtNtCsjO1mwjW04O1_18realestate_backend8handlers14organizaciones6update
FNDA:0,_RNvNtNtCshWAJ4lei3LP_18realestate_backend8handlers14organizaciones3get
FNDA:0,_RNvNtNtCshWAJ4lei3LP_18realestate_backend8handlers14organizaciones6update
FNDA:0,_RNCNvNtNtCshWAJ4lei3LP_18realestate_backend8handlers14organizaciones3get0B7_
FNDA:0,_RNCNvNtNtCshWAJ4lei3LP_18realestate_backend8handlers14organizaciones6update0B7_
FNF:4
FNH:0
DA:10,0
DA:11,0
DA:12,0
DA:13,0
DA:14,0
DA:15,0
DA:16,0
DA:18,0
DA:19,0
DA:20,0
DA:21,0
DA:22,0
DA:23,0
DA:24,0
DA:25,0
DA:26,0
BRF:0
BRH:0
LF:18
LH:0
end_of_record
SF:/home/runner/_work/Gestion-inmobiliaria/Gestion-inmobiliaria/backend/src/handlers/pagos.rs
FN:136,_RNCNvNtNtCsjO1mwjW04O1_18realestate_backend8handlers5pagos18bulk_marcar_pagado0B7_
FN:72,_RNCNvNtNtCsjO1mwjW04O1_18realestate_backend8handlers5pagos4list0B7_
FN:91,_RNCNvNtNtCsjO1mwjW04O1_18realestate_backend8handlers5pagos6create0B7_
FN:122,_RNCNvNtNtCsjO1mwjW04O1_18realestate_backend8handlers5pagos6delete0B7_
FN:106,_RNCNvNtNtCsjO1mwjW04O1_18realestate_backend8handlers5pagos6update0B7_
FN:81,_RNCNvNtNtCsjO1mwjW04O1_18realestate_backend8handlers5pagos9get_by_id0B7_
FN:132,_RNvNtNtCsjO1mwjW04O1_18realestate_backend8handlers5pagos18bulk_marcar_pagado
FN:16,_RNvNtNtCsjO1mwjW04O1_18realestate_backend8handlers5pagos20validate_create_pago
FN:41,_RNvNtNtCsjO1mwjW04O1_18realestate_backend8handlers5pagos20validate_update_pago
FN:68,_RNvNtNtCsjO1mwjW04O1_18realestate_backend8handlers5pagos4list
FN:87,_RNvNtNtCsjO1mwjW04O1_18realestate_backend8handlers5pagos6create
FN:118,_RNvNtNtCsjO1mwjW04O1_18realestate_backend8handlers5pagos6delete
FN:101,_RNvNtNtCsjO1mwjW04O1_18realestate_backend8handlers5pagos6update
FN:77,_RNvNtNtCsjO1mwjW04O1_18realestate_backend8handlers5pagos9get_by_id
FN:136,_RNCNvNtNtCshWAJ4lei3LP_18realestate_backend8handlers5pagos18bulk_marcar_pagado0B7_
FN:72,_RNCNvNtNtCshWAJ4lei3LP_18realestate_backend8handlers5pagos4list0B7_
FN:91,_RNCNvNtNtCshWAJ4lei3LP_18realestate_backend8handlers5pagos6create0B7_
FN:122,_RNCNvNtNtCshWAJ4lei3LP_18realestate_backend8handlers5pagos6delete0B7_
FN:106,_RNCNvNtNtCshWAJ4lei3LP_18realestate_backend8handlers5pagos6update0B7_
FN:81,_RNCNvNtNtCshWAJ4lei3LP_18realestate_backend8handlers5pagos9get_by_id0B7_
FN:16,_RNvNtNtCshWAJ4lei3LP_18realestate_backend8handlers5pagos20validate_create_pago
FN:41,_RNvNtNtCshWAJ4lei3LP_18realestate_backend8handlers5pagos20validate_update_pago
FN:132,_RNvNtNtCshWAJ4lei3LP_18realestate_backend8handlers5pagos18bulk_marcar_pagado
FN:68,_RNvNtNtCshWAJ4lei3LP_18realestate_backend8handlers5pagos4list
FN:87,_RNvNtNtCshWAJ4lei3LP_18realestate_backend8handlers5pagos6create
FN:118,_RNvNtNtCshWAJ4lei3LP_18realestate_backend8handlers5pagos6delete
FN:101,_RNvNtNtCshWAJ4lei3LP_18realestate_backend8handlers5pagos6update
FN:77,_RNvNtNtCshWAJ4lei3LP_18realestate_backend8handlers5pagos9get_by_id
FNDA:0,_RNCNvNtNtCsjO1mwjW04O1_18realestate_backend8handlers5pagos18bulk_marcar_pagado0B7_
FNDA:0,_RNCNvNtNtCsjO1mwjW04O1_18realestate_backend8handlers5pagos4list0B7_
FNDA:0,_RNCNvNtNtCsjO1mwjW04O1_18realestate_backend8handlers5pagos6create0B7_
FNDA:0,_RNCNvNtNtCsjO1mwjW04O1_18realestate_backend8handlers5pagos6delete0B7_
FNDA:0,_RNCNvNtNtCsjO1mwjW04O1_18realestate_backend8handlers5pagos6update0B7_
FNDA:0,_RNCNvNtNtCsjO1mwjW04O1_18realestate_backend8handlers5pagos9get_by_id0B7_
FNDA:0,_RNvNtNtCsjO1mwjW04O1_18realestate_backend8handlers5pagos18bulk_marcar_pagado
FNDA:0,_RNvNtNtCsjO1mwjW04O1_18realestate_backend8handlers5pagos20validate_create_pago
FNDA:0,_RNvNtNtCsjO1mwjW04O1_18realestate_backend8handlers5pagos20validate_update_pago
FNDA:0,_RNvNtNtCsjO1mwjW04O1_18realestate_backend8handlers5pagos4list
FNDA:0,_RNvNtNtCsjO1mwjW04O1_18realestate_backend8handlers5pagos6create
FNDA:0,_RNvNtNtCsjO1mwjW04O1_18realestate_backend8handlers5pagos6delete
FNDA:0,_RNvNtNtCsjO1mwjW04O1_18realestate_backend8handlers5pagos6update
FNDA:0,_RNvNtNtCsjO1mwjW04O1_18realestate_backend8handlers5pagos9get_by_id
FNDA:0,_RNCNvNtNtCshWAJ4lei3LP_18realestate_backend8handlers5pagos18bulk_marcar_pagado0B7_
FNDA:0,_RNCNvNtNtCshWAJ4lei3LP_18realestate_backend8handlers5pagos4list0B7_
FNDA:0,_RNCNvNtNtCshWAJ4lei3LP_18realestate_backend8handlers5pagos6create0B7_
FNDA:0,_RNCNvNtNtCshWAJ4lei3LP_18realestate_backend8handlers5pagos6delete0B7_
FNDA:0,_RNCNvNtNtCshWAJ4lei3LP_18realestate_backend8handlers5pagos6update0B7_
FNDA:0,_RNCNvNtNtCshWAJ4lei3LP_18realestate_backend8handlers5pagos9get_by_id0B7_
FNDA:0,_RNvNtNtCshWAJ4lei3LP_18realestate_backend8handlers5pagos20validate_create_pago
FNDA:0,_RNvNtNtCshWAJ4lei3LP_18realestate_backend8handlers5pagos20validate_update_pago
FNDA:0,_RNvNtNtCshWAJ4lei3LP_18realestate_backend8handlers5pagos18bulk_marcar_pagado
FNDA:0,_RNvNtNtCshWAJ4lei3LP_18realestate_backend8handlers5pagos4list
FNDA:0,_RNvNtNtCshWAJ4lei3LP_18realestate_backend8handlers5pagos6create
FNDA:0,_RNvNtNtCshWAJ4lei3LP_18realestate_backend8handlers5pagos6delete
FNDA:0,_RNvNtNtCshWAJ4lei3LP_18realestate_backend8handlers5pagos6update
FNDA:0,_RNvNtNtCshWAJ4lei3LP_18realestate_backend8handlers5pagos9get_by_id
FNF:14
FNH:0
DA:16,0
DA:17,0
DA:18,0
DA:19,0
DA:20,0
DA:21,0
DA:22,0
DA:23,0
DA:24,0
DA:25,0
DA:26,0
DA:27,0
DA:28,0
DA:29,0
DA:30,0
DA:31,0
DA:32,0
DA:33,0
DA:34,0
DA:35,0
DA:36,0
DA:37,0
DA:38,0
DA:39,0
DA:41,0
DA:42,0
DA:43,0
DA:44,0
DA:45,0
DA:46,0
DA:47,0
DA:48,0
DA:49,0
DA:50,0
DA:51,0
DA:52,0
DA:53,0
DA:54,0
DA:55,0
DA:56,0
DA:57,0
DA:58,0
DA:59,0
DA:60,0
DA:61,0
DA:62,0
DA:63,0
DA:64,0
DA:65,0
DA:66,0
DA:68,0
DA:69,0
DA:70,0
DA:71,0
DA:72,0
DA:73,0
DA:74,0
DA:75,0
DA:77,0
DA:78,0
DA:79,0
DA:80,0
DA:81,0
DA:82,0
DA:83,0
DA:84,0
DA:85,0
DA:87,0
DA:88,0
DA:89,0
DA:90,0
DA:91,0
DA:92,0
DA:93,0
DA:94,0
DA:95,0
DA:96,0
DA:97,0
DA:98,0
DA:99,0
DA:101,0
DA:102,0
DA:103,0
DA:104,0
DA:105,0
DA:106,0
DA:107,0
DA:108,0
DA:109,0
DA:110,0
DA:111,0
DA:112,0
DA:113,0
DA:114,0
DA:115,0
DA:116,0
DA:118,0
DA:119,0
DA:120,0
DA:121,0
DA:122,0
DA:123,0
DA:124,0
DA:125,0
DA:126,0
DA:127,0
DA:128,0
DA:129,0
DA:130,0
DA:132,0
DA:133,0
DA:134,0
DA:135,0
DA:136,0
DA:137,0
DA:138,0
DA:139,0
DA:141,0
DA:142,0
DA:143,0
DA:144,0
DA:145,0
DA:146,0
DA:148,0
DA:149,0
DA:150,0
DA:151,0
DA:152,0
DA:153,0
DA:154,0
DA:155,0
DA:156,0
DA:157,0
DA:158,0
DA:160,0
DA:161,0
DA:162,0
DA:163,0
DA:164,0
BRF:0
BRH:0
LF:145
LH:0
end_of_record
SF:/home/runner/_work/Gestion-inmobiliaria/Gestion-inmobiliaria/backend/src/handlers/perfil.rs
FN:36,_RNCNvNtNtCsjO1mwjW04O1_18realestate_backend8handlers6perfil10actualizar0B7_
FN:72,_RNCNvNtNtCsjO1mwjW04O1_18realestate_backend8handlers6perfil16cambiar_password0B7_
FN:27,_RNCNvNtNtCsjO1mwjW04O1_18realestate_backend8handlers6perfil7obtener0B7_
FN:32,_RNvNtNtCsjO1mwjW04O1_18realestate_backend8handlers6perfil10actualizar
FN:67,_RNvNtNtCsjO1mwjW04O1_18realestate_backend8handlers6perfil16cambiar_password
FN:24,_RNvNtNtCsjO1mwjW04O1_18realestate_backend8handlers6perfil7obtener
FN:111,_RNvNtNtNtCshWAJ4lei3LP_18realestate_backend8handlers6perfil5testss_45actualizar_perfil_request_allows_empty_object
FN:136,_RNvNtNtNtCshWAJ4lei3LP_18realestate_backend8handlers6perfil5testss_45cambiar_password_request_rejects_empty_object
FN:102,_RNvNtNtNtCshWAJ4lei3LP_18realestate_backend8handlers6perfil5testss_47actualizar_perfil_request_allows_partial_fields
FN:129,_RNvNtNtNtCshWAJ4lei3LP_18realestate_backend8handlers6perfil5testss_47cambiar_password_request_rejects_missing_fields
FN:120,_RNvNtNtNtCshWAJ4lei3LP_18realestate_backend8handlers6perfil5testss_48cambiar_password_request_deserializes_camel_case
FN:93,_RNvNtNtNtCshWAJ4lei3LP_18realestate_backend8handlers6perfil5testss_49actualizar_perfil_request_deserializes_camel_case
FN:36,_RNCNvNtNtCshWAJ4lei3LP_18realestate_backend8handlers6perfil10actualizar0B7_
FN:72,_RNCNvNtNtCshWAJ4lei3LP_18realestate_backend8handlers6perfil16cambiar_password0B7_
FN:27,_RNCNvNtNtCshWAJ4lei3LP_18realestate_backend8handlers6perfil7obtener0B7_
FN:32,_RNvNtNtCshWAJ4lei3LP_18realestate_backend8handlers6perfil10actualizar
FN:67,_RNvNtNtCshWAJ4lei3LP_18realestate_backend8handlers6perfil16cambiar_password
FN:24,_RNvNtNtCshWAJ4lei3LP_18realestate_backend8handlers6perfil7obtener
FNDA:0,_RNCNvNtNtCsjO1mwjW04O1_18realestate_backend8handlers6perfil10actualizar0B7_
FNDA:0,_RNCNvNtNtCsjO1mwjW04O1_18realestate_backend8handlers6perfil16cambiar_password0B7_
FNDA:0,_RNCNvNtNtCsjO1mwjW04O1_18realestate_backend8handlers6perfil7obtener0B7_
FNDA:0,_RNvNtNtCsjO1mwjW04O1_18realestate_backend8handlers6perfil10actualizar
FNDA:0,_RNvNtNtCsjO1mwjW04O1_18realestate_backend8handlers6perfil16cambiar_password
FNDA:0,_RNvNtNtCsjO1mwjW04O1_18realestate_backend8handlers6perfil7obtener
FNDA:1,_RNvNtNtNtCshWAJ4lei3LP_18realestate_backend8handlers6perfil5testss_45actualizar_perfil_request_allows_empty_object
FNDA:1,_RNvNtNtNtCshWAJ4lei3LP_18realestate_backend8handlers6perfil5testss_45cambiar_password_request_rejects_empty_object
FNDA:1,_RNvNtNtNtCshWAJ4lei3LP_18realestate_backend8handlers6perfil5testss_47actualizar_perfil_request_allows_partial_fields
FNDA:1,_RNvNtNtNtCshWAJ4lei3LP_18realestate_backend8handlers6perfil5testss_47cambiar_password_request_rejects_missing_fields
FNDA:1,_RNvNtNtNtCshWAJ4lei3LP_18realestate_backend8handlers6perfil5testss_48cambiar_password_request_deserializes_camel_case
FNDA:1,_RNvNtNtNtCshWAJ4lei3LP_18realestate_backend8handlers6perfil5testss_49actualizar_perfil_request_deserializes_camel_case
FNDA:0,_RNCNvNtNtCshWAJ4lei3LP_18realestate_backend8handlers6perfil10actualizar0B7_
FNDA:0,_RNCNvNtNtCshWAJ4lei3LP_18realestate_backend8handlers6perfil16cambiar_password0B7_
FNDA:0,_RNCNvNtNtCshWAJ4lei3LP_18realestate_backend8handlers6perfil7obtener0B7_
FNDA:0,_RNvNtNtCshWAJ4lei3LP_18realestate_backend8handlers6perfil10actualizar
FNDA:0,_RNvNtNtCshWAJ4lei3LP_18realestate_backend8handlers6perfil16cambiar_password
FNDA:0,_RNvNtNtCshWAJ4lei3LP_18realestate_backend8handlers6perfil7obtener
FNF:12
FNH:6
DA:24,0
DA:25,0
DA:26,0
DA:27,0
DA:28,0
DA:29,0
DA:30,0
DA:32,0
DA:33,0
DA:34,0
DA:35,0
DA:36,0
DA:37,0
DA:38,0
DA:39,0
DA:40,0
DA:41,0
DA:42,0
DA:43,0
DA:44,0
DA:45,0
DA:46,0
DA:47,0
DA:48,0
DA:49,0
DA:50,0
DA:51,0
DA:52,0
DA:53,0
DA:54,0
DA:55,0
DA:56,0
DA:57,0
DA:58,0
DA:59,0
DA:60,0
DA:61,0
DA:62,0
DA:63,0
DA:64,0
DA:65,0
DA:67,0
DA:68,0
DA:69,0
DA:70,0
DA:71,0
DA:72,0
DA:73,0
DA:74,0
DA:75,0
DA:76,0
DA:77,0
DA:78,0
DA:79,0
DA:80,0
DA:81,0
DA:82,0
DA:83,0
DA:84,0
DA:85,0
DA:93,1
DA:94,1
DA:95,1
DA:96,1
DA:97,1
DA:98,1
DA:99,1
DA:102,1
DA:103,1
DA:104,1
DA:105,1
DA:106,1
DA:107,1
DA:108,1
DA:111,1
DA:112,1
DA:113,1
DA:114,1
DA:115,1
DA:116,1
DA:117,1
DA:120,1
DA:121,1
DA:122,1
DA:123,1
DA:124,1
DA:125,1
DA:126,1
DA:129,1
DA:130,1
DA:131,1
DA:132,1
DA:133,1
DA:136,1
DA:137,1
DA:138,1
DA:139,1
DA:140,1
BRF:0
BRH:0
LF:101
LH:38
end_of_record
SF:/home/runner/_work/Gestion-inmobiliaria/Gestion-inmobiliaria/backend/src/handlers/propiedades.rs
FN:108,_RNCNvNtNtCsjO1mwjW04O1_18realestate_backend8handlers11propiedades4list0B7_
FN:128,_RNCNvNtNtCsjO1mwjW04O1_18realestate_backend8handlers11propiedades6create0B7_
FN:160,_RNCNvNtNtCsjO1mwjW04O1_18realestate_backend8handlers11propiedades6delete0B7_
FN:144,_RNCNvNtNtCsjO1mwjW04O1_18realestate_backend8handlers11propiedades6update0B7_
FN:174,_RNCNvNtNtCsjO1mwjW04O1_18realestate_backend8handlers11propiedades7resumen0B7_
FN:118,_RNCNvNtNtCsjO1mwjW04O1_18realestate_backend8handlers11propiedades9get_by_id0B7_
FN:72,_RNvNtNtCsjO1mwjW04O1_18realestate_backend8handlers11propiedades15validate_create
FN:52,_RNvNtNtCsjO1mwjW04O1_18realestate_backend8handlers11propiedades15validate_estado
FN:62,_RNvNtNtCsjO1mwjW04O1_18realestate_backend8handlers11propiedades15validate_moneda
FN:43,_RNvNtNtCsjO1mwjW04O1_18realestate_backend8handlers11propiedades15validate_precio
FN:15,_RNvNtNtCsjO1mwjW04O1_18realestate_backend8handlers11propiedades15validate_titulo
FN:85,_RNvNtNtCsjO1mwjW04O1_18realestate_backend8handlers11propiedades15validate_update
FN:29,_RNvNtNtCsjO1mwjW04O1_18realestate_backend8handlers11propiedades18validate_direccion
FN:104,_RNvNtNtCsjO1mwjW04O1_18realestate_backend8handlers11propiedades4list
FN:124,_RNvNtNtCsjO1mwjW04O1_18realestate_backend8handlers11propiedades6create
FN:156,_RNvNtNtCsjO1mwjW04O1_18realestate_backend8handlers11propiedades6delete
FN:139,_RNvNtNtCsjO1mwjW04O1_18realestate_backend8handlers11propiedades6update
FN:170,_RNvNtNtCsjO1mwjW04O1_18realestate_backend8handlers11propiedades7resumen
FN:114,_RNvNtNtCsjO1mwjW04O1_18realestate_backend8handlers11propiedades9get_by_id
FN:108,_RNCNvNtNtCshWAJ4lei3LP_18realestate_backend8handlers11propiedades4list0B7_
FN:128,_RNCNvNtNtCshWAJ4lei3LP_18realestate_backend8handlers11propiedades6create0B7_
FN:160,_RNCNvNtNtCshWAJ4lei3LP_18realestate_backend8handlers11propiedades6delete0B7_
FN:144,_RNCNvNtNtCshWAJ4lei3LP_18realestate_backend8handlers11propiedades6update0B7_
FN:174,_RNCNvNtNtCshWAJ4lei3LP_18realestate_backend8handlers11propiedades7resumen0B7_
FN:118,_RNCNvNtNtCshWAJ4lei3LP_18realestate_backend8handlers11propiedades9get_by_id0B7_
FN:72,_RNvNtNtCshWAJ4lei3LP_18realestate_backend8handlers11propiedades15validate_create
FN:52,_RNvNtNtCshWAJ4lei3LP_18realestate_backend8handlers11propiedades15validate_estado
FN:62,_RNvNtNtCshWAJ4lei3LP_18realestate_backend8handlers11propiedades15validate_moneda
FN:43,_RNvNtNtCshWAJ4lei3LP_18realestate_backend8handlers11propiedades15validate_precio
FN:15,_RNvNtNtCshWAJ4lei3LP_18realestate_backend8handlers11propiedades15validate_titulo
FN:85,_RNvNtNtCshWAJ4lei3LP_18realestate_backend8handlers11propiedades15validate_update
FN:29,_RNvNtNtCshWAJ4lei3LP_18realestate_backend8handlers11propiedades18validate_direccion
FN:104,_RNvNtNtCshWAJ4lei3LP_18realestate_backend8handlers11propiedades4list
FN:124,_RNvNtNtCshWAJ4lei3LP_18realestate_backend8handlers11propiedades6create
FN:156,_RNvNtNtCshWAJ4lei3LP_18realestate_backend8handlers11propiedades6delete
FN:139,_RNvNtNtCshWAJ4lei3LP_18realestate_backend8handlers11propiedades6update
FN:170,_RNvNtNtCshWAJ4lei3LP_18realestate_backend8handlers11propiedades7resumen
FN:114,_RNvNtNtCshWAJ4lei3LP_18realestate_backend8handlers11propiedades9get_by_id
FNDA:0,_RNCNvNtNtCsjO1mwjW04O1_18realestate_backend8handlers11propiedades4list0B7_
FNDA:0,_RNCNvNtNtCsjO1mwjW04O1_18realestate_backend8handlers11propiedades6create0B7_
FNDA:0,_RNCNvNtNtCsjO1mwjW04O1_18realestate_backend8handlers11propiedades6delete0B7_
FNDA:0,_RNCNvNtNtCsjO1mwjW04O1_18realestate_backend8handlers11propiedades6update0B7_
FNDA:0,_RNCNvNtNtCsjO1mwjW04O1_18realestate_backend8handlers11propiedades7resumen0B7_
FNDA:0,_RNCNvNtNtCsjO1mwjW04O1_18realestate_backend8handlers11propiedades9get_by_id0B7_
FNDA:0,_RNvNtNtCsjO1mwjW04O1_18realestate_backend8handlers11propiedades15validate_create
FNDA:0,_RNvNtNtCsjO1mwjW04O1_18realestate_backend8handlers11propiedades15validate_estado
FNDA:0,_RNvNtNtCsjO1mwjW04O1_18realestate_backend8handlers11propiedades15validate_moneda
FNDA:0,_RNvNtNtCsjO1mwjW04O1_18realestate_backend8handlers11propiedades15validate_precio
FNDA:0,_RNvNtNtCsjO1mwjW04O1_18realestate_backend8handlers11propiedades15validate_titulo
FNDA:0,_RNvNtNtCsjO1mwjW04O1_18realestate_backend8handlers11propiedades15validate_update
FNDA:0,_RNvNtNtCsjO1mwjW04O1_18realestate_backend8handlers11propiedades18validate_direccion
FNDA:0,_RNvNtNtCsjO1mwjW04O1_18realestate_backend8handlers11propiedades4list
FNDA:0,_RNvNtNtCsjO1mwjW04O1_18realestate_backend8handlers11propiedades6create
FNDA:0,_RNvNtNtCsjO1mwjW04O1_18realestate_backend8handlers11propiedades6delete
FNDA:0,_RNvNtNtCsjO1mwjW04O1_18realestate_backend8handlers11propiedades6update
FNDA:0,_RNvNtNtCsjO1mwjW04O1_18realestate_backend8handlers11propiedades7resumen
FNDA:0,_RNvNtNtCsjO1mwjW04O1_18realestate_backend8handlers11propiedades9get_by_id
FNDA:0,_RNCNvNtNtCshWAJ4lei3LP_18realestate_backend8handlers11propiedades4list0B7_
FNDA:0,_RNCNvNtNtCshWAJ4lei3LP_18realestate_backend8handlers11propiedades6create0B7_
FNDA:0,_RNCNvNtNtCshWAJ4lei3LP_18realestate_backend8handlers11propiedades6delete0B7_
FNDA:0,_RNCNvNtNtCshWAJ4lei3LP_18realestate_backend8handlers11propiedades6update0B7_
FNDA:0,_RNCNvNtNtCshWAJ4lei3LP_18realestate_backend8handlers11propiedades7resumen0B7_
FNDA:0,_RNCNvNtNtCshWAJ4lei3LP_18realestate_backend8handlers11propiedades9get_by_id0B7_
FNDA:0,_RNvNtNtCshWAJ4lei3LP_18realestate_backend8handlers11propiedades15validate_create
FNDA:0,_RNvNtNtCshWAJ4lei3LP_18realestate_backend8handlers11propiedades15validate_estado
FNDA:0,_RNvNtNtCshWAJ4lei3LP_18realestate_backend8handlers11propiedades15validate_moneda
FNDA:0,_RNvNtNtCshWAJ4lei3LP_18realestate_backend8handlers11propiedades15validate_precio
FNDA:0,_RNvNtNtCshWAJ4lei3LP_18realestate_backend8handlers11propiedades15validate_titulo
FNDA:0,_RNvNtNtCshWAJ4lei3LP_18realestate_backend8handlers11propiedades15validate_update
FNDA:0,_RNvNtNtCshWAJ4lei3LP_18realestate_backend8handlers11propiedades18validate_direccion
FNDA:0,_RNvNtNtCshWAJ4lei3LP_18realestate_backend8handlers11propiedades4list
FNDA:0,_RNvNtNtCshWAJ4lei3LP_18realestate_backend8handlers11propiedades6create
FNDA:0,_RNvNtNtCshWAJ4lei3LP_18realestate_backend8handlers11propiedades6delete
FNDA:0,_RNvNtNtCshWAJ4lei3LP_18realestate_backend8handlers11propiedades6update
FNDA:0,_RNvNtNtCshWAJ4lei3LP_18realestate_backend8handlers11propiedades7resumen
FNDA:0,_RNvNtNtCshWAJ4lei3LP_18realestate_backend8handlers11propiedades9get_by_id
FNF:19
FNH:0
DA:15,0
DA:16,0
DA:17,0
DA:18,0
DA:19,0
DA:20,0
DA:21,0
DA:22,0
DA:23,0
DA:24,0
DA:25,0
DA:26,0
DA:27,0
DA:29,0
DA:30,0
DA:31,0
DA:32,0
DA:33,0
DA:34,0
DA:35,0
DA:36,0
DA:37,0
DA:38,0
DA:39,0
DA:40,0
DA:41,0
DA:43,0
DA:44,0
DA:45,0
DA:46,0
DA:47,0
DA:48,0
DA:49,0
DA:50,0
DA:52,0
DA:53,0
DA:54,0
DA:55,0
DA:56,0
DA:57,0
DA:58,0
DA:59,0
DA:60,0
DA:62,0
DA:63,0
DA:64,0
DA:65,0
DA:66,0
DA:67,0
DA:68,0
DA:69,0
DA:70,0
DA:72,0
DA:73,0
DA:74,0
DA:75,0
DA:76,0
DA:77,0
DA:78,0
DA:79,0
DA:80,0
DA:81,0
DA:82,0
DA:83,0
DA:85,0
DA:86,0
DA:87,0
DA:88,0
DA:89,0
DA:90,0
DA:91,0
DA:92,0
DA:93,0
DA:94,0
DA:95,0
DA:96,0
DA:97,0
DA:98,0
DA:99,0
DA:100,0
DA:101,0
DA:102,0
DA:104,0
DA:105,0
DA:106,0
DA:107,0
DA:108,0
DA:109,0
DA:110,0
DA:111,0
DA:112,0
DA:114,0
DA:115,0
DA:116,0
DA:117,0
DA:118,0
DA:119,0
DA:120,0
DA:121,0
DA:122,0
DA:124,0
DA:125,0
DA:126,0
DA:127,0
DA:128,0
DA:129,0
DA:130,0
DA:131,0
DA:132,0
DA:133,0
DA:134,0
DA:135,0
DA:136,0
DA:137,0
DA:139,0
DA:140,0
DA:141,0
DA:142,0
DA:143,0
DA:144,0
DA:145,0
DA:146,0
DA:147,0
DA:148,0
DA:149,0
DA:150,0
DA:151,0
DA:152,0
DA:153,0
DA:154,0
DA:156,0
DA:157,0
DA:158,0
DA:159,0
DA:160,0
DA:161,0
DA:162,0
DA:163,0
DA:164,0
DA:165,0
DA:166,0
DA:167,0
DA:168,0
DA:170,0
DA:171,0
DA:172,0
DA:173,0
DA:174,0
DA:175,0
DA:176,0
DA:177,0
DA:178,0
BRF:0
BRH:0
LF:158
LH:0
end_of_record
SF:/home/runner/_work/Gestion-inmobiliaria/Gestion-inmobiliaria/backend/src/handlers/recibos.rs
FN:13,_RNCNvNtNtCsjO1mwjW04O1_18realestate_backend8handlers7recibos14generar_recibo0B7_
FN:9,_RNvNtNtCsjO1mwjW04O1_18realestate_backend8handlers7recibos14generar_recibo
FN:13,_RNCNvNtNtCshWAJ4lei3LP_18realestate_backend8handlers7recibos14generar_recibo0B7_
FN:9,_RNvNtNtCshWAJ4lei3LP_18realestate_backend8handlers7recibos14generar_recibo
FNDA:0,_RNCNvNtNtCsjO1mwjW04O1_18realestate_backend8handlers7recibos14generar_recibo0B7_
FNDA:0,_RNvNtNtCsjO1mwjW04O1_18realestate_backend8handlers7recibos14generar_recibo
FNDA:0,_RNCNvNtNtCshWAJ4lei3LP_18realestate_backend8handlers7recibos14generar_recibo0B7_
FNDA:0,_RNvNtNtCshWAJ4lei3LP_18realestate_backend8handlers7recibos14generar_recibo
FNF:2
FNH:0
DA:9,0
DA:10,0
DA:11,0
DA:12,0
DA:13,0
DA:14,0
DA:15,0
DA:16,0
DA:17,0
DA:18,0
DA:19,0
DA:20,0
DA:21,0
DA:22,0
DA:23,0
BRF:0
BRH:0
LF:16
LH:0
end_of_record
SF:/home/runner/_work/Gestion-inmobiliaria/Gestion-inmobiliaria/backend/src/handlers/recibos_informales.rs
FN:21,_RNCNvNtNtCsjO1mwjW04O1_18realestate_backend8handlers18recibos_informales5crear0B7_
FN:17,_RNvNtNtCsjO1mwjW04O1_18realestate_backend8handlers18recibos_informales5crear
FN:21,_RNCNvNtNtCshWAJ4lei3LP_18realestate_backend8handlers18recibos_informales5crear0B7_
FN:17,_RNvNtNtCshWAJ4lei3LP_18realestate_backend8handlers18recibos_informales5crear
FNDA:0,_RNCNvNtNtCsjO1mwjW04O1_18realestate_backend8handlers18recibos_informales5crear0B7_
FNDA:0,_RNvNtNtCsjO1mwjW04O1_18realestate_backend8handlers18recibos_informales5crear
FNDA:0,_RNCNvNtNtCshWAJ4lei3LP_18realestate_backend8handlers18recibos_informales5crear0B7_
FNDA:0,_RNvNtNtCshWAJ4lei3LP_18realestate_backend8handlers18recibos_informales5crear
FNF:2
FNH:0
DA:17,0
DA:18,0
DA:19,0
DA:20,0
DA:21,0
DA:22,0
DA:23,0
DA:24,0
DA:25,0
DA:26,0
DA:27,0
BRF:0
BRH:0
LF:12
LH:0
end_of_record
SF:/home/runner/_work/Gestion-inmobiliaria/Gestion-inmobiliaria/backend/src/handlers/reportes.rs
FN:31,_RNCNvNtNtCsjO1mwjW04O1_18realestate_backend8handlers8reportes12ingresos_pdf0B7_
FN:138,_RNCNvNtNtCsjO1mwjW04O1_18realestate_backend8handlers8reportes12rentabilidad0B7_
FN:67,_RNCNvNtNtCsjO1mwjW04O1_18realestate_backend8handlers8reportes13ingresos_xlsx0B7_
FN:103,_RNCNvNtNtCsjO1mwjW04O1_18realestate_backend8handlers8reportes15historial_pagos0B7_
FN:153,_RNCNvNtNtCsjO1mwjW04O1_18realestate_backend8handlers8reportes16rentabilidad_pdf0B7_
FN:189,_RNCNvNtNtCsjO1mwjW04O1_18realestate_backend8handlers8reportes17rentabilidad_xlsx0B7_
FN:129,_RNCNvNtNtCsjO1mwjW04O1_18realestate_backend8handlers8reportes19ocupacion_tendencia0B7_
FN:16,_RNCNvNtNtCsjO1mwjW04O1_18realestate_backend8handlers8reportes8ingresos0B7_
FN:27,_RNvNtNtCsjO1mwjW04O1_18realestate_backend8handlers8reportes12ingresos_pdf
FN:134,_RNvNtNtCsjO1mwjW04O1_18realestate_backend8handlers8reportes12rentabilidad
FN:63,_RNvNtNtCsjO1mwjW04O1_18realestate_backend8handlers8reportes13ingresos_xlsx
FN:99,_RNvNtNtCsjO1mwjW04O1_18realestate_backend8handlers8reportes15historial_pagos
FN:149,_RNvNtNtCsjO1mwjW04O1_18realestate_backend8handlers8reportes16rentabilidad_pdf
FN:185,_RNvNtNtCsjO1mwjW04O1_18realestate_backend8handlers8reportes17rentabilidad_xlsx
FN:126,_RNvNtNtCsjO1mwjW04O1_18realestate_backend8handlers8reportes19ocupacion_tendencia
FN:12,_RNvNtNtCsjO1mwjW04O1_18realestate_backend8handlers8reportes8ingresos
FN:31,_RNCNvNtNtCshWAJ4lei3LP_18realestate_backend8handlers8reportes12ingresos_pdf0B7_
FN:138,_RNCNvNtNtCshWAJ4lei3LP_18realestate_backend8handlers8reportes12rentabilidad0B7_
FN:67,_RNCNvNtNtCshWAJ4lei3LP_18realestate_backend8handlers8reportes13ingresos_xlsx0B7_
FN:103,_RNCNvNtNtCshWAJ4lei3LP_18realestate_backend8handlers8reportes15historial_pagos0B7_
FN:153,_RNCNvNtNtCshWAJ4lei3LP_18realestate_backend8handlers8reportes16rentabilidad_pdf0B7_
FN:189,_RNCNvNtNtCshWAJ4lei3LP_18realestate_backend8handlers8reportes17rentabilidad_xlsx0B7_
FN:129,_RNCNvNtNtCshWAJ4lei3LP_18realestate_backend8handlers8reportes19ocupacion_tendencia0B7_
FN:16,_RNCNvNtNtCshWAJ4lei3LP_18realestate_backend8handlers8reportes8ingresos0B7_
FN:27,_RNvNtNtCshWAJ4lei3LP_18realestate_backend8handlers8reportes12ingresos_pdf
FN:134,_RNvNtNtCshWAJ4lei3LP_18realestate_backend8handlers8reportes12rentabilidad
FN:63,_RNvNtNtCshWAJ4lei3LP_18realestate_backend8handlers8reportes13ingresos_xlsx
FN:99,_RNvNtNtCshWAJ4lei3LP_18realestate_backend8handlers8reportes15historial_pagos
FN:149,_RNvNtNtCshWAJ4lei3LP_18realestate_backend8handlers8reportes16rentabilidad_pdf
FN:185,_RNvNtNtCshWAJ4lei3LP_18realestate_backend8handlers8reportes17rentabilidad_xlsx
FN:126,_RNvNtNtCshWAJ4lei3LP_18realestate_backend8handlers8reportes19ocupacion_tendencia
FN:12,_RNvNtNtCshWAJ4lei3LP_18realestate_backend8handlers8reportes8ingresos
FNDA:0,_RNCNvNtNtCsjO1mwjW04O1_18realestate_backend8handlers8reportes12ingresos_pdf0B7_
FNDA:0,_RNCNvNtNtCsjO1mwjW04O1_18realestate_backend8handlers8reportes12rentabilidad0B7_
FNDA:0,_RNCNvNtNtCsjO1mwjW04O1_18realestate_backend8handlers8reportes13ingresos_xlsx0B7_
FNDA:0,_RNCNvNtNtCsjO1mwjW04O1_18realestate_backend8handlers8reportes15historial_pagos0B7_
FNDA:0,_RNCNvNtNtCsjO1mwjW04O1_18realestate_backend8handlers8reportes16rentabilidad_pdf0B7_
FNDA:0,_RNCNvNtNtCsjO1mwjW04O1_18realestate_backend8handlers8reportes17rentabilidad_xlsx0B7_
FNDA:0,_RNCNvNtNtCsjO1mwjW04O1_18realestate_backend8handlers8reportes19ocupacion_tendencia0B7_
FNDA:0,_RNCNvNtNtCsjO1mwjW04O1_18realestate_backend8handlers8reportes8ingresos0B7_
FNDA:0,_RNvNtNtCsjO1mwjW04O1_18realestate_backend8handlers8reportes12ingresos_pdf
FNDA:0,_RNvNtNtCsjO1mwjW04O1_18realestate_backend8handlers8reportes12rentabilidad
FNDA:0,_RNvNtNtCsjO1mwjW04O1_18realestate_backend8handlers8reportes13ingresos_xlsx
FNDA:0,_RNvNtNtCsjO1mwjW04O1_18realestate_backend8handlers8reportes15historial_pagos
FNDA:0,_RNvNtNtCsjO1mwjW04O1_18realestate_backend8handlers8reportes16rentabilidad_pdf
FNDA:0,_RNvNtNtCsjO1mwjW04O1_18realestate_backend8handlers8reportes17rentabilidad_xlsx
FNDA:0,_RNvNtNtCsjO1mwjW04O1_18realestate_backend8handlers8reportes19ocupacion_tendencia
FNDA:0,_RNvNtNtCsjO1mwjW04O1_18realestate_backend8handlers8reportes8ingresos
FNDA:0,_RNCNvNtNtCshWAJ4lei3LP_18realestate_backend8handlers8reportes12ingresos_pdf0B7_
FNDA:0,_RNCNvNtNtCshWAJ4lei3LP_18realestate_backend8handlers8reportes12rentabilidad0B7_
FNDA:0,_RNCNvNtNtCshWAJ4lei3LP_18realestate_backend8handlers8reportes13ingresos_xlsx0B7_
FNDA:0,_RNCNvNtNtCshWAJ4lei3LP_18realestate_backend8handlers8reportes15historial_pagos0B7_
FNDA:0,_RNCNvNtNtCshWAJ4lei3LP_18realestate_backend8handlers8reportes16rentabilidad_pdf0B7_
FNDA:0,_RNCNvNtNtCshWAJ4lei3LP_18realestate_backend8handlers8reportes17rentabilidad_xlsx0B7_
FNDA:0,_RNCNvNtNtCshWAJ4lei3LP_18realestate_backend8handlers8reportes19ocupacion_tendencia0B7_
FNDA:0,_RNCNvNtNtCshWAJ4lei3LP_18realestate_backend8handlers8reportes8ingresos0B7_
FNDA:0,_RNvNtNtCshWAJ4lei3LP_18realestate_backend8handlers8reportes12ingresos_pdf
FNDA:0,_RNvNtNtCshWAJ4lei3LP_18realestate_backend8handlers8reportes12rentabilidad
FNDA:0,_RNvNtNtCshWAJ4lei3LP_18realestate_backend8handlers8reportes13ingresos_xlsx
FNDA:0,_RNvNtNtCshWAJ4lei3LP_18realestate_backend8handlers8reportes15historial_pagos
FNDA:0,_RNvNtNtCshWAJ4lei3LP_18realestate_backend8handlers8reportes16rentabilidad_pdf
FNDA:0,_RNvNtNtCshWAJ4lei3LP_18realestate_backend8handlers8reportes17rentabilidad_xlsx
FNDA:0,_RNvNtNtCshWAJ4lei3LP_18realestate_backend8handlers8reportes19ocupacion_tendencia
FNDA:0,_RNvNtNtCshWAJ4lei3LP_18realestate_backend8handlers8reportes8ingresos
FNF:16
FNH:0
DA:12,0
DA:13,0
DA:14,0
DA:15,0
DA:16,0
DA:17,0
DA:18,0
DA:19,0
DA:20,0
DA:21,0
DA:22,0
DA:23,0
DA:24,0
DA:25,0
DA:27,0
DA:28,0
DA:29,0
DA:30,0
DA:31,0
DA:32,0
DA:33,0
DA:34,0
DA:35,0
DA:36,0
DA:37,0
DA:38,0
DA:39,0
DA:41,0
DA:42,0
DA:43,0
DA:44,0
DA:45,0
DA:46,0
DA:47,0
DA:48,0
DA:49,0
DA:50,0
DA:51,0
DA:52,0
DA:54,0
DA:55,0
DA:56,0
DA:57,0
DA:58,0
DA:59,0
DA:60,0
DA:61,0
DA:63,0
DA:64,0
DA:65,0
DA:66,0
DA:67,0
DA:68,0
DA:69,0
DA:70,0
DA:71,0
DA:72,0
DA:73,0
DA:74,0
DA:75,0
DA:77,0
DA:78,0
DA:79,0
DA:80,0
DA:81,0
DA:82,0
DA:83,0
DA:84,0
DA:85,0
DA:86,0
DA:87,0
DA:88,0
DA:90,0
DA:91,0
DA:92,0
DA:93,0
DA:94,0
DA:95,0
DA:96,0
DA:97,0
DA:99,0
DA:100,0
DA:101,0
DA:102,0
DA:103,0
DA:104,0
DA:105,0
DA:106,0
DA:107,0
DA:108,0
DA:109,0
DA:110,0
DA:111,0
DA:112,0
DA:113,0
DA:114,0
DA:115,0
DA:116,0
DA:117,0
DA:118,0
DA:119,0
DA:120,0
DA:121,0
DA:122,0
DA:123,0
DA:124,0
DA:126,0
DA:127,0
DA:128,0
DA:129,0
DA:130,0
DA:131,0
DA:132,0
DA:134,0
DA:135,0
DA:136,0
DA:137,0
DA:138,0
DA:139,0
DA:140,0
DA:141,0
DA:142,0
DA:143,0
DA:144,0
DA:145,0
DA:146,0
DA:147,0
DA:149,0
DA:150,0
DA:151,0
DA:152,0
DA:153,0
DA:154,0
DA:155,0
DA:156,0
DA:157,0
DA:158,0
DA:159,0
DA:160,0
DA:161,0
DA:163,0
DA:164,0
DA:165,0
DA:166,0
DA:167,0
DA:168,0
DA:169,0
DA:170,0
DA:171,0
DA:172,0
DA:173,0
DA:174,0
DA:176,0
DA:177,0
DA:178,0
DA:179,0
DA:180,0
DA:181,0
DA:182,0
DA:183,0
DA:185,0
DA:186,0
DA:187,0
DA:188,0
DA:189,0
DA:190,0
DA:191,0
DA:192,0
DA:193,0
DA:194,0
DA:195,0
DA:196,0
DA:197,0
DA:199,0
DA:200,0
DA:201,0
DA:202,0
DA:203,0
DA:204,0
DA:205,0
DA:206,0
DA:207,0
DA:208,0
DA:209,0
DA:210,0
DA:212,0
DA:213,0
DA:214,0
DA:215,0
DA:216,0
DA:217,0
DA:218,0
DA:219,0
BRF:0
BRH:0
LF:201
LH:0
end_of_record
SF:/home/runner/_work/Gestion-inmobiliaria/Gestion-inmobiliaria/backend/src/handlers/reportes_dgii.rs
FN:61,_RNCNvNtNtCsjO1mwjW04O1_18realestate_backend8handlers13reportes_dgii15preview_reporte0B7_
FN:74,_RNCNvNtNtCsjO1mwjW04O1_18realestate_backend8handlers13reportes_dgii17actualizar_estado0B7_
FN:43,_RNCNvNtNtCsjO1mwjW04O1_18realestate_backend8handlers13reportes_dgii19generar_606_handler0B7_
FN:25,_RNCNvNtNtCsjO1mwjW04O1_18realestate_backend8handlers13reportes_dgii19generar_607_handler0B7_
FN:57,_RNvNtNtCsjO1mwjW04O1_18realestate_backend8handlers13reportes_dgii15preview_reporte
FN:69,_RNvNtNtCsjO1mwjW04O1_18realestate_backend8handlers13reportes_dgii17actualizar_estado
FN:39,_RNvNtNtCsjO1mwjW04O1_18realestate_backend8handlers13reportes_dgii19generar_606_handler
FN:21,_RNvNtNtCsjO1mwjW04O1_18realestate_backend8handlers13reportes_dgii19generar_607_handler
FN:57,_RNvNtNtCshWAJ4lei3LP_18realestate_backend8handlers13reportes_dgii15preview_reporte
FN:69,_RNvNtNtCshWAJ4lei3LP_18realestate_backend8handlers13reportes_dgii17actualizar_estado
FN:39,_RNvNtNtCshWAJ4lei3LP_18realestate_backend8handlers13reportes_dgii19generar_606_handler
FN:21,_RNvNtNtCshWAJ4lei3LP_18realestate_backend8handlers13reportes_dgii19generar_607_handler
FN:61,_RNCNvNtNtCshWAJ4lei3LP_18realestate_backend8handlers13reportes_dgii15preview_reporte0B7_
FN:74,_RNCNvNtNtCshWAJ4lei3LP_18realestate_backend8handlers13reportes_dgii17actualizar_estado0B7_
FN:43,_RNCNvNtNtCshWAJ4lei3LP_18realestate_backend8handlers13reportes_dgii19generar_606_handler0B7_
FN:25,_RNCNvNtNtCshWAJ4lei3LP_18realestate_backend8handlers13reportes_dgii19generar_607_handler0B7_
FNDA:0,_RNCNvNtNtCsjO1mwjW04O1_18realestate_backend8handlers13reportes_dgii15preview_reporte0B7_
FNDA:0,_RNCNvNtNtCsjO1mwjW04O1_18realestate_backend8handlers13reportes_dgii17actualizar_estado0B7_
FNDA:0,_RNCNvNtNtCsjO1mwjW04O1_18realestate_backend8handlers13reportes_dgii19generar_606_handler0B7_
FNDA:0,_RNCNvNtNtCsjO1mwjW04O1_18realestate_backend8handlers13reportes_dgii19generar_607_handler0B7_
FNDA:0,_RNvNtNtCsjO1mwjW04O1_18realestate_backend8handlers13reportes_dgii15preview_reporte
FNDA:0,_RNvNtNtCsjO1mwjW04O1_18realestate_backend8handlers13reportes_dgii17actualizar_estado
FNDA:0,_RNvNtNtCsjO1mwjW04O1_18realestate_backend8handlers13reportes_dgii19generar_606_handler
FNDA:0,_RNvNtNtCsjO1mwjW04O1_18realestate_backend8handlers13reportes_dgii19generar_607_handler
FNDA:0,_RNvNtNtCshWAJ4lei3LP_18realestate_backend8handlers13reportes_dgii15preview_reporte
FNDA:0,_RNvNtNtCshWAJ4lei3LP_18realestate_backend8handlers13reportes_dgii17actualizar_estado
FNDA:0,_RNvNtNtCshWAJ4lei3LP_18realestate_backend8handlers13reportes_dgii19generar_606_handler
FNDA:0,_RNvNtNtCshWAJ4lei3LP_18realestate_backend8handlers13reportes_dgii19generar_607_handler
FNDA:0,_RNCNvNtNtCshWAJ4lei3LP_18realestate_backend8handlers13reportes_dgii15preview_reporte0B7_
FNDA:0,_RNCNvNtNtCshWAJ4lei3LP_18realestate_backend8handlers13reportes_dgii17actualizar_estado0B7_
FNDA:0,_RNCNvNtNtCshWAJ4lei3LP_18realestate_backend8handlers13reportes_dgii19generar_606_handler0B7_
FNDA:0,_RNCNvNtNtCshWAJ4lei3LP_18realestate_backend8handlers13reportes_dgii19generar_607_handler0B7_
FNF:8
FNH:0
DA:21,0
DA:22,0
DA:23,0
DA:24,0
DA:25,0
DA:26,0
DA:28,0
DA:29,0
DA:30,0
DA:31,0
DA:32,0
DA:33,0
DA:34,0
DA:36,0
DA:37,0
DA:39,0
DA:40,0
DA:41,0
DA:42,0
DA:43,0
DA:44,0
DA:46,0
DA:47,0
DA:48,0
DA:49,0
DA:50,0
DA:51,0
DA:52,0
DA:54,0
DA:55,0
DA:57,0
DA:58,0
DA:59,0
DA:60,0
DA:61,0
DA:62,0
DA:63,0
DA:64,0
DA:65,0
DA:66,0
DA:67,0
DA:69,0
DA:70,0
DA:71,0
DA:72,0
DA:73,0
DA:74,0
DA:75,0
DA:76,0
DA:77,0
DA:78,0
DA:79,0
DA:80,0
DA:81,0
DA:82,0
DA:83,0
DA:84,0
BRF:0
BRH:0
LF:61
LH:0
end_of_record
SF:/home/runner/_work/Gestion-inmobiliaria/Gestion-inmobiliaria/backend/src/handlers/servicios_publicos.rs
FN:14,_RNCNvNtNtCsjO1mwjW04O1_18realestate_backend8handlers18servicios_publicos25obtener_responsabilidades0B7_
FN:29,_RNCNvNtNtCsjO1mwjW04O1_18realestate_backend8handlers18servicios_publicos33actualizar_responsabilidad_unidad0B7_
FN:51,_RNCNvNtNtCsjO1mwjW04O1_18realestate_backend8handlers18servicios_publicos35actualizar_responsabilidad_contrato0B7_
FN:10,_RNvNtNtCsjO1mwjW04O1_18realestate_backend8handlers18servicios_publicos25obtener_responsabilidades
FN:24,_RNvNtNtCsjO1mwjW04O1_18realestate_backend8handlers18servicios_publicos33actualizar_responsabilidad_unidad
FN:46,_RNvNtNtCsjO1mwjW04O1_18realestate_backend8handlers18servicios_publicos35actualizar_responsabilidad_contrato
FN:14,_RNCNvNtNtCshWAJ4lei3LP_18realestate_backend8handlers18servicios_publicos25obtener_responsabilidades0B7_
FN:29,_RNCNvNtNtCshWAJ4lei3LP_18realestate_backend8handlers18servicios_publicos33actualizar_responsabilidad_unidad0B7_
FN:51,_RNCNvNtNtCshWAJ4lei3LP_18realestate_backend8handlers18servicios_publicos35actualizar_responsabilidad_contrato0B7_
FN:10,_RNvNtNtCshWAJ4lei3LP_18realestate_backend8handlers18servicios_publicos25obtener_responsabilidades
FN:24,_RNvNtNtCshWAJ4lei3LP_18realestate_backend8handlers18servicios_publicos33actualizar_responsabilidad_unidad
FN:46,_RNvNtNtCshWAJ4lei3LP_18realestate_backend8handlers18servicios_publicos35actualizar_responsabilidad_contrato
FNDA:0,_RNCNvNtNtCsjO1mwjW04O1_18realestate_backend8handlers18servicios_publicos25obtener_responsabilidades0B7_
FNDA:0,_RNCNvNtNtCsjO1mwjW04O1_18realestate_backend8handlers18servicios_publicos33actualizar_responsabilidad_unidad0B7_
FNDA:0,_RNCNvNtNtCsjO1mwjW04O1_18realestate_backend8handlers18servicios_publicos35actualizar_responsabilidad_contrato0B7_
FNDA:0,_RNvNtNtCsjO1mwjW04O1_18realestate_backend8handlers18servicios_publicos25obtener_responsabilidades
FNDA:0,_RNvNtNtCsjO1mwjW04O1_18realestate_backend8handlers18servicios_publicos33actualizar_responsabilidad_unidad
FNDA:0,_RNvNtNtCsjO1mwjW04O1_18realestate_backend8handlers18servicios_publicos35actualizar_responsabilidad_contrato
FNDA:0,_RNCNvNtNtCshWAJ4lei3LP_18realestate_backend8handlers18servicios_publicos25obtener_responsabilidades0B7_
FNDA:0,_RNCNvNtNtCshWAJ4lei3LP_18realestate_backend8handlers18servicios_publicos33actualizar_responsabilidad_unidad0B7_
FNDA:0,_RNCNvNtNtCshWAJ4lei3LP_18realestate_backend8handlers18servicios_publicos35actualizar_responsabilidad_contrato0B7_
FNDA:0,_RNvNtNtCshWAJ4lei3LP_18realestate_backend8handlers18servicios_publicos25obtener_responsabilidades
FNDA:0,_RNvNtNtCshWAJ4lei3LP_18realestate_backend8handlers18servicios_publicos33actualizar_responsabilidad_unidad
FNDA:0,_RNvNtNtCshWAJ4lei3LP_18realestate_backend8handlers18servicios_publicos35actualizar_responsabilidad_contrato
FNF:6
FNH:0
DA:10,0
DA:11,0
DA:12,0
DA:13,0
DA:14,0
DA:15,0
DA:16,0
DA:18,0
DA:19,0
DA:21,0
DA:22,0
DA:24,0
DA:25,0
DA:26,0
DA:27,0
DA:28,0
DA:29,0
DA:30,0
DA:31,0
DA:32,0
DA:34,0
DA:35,0
DA:36,0
DA:37,0
DA:38,0
DA:39,0
DA:40,0
DA:41,0
DA:43,0
DA:44,0
DA:46,0
DA:47,0
DA:48,0
DA:49,0
DA:50,0
DA:51,0
DA:52,0
DA:53,0
DA:54,0
DA:56,0
DA:57,0
DA:58,0
DA:59,0
DA:60,0
DA:61,0
DA:62,0
DA:63,0
DA:65,0
DA:66,0
BRF:0
BRH:0
LF:52
LH:0
end_of_record
SF:/home/runner/_work/Gestion-inmobiliaria/Gestion-inmobiliaria/backend/src/handlers/unidades.rs
FN:23,_RNCNvNtNtCsjO1mwjW04O1_18realestate_backend8handlers8unidades4list0B7_
FN:51,_RNCNvNtNtCsjO1mwjW04O1_18realestate_backend8handlers8unidades6create0B7_
FN:89,_RNCNvNtNtCsjO1mwjW04O1_18realestate_backend8handlers8unidades6delete0B7_
FN:67,_RNCNvNtNtCsjO1mwjW04O1_18realestate_backend8handlers8unidades6update0B7_
FN:39,_RNCNvNtNtCsjO1mwjW04O1_18realestate_backend8handlers8unidades9get_by_id0B7_
FN:18,_RNvNtNtCsjO1mwjW04O1_18realestate_backend8handlers8unidades4list
FN:46,_RNvNtNtCsjO1mwjW04O1_18realestate_backend8handlers8unidades6create
FN:85,_RNvNtNtCsjO1mwjW04O1_18realestate_backend8handlers8unidades6delete
FN:62,_RNvNtNtCsjO1mwjW04O1_18realestate_backend8handlers8unidades6update
FN:35,_RNvNtNtCsjO1mwjW04O1_18realestate_backend8handlers8unidades9get_by_id
FN:23,_RNCNvNtNtCshWAJ4lei3LP_18realestate_backend8handlers8unidades4list0B7_
FN:51,_RNCNvNtNtCshWAJ4lei3LP_18realestate_backend8handlers8unidades6create0B7_
FN:89,_RNCNvNtNtCshWAJ4lei3LP_18realestate_backend8handlers8unidades6delete0B7_
FN:67,_RNCNvNtNtCshWAJ4lei3LP_18realestate_backend8handlers8unidades6update0B7_
FN:39,_RNCNvNtNtCshWAJ4lei3LP_18realestate_backend8handlers8unidades9get_by_id0B7_
FN:18,_RNvNtNtCshWAJ4lei3LP_18realestate_backend8handlers8unidades4list
FN:46,_RNvNtNtCshWAJ4lei3LP_18realestate_backend8handlers8unidades6create
FN:85,_RNvNtNtCshWAJ4lei3LP_18realestate_backend8handlers8unidades6delete
FN:62,_RNvNtNtCshWAJ4lei3LP_18realestate_backend8handlers8unidades6update
FN:35,_RNvNtNtCshWAJ4lei3LP_18realestate_backend8handlers8unidades9get_by_id
FNDA:0,_RNCNvNtNtCsjO1mwjW04O1_18realestate_backend8handlers8unidades4list0B7_
FNDA:0,_RNCNvNtNtCsjO1mwjW04O1_18realestate_backend8handlers8unidades6create0B7_
FNDA:0,_RNCNvNtNtCsjO1mwjW04O1_18realestate_backend8handlers8unidades6delete0B7_
FNDA:0,_RNCNvNtNtCsjO1mwjW04O1_18realestate_backend8handlers8unidades6update0B7_
FNDA:0,_RNCNvNtNtCsjO1mwjW04O1_18realestate_backend8handlers8unidades9get_by_id0B7_
FNDA:0,_RNvNtNtCsjO1mwjW04O1_18realestate_backend8handlers8unidades4list
FNDA:0,_RNvNtNtCsjO1mwjW04O1_18realestate_backend8handlers8unidades6create
FNDA:0,_RNvNtNtCsjO1mwjW04O1_18realestate_backend8handlers8unidades6delete
FNDA:0,_RNvNtNtCsjO1mwjW04O1_18realestate_backend8handlers8unidades6update
FNDA:0,_RNvNtNtCsjO1mwjW04O1_18realestate_backend8handlers8unidades9get_by_id
FNDA:0,_RNCNvNtNtCshWAJ4lei3LP_18realestate_backend8handlers8unidades4list0B7_
FNDA:0,_RNCNvNtNtCshWAJ4lei3LP_18realestate_backend8handlers8unidades6create0B7_
FNDA:0,_RNCNvNtNtCshWAJ4lei3LP_18realestate_backend8handlers8unidades6delete0B7_
FNDA:0,_RNCNvNtNtCshWAJ4lei3LP_18realestate_backend8handlers8unidades6update0B7_
FNDA:0,_RNCNvNtNtCshWAJ4lei3LP_18realestate_backend8handlers8unidades9get_by_id0B7_
FNDA:0,_RNvNtNtCshWAJ4lei3LP_18realestate_backend8handlers8unidades4list
FNDA:0,_RNvNtNtCshWAJ4lei3LP_18realestate_backend8handlers8unidades6create
FNDA:0,_RNvNtNtCshWAJ4lei3LP_18realestate_backend8handlers8unidades6delete
FNDA:0,_RNvNtNtCshWAJ4lei3LP_18realestate_backend8handlers8unidades6update
FNDA:0,_RNvNtNtCshWAJ4lei3LP_18realestate_backend8handlers8unidades9get_by_id
FNF:10
FNH:0
DA:18,0
DA:19,0
DA:20,0
DA:21,0
DA:22,0
DA:23,0
DA:24,0
DA:25,0
DA:26,0
DA:27,0
DA:28,0
DA:29,0
DA:30,0
DA:31,0
DA:32,0
DA:33,0
DA:35,0
DA:36,0
DA:37,0
DA:38,0
DA:39,0
DA:40,0
DA:41,0
DA:42,0
DA:43,0
DA:44,0
DA:46,0
DA:47,0
DA:48,0
DA:49,0
DA:50,0
DA:51,0
DA:52,0
DA:53,0
DA:54,0
DA:55,0
DA:56,0
DA:57,0
DA:58,0
DA:59,0
DA:60,0
DA:62,0
DA:63,0
DA:64,0
DA:65,0
DA:66,0
DA:67,0
DA:68,0
DA:69,0
DA:70,0
DA:71,0
DA:72,0
DA:73,0
DA:74,0
DA:75,0
DA:76,0
DA:77,0
DA:78,0
DA:79,0
DA:80,0
DA:81,0
DA:82,0
DA:83,0
DA:85,0
DA:86,0
DA:87,0
DA:88,0
DA:89,0
DA:90,0
DA:91,0
DA:92,0
DA:93,0
DA:94,0
DA:95,0
DA:96,0
DA:97,0
BRF:0
BRH:0
LF:81
LH:0
end_of_record
SF:/home/runner/_work/Gestion-inmobiliaria/Gestion-inmobiliaria/backend/src/handlers/usuarios.rs
FN:76,_RNCNvNtNtCsjO1mwjW04O1_18realestate_backend8handlers8usuarios10desactivar0B7_
FN:37,_RNCNvNtNtCsjO1mwjW04O1_18realestate_backend8handlers8usuarios11cambiar_rol0B7_
FN:25,_RNCNvNtNtCsjO1mwjW04O1_18realestate_backend8handlers8usuarios4list0B7_
FN:64,_RNCNvNtNtCsjO1mwjW04O1_18realestate_backend8handlers8usuarios7activar0B7_
FN:71,_RNvNtNtCsjO1mwjW04O1_18realestate_backend8handlers8usuarios10desactivar
FN:32,_RNvNtNtCsjO1mwjW04O1_18realestate_backend8handlers8usuarios11cambiar_rol
FN:21,_RNvNtNtCsjO1mwjW04O1_18realestate_backend8handlers8usuarios4list
FN:60,_RNvNtNtCsjO1mwjW04O1_18realestate_backend8handlers8usuarios7activar
FN:71,_RNvNtNtCshWAJ4lei3LP_18realestate_backend8handlers8usuarios10desactivar
FN:32,_RNvNtNtCshWAJ4lei3LP_18realestate_backend8handlers8usuarios11cambiar_rol
FN:21,_RNvNtNtCshWAJ4lei3LP_18realestate_backend8handlers8usuarios4list
FN:60,_RNvNtNtCshWAJ4lei3LP_18realestate_backend8handlers8usuarios7activar
FN:76,_RNCNvNtNtCshWAJ4lei3LP_18realestate_backend8handlers8usuarios10desactivar0B7_
FN:37,_RNCNvNtNtCshWAJ4lei3LP_18realestate_backend8handlers8usuarios11cambiar_rol0B7_
FN:25,_RNCNvNtNtCshWAJ4lei3LP_18realestate_backend8handlers8usuarios4list0B7_
FN:64,_RNCNvNtNtCshWAJ4lei3LP_18realestate_backend8handlers8usuarios7activar0B7_
FNDA:0,_RNCNvNtNtCsjO1mwjW04O1_18realestate_backend8handlers8usuarios10desactivar0B7_
FNDA:0,_RNCNvNtNtCsjO1mwjW04O1_18realestate_backend8handlers8usuarios11cambiar_rol0B7_
FNDA:0,_RNCNvNtNtCsjO1mwjW04O1_18realestate_backend8handlers8usuarios4list0B7_
FNDA:0,_RNCNvNtNtCsjO1mwjW04O1_18realestate_backend8handlers8usuarios7activar0B7_
FNDA:0,_RNvNtNtCsjO1mwjW04O1_18realestate_backend8handlers8usuarios10desactivar
FNDA:0,_RNvNtNtCsjO1mwjW04O1_18realestate_backend8handlers8usuarios11cambiar_rol
FNDA:0,_RNvNtNtCsjO1mwjW04O1_18realestate_backend8handlers8usuarios4list
FNDA:0,_RNvNtNtCsjO1mwjW04O1_18realestate_backend8handlers8usuarios7activar
FNDA:0,_RNvNtNtCshWAJ4lei3LP_18realestate_backend8handlers8usuarios10desactivar
FNDA:0,_RNvNtNtCshWAJ4lei3LP_18realestate_backend8handlers8usuarios11cambiar_rol
FNDA:0,_RNvNtNtCshWAJ4lei3LP_18realestate_backend8handlers8usuarios4list
FNDA:0,_RNvNtNtCshWAJ4lei3LP_18realestate_backend8handlers8usuarios7activar
FNDA:0,_RNCNvNtNtCshWAJ4lei3LP_18realestate_backend8handlers8usuarios10desactivar0B7_
FNDA:0,_RNCNvNtNtCshWAJ4lei3LP_18realestate_backend8handlers8usuarios11cambiar_rol0B7_
FNDA:0,_RNCNvNtNtCshWAJ4lei3LP_18realestate_backend8handlers8usuarios4list0B7_
FNDA:0,_RNCNvNtNtCshWAJ4lei3LP_18realestate_backend8handlers8usuarios7activar0B7_
FNF:8
FNH:0
DA:21,0
DA:22,0
DA:23,0
DA:24,0
DA:25,0
DA:26,0
DA:27,0
DA:28,0
DA:29,0
DA:30,0
DA:32,0
DA:33,0
DA:34,0
DA:35,0
DA:36,0
DA:37,0
DA:38,0
DA:39,0
DA:41,0
DA:42,0
DA:43,0
DA:44,0
DA:45,0
DA:46,0
DA:48,0
DA:49,0
DA:50,0
DA:51,0
DA:52,0
DA:53,0
DA:54,0
DA:55,0
DA:56,0
DA:57,0
DA:58,0
DA:60,0
DA:61,0
DA:62,0
DA:63,0
DA:64,0
DA:65,0
DA:66,0
DA:67,0
DA:68,0
DA:69,0
DA:71,0
DA:72,0
DA:73,0
DA:74,0
DA:75,0
DA:76,0
DA:77,0
DA:78,0
DA:79,0
DA:80,0
DA:81,0
DA:82,0
DA:83,0
DA:84,0
DA:85,0
DA:86,0
DA:87,0
DA:88,0
BRF:0
BRH:0
LF:67
LH:0
end_of_record
SF:/home/runner/_work/Gestion-inmobiliaria/Gestion-inmobiliaria/backend/src/harness/harness_pbt.rs
FN:49,_RNCNvNtNtCshWAJ4lei3LP_18realestate_backend7harness11harness_pbt9file_path0B7_
FN:32,_RNvNtNtCshWAJ4lei3LP_18realestate_backend7harness11harness_pbt14file_extension
FN:11,_RNvNtNtCshWAJ4lei3LP_18realestate_backend7harness11harness_pbt16directory_prefix
FN:47,_RNvNtNtCshWAJ4lei3LP_18realestate_backend7harness11harness_pbt9file_path
FN:28,_RNvNtNtCshWAJ4lei3LP_18realestate_backend7harness11harness_pbt9file_stem
FNDA:101,_RNCNvNtNtCshWAJ4lei3LP_18realestate_backend7harness11harness_pbt9file_path0B7_
FNDA:1,_RNvNtNtCshWAJ4lei3LP_18realestate_backend7harness11harness_pbt14file_extension
FNDA:1,_RNvNtNtCshWAJ4lei3LP_18realestate_backend7harness11harness_pbt16directory_prefix
FNDA:1,_RNvNtNtCshWAJ4lei3LP_18realestate_backend7harness11harness_pbt9file_path
FNDA:1,_RNvNtNtCshWAJ4lei3LP_18realestate_backend7harness11harness_pbt9file_stem
FNF:5
FNH:5
DA:11,1
DA:12,1
DA:13,1
DA:14,1
DA:15,1
DA:16,1
DA:17,1
DA:18,1
DA:19,1
DA:20,1
DA:21,1
DA:22,1
DA:23,1
DA:24,1
DA:26,1
DA:28,1
DA:29,1
DA:30,1
DA:32,1
DA:33,1
DA:34,1
DA:35,1
DA:36,1
DA:37,1
DA:38,1
DA:39,1
DA:40,1
DA:41,1
DA:42,1
DA:43,1
DA:45,1
DA:47,1
DA:48,1
DA:49,101
DA:50,1
BRF:0
BRH:0
LF:36
LH:36
end_of_record
SF:/home/runner/_work/Gestion-inmobiliaria/Gestion-inmobiliaria/backend/src/harness/mod.rs
FN:87,_RNCNCNvNtCsjO1mwjW04O1_18realestate_backend7harness20parse_max_iterations00B7_
FN:88,_RNCNCNvNtCsjO1mwjW04O1_18realestate_backend7harness20parse_max_iterations0s_0B7_
FN:64,_RNCNvNtCsjO1mwjW04O1_18realestate_backend7harness14select_sensors0B5_
FN:44,_RNCNvNtCsjO1mwjW04O1_18realestate_backend7harness18dispatch_formatter0B5_
FN:84,_RNCNvNtCsjO1mwjW04O1_18realestate_backend7harness20parse_max_iterations0B5_
FN:60,_RNvNtCsjO1mwjW04O1_18realestate_backend7harness14select_sensors
FN:43,_RNvNtCsjO1mwjW04O1_18realestate_backend7harness18dispatch_formatter
FN:113,_RNvNtCsjO1mwjW04O1_18realestate_backend7harness19determine_exit_code
FN:169,_RNvNtCsjO1mwjW04O1_18realestate_backend7harness19prioritize_failures
FN:81,_RNvNtCsjO1mwjW04O1_18realestate_backend7harness20parse_max_iterations
FN:93,_RNvNtCsjO1mwjW04O1_18realestate_backend7harness20should_continue_loop
FN:125,_RNvNtCsjO1mwjW04O1_18realestate_backend7harness21format_commit_message
FN:87,_RNCNCNvNtCshWAJ4lei3LP_18realestate_backend7harness20parse_max_iterations00B7_
FN:88,_RNCNCNvNtCshWAJ4lei3LP_18realestate_backend7harness20parse_max_iterations0s_0B7_
FN:64,_RNCNvNtCshWAJ4lei3LP_18realestate_backend7harness14select_sensors0B5_
FN:44,_RNCNvNtCshWAJ4lei3LP_18realestate_backend7harness18dispatch_formatter0B5_
FN:84,_RNCNvNtCshWAJ4lei3LP_18realestate_backend7harness20parse_max_iterations0B5_
FN:60,_RNvNtCshWAJ4lei3LP_18realestate_backend7harness14select_sensors
FN:43,_RNvNtCshWAJ4lei3LP_18realestate_backend7harness18dispatch_formatter
FN:113,_RNvNtCshWAJ4lei3LP_18realestate_backend7harness19determine_exit_code
FN:169,_RNvNtCshWAJ4lei3LP_18realestate_backend7harness19prioritize_failures
FN:81,_RNvNtCshWAJ4lei3LP_18realestate_backend7harness20parse_max_iterations
FN:93,_RNvNtCshWAJ4lei3LP_18realestate_backend7harness20should_continue_loop
FN:125,_RNvNtCshWAJ4lei3LP_18realestate_backend7harness21format_commit_message
FN:248,_RNvNtNtCshWAJ4lei3LP_18realestate_backend7harness5testss_20select_sensors_mixed
FN:224,_RNvNtNtCshWAJ4lei3LP_18realestate_backend7harness5testss_24select_sensors_rust_only
FN:273,_RNvNtNtCshWAJ4lei3LP_18realestate_backend7harness5testss_26parse_max_iterations_valid
FN:241,_RNvNtNtCshWAJ4lei3LP_18realestate_backend7harness5testss_26select_sensors_kotlin_only
FN:358,_RNvNtNtCshWAJ4lei3LP_18realestate_backend7harness5testss_28determine_exit_code_all_pass
FN:182,_RNvNtNtCshWAJ4lei3LP_18realestate_backend7harness5testss_28dispatch_formatter_rust_file
FN:429,_RNvNtNtCshWAJ4lei3LP_18realestate_backend7harness5testss_28prioritize_failures_ordering
FN:266,_RNvNtNtCshWAJ4lei3LP_18realestate_backend7harness5testss_28select_sensors_non_code_only
FN:280,_RNvNtNtCshWAJ4lei3LP_18realestate_backend7harness5testss_29parse_max_iterations_defaults
FN:289,_RNvNtNtCshWAJ4lei3LP_18realestate_backend7harness5testss_29should_continue_loop_all_pass
FN:231,_RNvNtNtCshWAJ4lei3LP_18realestate_backend7harness5testss_30select_sensors_typescript_only
FN:369,_RNvNtNtCshWAJ4lei3LP_18realestate_backend7harness5testss_31determine_exit_code_no_progress
FN:188,_RNvNtNtCshWAJ4lei3LP_18realestate_backend7harness5testss_32dispatch_formatter_ts_in_baileys
FN:197,_RNvNtNtCshWAJ4lei3LP_18realestate_backend7harness5testss_33dispatch_formatter_tsx_in_baileys
FN:364,_RNvNtNtCshWAJ4lei3LP_18realestate_backend7harness5testss_36determine_exit_code_partial_progress
FN:206,_RNvNtNtCshWAJ4lei3LP_18realestate_backend7harness5testss_36dispatch_formatter_kotlin_in_android
FN:462,_RNvNtNtCshWAJ4lei3LP_18realestate_backend7harness5testss_38prioritize_failures_stable_within_type
FN:397,_RNvNtNtCshWAJ4lei3LP_18realestate_backend7harness5testss_39format_commit_message_contains_sections
FN:374,_RNvNtNtCshWAJ4lei3LP_18realestate_backend7harness5testss_39format_commit_message_first_line_max_70
FN:307,_RNvNtNtCshWAJ4lei3LP_18realestate_backend7harness5testss_44should_continue_loop_below_max_with_failures
FN:340,_RNvNtNtCshWAJ4lei3LP_18realestate_backend7harness5testss_44should_continue_loop_max_reached_no_progress
FN:322,_RNvNtNtCshWAJ4lei3LP_18realestate_backend7harness5testss_46should_continue_loop_max_reached_with_progress
FN:218,_RNvNtNtCshWAJ4lei3LP_18realestate_backend7harness5testss_49dispatch_formatter_unknown_extension_returns_none
FN:212,_RNvNtNtCshWAJ4lei3LP_18realestate_backend7harness5testss_50dispatch_formatter_ts_outside_baileys_returns_none
FNDA:0,_RNCNCNvNtCsjO1mwjW04O1_18realestate_backend7harness20parse_max_iterations00B7_
FNDA:0,_RNCNCNvNtCsjO1mwjW04O1_18realestate_backend7harness20parse_max_iterations0s_0B7_
FNDA:0,_RNCNvNtCsjO1mwjW04O1_18realestate_backend7harness14select_sensors0B5_
FNDA:0,_RNCNvNtCsjO1mwjW04O1_18realestate_backend7harness18dispatch_formatter0B5_
FNDA:0,_RNCNvNtCsjO1mwjW04O1_18realestate_backend7harness20parse_max_iterations0B5_
FNDA:0,_RNvNtCsjO1mwjW04O1_18realestate_backend7harness14select_sensors
FNDA:0,_RNvNtCsjO1mwjW04O1_18realestate_backend7harness18dispatch_formatter
FNDA:0,_RNvNtCsjO1mwjW04O1_18realestate_backend7harness19determine_exit_code
FNDA:0,_RNvNtCsjO1mwjW04O1_18realestate_backend7harness19prioritize_failures
FNDA:0,_RNvNtCsjO1mwjW04O1_18realestate_backend7harness20parse_max_iterations
FNDA:0,_RNvNtCsjO1mwjW04O1_18realestate_backend7harness20should_continue_loop
FNDA:0,_RNvNtCsjO1mwjW04O1_18realestate_backend7harness21format_commit_message
FNDA:5,_RNCNCNvNtCshWAJ4lei3LP_18realestate_backend7harness20parse_max_iterations00B7_
FNDA:3,_RNCNCNvNtCshWAJ4lei3LP_18realestate_backend7harness20parse_max_iterations0s_0B7_
FNDA:10,_RNCNvNtCshWAJ4lei3LP_18realestate_backend7harness14select_sensors0B5_
FNDA:107,_RNCNvNtCshWAJ4lei3LP_18realestate_backend7harness18dispatch_formatter0B5_
FNDA:7,_RNCNvNtCshWAJ4lei3LP_18realestate_backend7harness20parse_max_iterations0B5_
FNDA:5,_RNvNtCshWAJ4lei3LP_18realestate_backend7harness14select_sensors
FNDA:107,_RNvNtCshWAJ4lei3LP_18realestate_backend7harness18dispatch_formatter
FNDA:4,_RNvNtCshWAJ4lei3LP_18realestate_backend7harness19determine_exit_code
FNDA:2,_RNvNtCshWAJ4lei3LP_18realestate_backend7harness19prioritize_failures
FNDA:8,_RNvNtCshWAJ4lei3LP_18realestate_backend7harness20parse_max_iterations
FNDA:4,_RNvNtCshWAJ4lei3LP_18realestate_backend7harness20should_continue_loop
FNDA:2,_RNvNtCshWAJ4lei3LP_18realestate_backend7harness21format_commit_message
FNDA:1,_RNvNtNtCshWAJ4lei3LP_18realestate_backend7harness5testss_20select_sensors_mixed
FNDA:1,_RNvNtNtCshWAJ4lei3LP_18realestate_backend7harness5testss_24select_sensors_rust_only
FNDA:1,_RNvNtNtCshWAJ4lei3LP_18realestate_backend7harness5testss_26parse_max_iterations_valid
FNDA:1,_RNvNtNtCshWAJ4lei3LP_18realestate_backend7harness5testss_26select_sensors_kotlin_only
FNDA:1,_RNvNtNtCshWAJ4lei3LP_18realestate_backend7harness5testss_28determine_exit_code_all_pass
FNDA:1,_RNvNtNtCshWAJ4lei3LP_18realestate_backend7harness5testss_28dispatch_formatter_rust_file
FNDA:1,_RNvNtNtCshWAJ4lei3LP_18realestate_backend7harness5testss_28prioritize_failures_ordering
FNDA:1,_RNvNtNtCshWAJ4lei3LP_18realestate_backend7harness5testss_28select_sensors_non_code_only
FNDA:1,_RNvNtNtCshWAJ4lei3LP_18realestate_backend7harness5testss_29parse_max_iterations_defaults
FNDA:1,_RNvNtNtCshWAJ4lei3LP_18realestate_backend7harness5testss_29should_continue_loop_all_pass
FNDA:1,_RNvNtNtCshWAJ4lei3LP_18realestate_backend7harness5testss_30select_sensors_typescript_only
FNDA:1,_RNvNtNtCshWAJ4lei3LP_18realestate_backend7harness5testss_31determine_exit_code_no_progress
FNDA:1,_RNvNtNtCshWAJ4lei3LP_18realestate_backend7harness5testss_32dispatch_formatter_ts_in_baileys
FNDA:1,_RNvNtNtCshWAJ4lei3LP_18realestate_backend7harness5testss_33dispatch_formatter_tsx_in_baileys
FNDA:1,_RNvNtNtCshWAJ4lei3LP_18realestate_backend7harness5testss_36determine_exit_code_partial_progress
FNDA:1,_RNvNtNtCshWAJ4lei3LP_18realestate_backend7harness5testss_36dispatch_formatter_kotlin_in_android
FNDA:1,_RNvNtNtCshWAJ4lei3LP_18realestate_backend7harness5testss_38prioritize_failures_stable_within_type
FNDA:1,_RNvNtNtCshWAJ4lei3LP_18realestate_backend7harness5testss_39format_commit_message_contains_sections
FNDA:1,_RNvNtNtCshWAJ4lei3LP_18realestate_backend7harness5testss_39format_commit_message_first_line_max_70
FNDA:1,_RNvNtNtCshWAJ4lei3LP_18realestate_backend7harness5testss_44should_continue_loop_below_max_with_failures
FNDA:1,_RNvNtNtCshWAJ4lei3LP_18realestate_backend7harness5testss_44should_continue_loop_max_reached_no_progress
FNDA:1,_RNvNtNtCshWAJ4lei3LP_18realestate_backend7harness5testss_46should_continue_loop_max_reached_with_progress
FNDA:1,_RNvNtNtCshWAJ4lei3LP_18realestate_backend7harness5testss_49dispatch_formatter_unknown_extension_returns_none
FNDA:1,_RNvNtNtCshWAJ4lei3LP_18realestate_backend7harness5testss_50dispatch_formatter_ts_outside_baileys_returns_none
FNF:36
FNH:36
DA:43,107
DA:44,107
DA:45,107
DA:46,10
DA:47,97
DA:48,27
DA:50,8
DA:51,89
DA:52,8
DA:54,2
DA:56,87
DA:58,107
DA:60,5
DA:61,5
DA:63,11
DA:64,11
DA:65,10
DA:66,3
DA:67,8
DA:68,3
DA:69,3
DA:70,3
DA:71,5
DA:72,2
DA:73,2
DA:74,2
DA:75,3
DA:78,5
DA:79,5
DA:81,8
DA:84,8
DA:85,7
DA:86,7
DA:87,7
DA:88,7
DA:89,7
DA:90,7
DA:91,8
DA:93,4
DA:94,4
DA:95,4
DA:96,4
DA:97,4
DA:98,4
DA:100,4
DA:101,1
DA:102,3
DA:104,3
DA:105,1
DA:106,2
DA:108,2
DA:109,2
DA:110,2
DA:111,4
DA:113,4
DA:114,4
DA:115,2
DA:116,2
DA:117,1
DA:118,1
DA:119,1
DA:121,0
DA:123,4
DA:125,2
DA:126,2
DA:127,2
DA:128,2
DA:129,2
DA:130,2
DA:131,2
DA:132,2
DA:133,2
DA:134,2
DA:135,2
DA:136,2
DA:137,2
DA:138,1
DA:140,1
DA:142,2
DA:144,2
DA:145,2
DA:146,2
DA:148,2
DA:149,3
DA:150,3
DA:151,3
DA:153,2
DA:154,3
DA:155,3
DA:156,3
DA:159,2
DA:160,1
DA:161,1
DA:163,2
DA:164,2
DA:166,2
DA:167,2
DA:169,2
DA:170,2
DA:171,2
DA:182,1
DA:183,1
DA:184,1
DA:185,1
DA:188,1
DA:189,1
DA:190,1
DA:192,1
DA:194,1
DA:197,1
DA:198,1
DA:199,1
DA:201,1
DA:203,1
DA:206,1
DA:207,1
DA:208,1
DA:209,1
DA:212,1
DA:213,1
DA:214,1
DA:215,1
DA:218,1
DA:219,1
DA:220,1
DA:221,1
DA:224,1
DA:225,1
DA:226,1
DA:227,1
DA:228,1
DA:231,1
DA:232,1
DA:234,1
DA:236,1
DA:237,1
DA:238,1
DA:241,1
DA:242,1
DA:243,1
DA:244,1
DA:245,1
DA:248,1
DA:249,1
DA:251,1
DA:252,1
DA:254,1
DA:255,1
DA:257,1
DA:258,1
DA:259,1
DA:260,1
DA:261,1
DA:263,1
DA:266,1
DA:267,1
DA:268,1
DA:269,1
DA:270,1
DA:273,1
DA:274,1
DA:275,1
DA:276,1
DA:277,1
DA:280,1
DA:281,1
DA:282,1
DA:283,1
DA:284,1
DA:285,1
DA:286,1
DA:289,1
DA:290,1
DA:291,1
DA:292,1
DA:293,1
DA:294,1
DA:295,1
DA:296,1
DA:297,1
DA:298,1
DA:300,1
DA:301,1
DA:304,1
DA:307,1
DA:308,1
DA:309,1
DA:310,1
DA:311,1
DA:312,1
DA:313,1
DA:314,1
DA:315,1
DA:316,1
DA:318,1
DA:319,1
DA:322,1
DA:323,1
DA:324,1
DA:325,1
DA:326,1
DA:327,1
DA:328,1
DA:329,1
DA:330,1
DA:331,1
DA:333,1
DA:334,1
DA:337,1
DA:340,1
DA:341,1
DA:342,1
DA:343,1
DA:344,1
DA:345,1
DA:346,1
DA:347,1
DA:348,1
DA:349,1
DA:351,1
DA:352,1
DA:355,1
DA:358,1
DA:359,1
DA:360,1
DA:361,1
DA:364,1
DA:365,1
DA:366,1
DA:369,1
DA:370,1
DA:371,1
DA:374,1
DA:375,1
DA:376,1
DA:377,1
DA:378,1
DA:379,1
DA:380,1
DA:381,1
DA:382,1
DA:383,1
DA:384,1
DA:388,1
DA:389,1
DA:390,1
DA:392,0
DA:394,1
DA:397,1
DA:398,1
DA:399,1
DA:400,1
DA:401,1
DA:402,1
DA:403,1
DA:404,1
DA:405,1
DA:406,1
DA:407,1
DA:408,1
DA:409,1
DA:410,1
DA:411,1
DA:412,1
DA:413,1
DA:417,1
DA:418,1
DA:419,1
DA:420,1
DA:421,1
DA:422,1
DA:423,1
DA:424,1
DA:425,1
DA:426,1
DA:429,1
DA:430,1
DA:431,1
DA:432,1
DA:433,1
DA:434,1
DA:435,1
DA:436,1
DA:437,1
DA:438,1
DA:439,1
DA:440,1
DA:441,1
DA:442,1
DA:443,1
DA:444,1
DA:445,1
DA:446,1
DA:447,1
DA:448,1
DA:449,1
DA:450,1
DA:452,1
DA:454,1
DA:455,1
DA:456,1
DA:457,1
DA:458,1
DA:459,1
DA:462,1
DA:463,1
DA:464,1
DA:465,1
DA:466,1
DA:467,1
DA:468,1
DA:469,1
DA:470,1
DA:471,1
DA:472,1
DA:473,1
DA:474,1
DA:475,1
DA:477,1
DA:479,1
DA:480,1
DA:481,1
DA:482,1
BRF:0
BRH:0
LF:328
LH:326
end_of_record
SF:/home/runner/_work/Gestion-inmobiliaria/Gestion-inmobiliaria/backend/src/lib.rs
FN:19,_RNCNvNtCshWAJ4lei3LP_18realestate_backend12test_support9pbt_cases0B5_
FN:16,_RNvNtCshWAJ4lei3LP_18realestate_backend12test_support9pbt_cases
FNDA:0,_RNCNvNtCshWAJ4lei3LP_18realestate_backend12test_support9pbt_cases0B5_
FNDA:181,_RNvNtCshWAJ4lei3LP_18realestate_backend12test_support9pbt_cases
FNF:2
FNH:1
DA:16,181
DA:17,181
DA:18,181
DA:19,181
DA:20,181
DA:21,181
BRF:0
BRH:0
LF:7
LH:6
end_of_record
SF:/home/runner/_work/Gestion-inmobiliaria/Gestion-inmobiliaria/backend/src/main.rs
FN:60,_RNCNCNvCskqrQbUAEY9O_18realestate_backend4main00B5_
FN:89,_RNCNCNvCskqrQbUAEY9O_18realestate_backend4main0s0_0B5_
FN:77,_RNCNCNvCskqrQbUAEY9O_18realestate_backend4main0s_0B5_
FN:60,_RNCNCNvCsbgKgox7znE6_18realestate_backend4main00B5_
FN:89,_RNCNCNvCsbgKgox7znE6_18realestate_backend4main0s0_0B5_
FN:77,_RNCNCNvCsbgKgox7znE6_18realestate_backend4main0s_0B5_
FNDA:0,_RNCNCNvCskqrQbUAEY9O_18realestate_backend4main00B5_
FNDA:0,_RNCNCNvCskqrQbUAEY9O_18realestate_backend4main0s0_0B5_
FNDA:0,_RNCNCNvCskqrQbUAEY9O_18realestate_backend4main0s_0B5_
FNDA:0,_RNCNCNvCsbgKgox7znE6_18realestate_backend4main00B5_
FNDA:0,_RNCNCNvCsbgKgox7znE6_18realestate_backend4main0s0_0B5_
FNDA:0,_RNCNCNvCsbgKgox7znE6_18realestate_backend4main0s_0B5_
FNF:3
FNH:0
DA:60,0
DA:61,0
DA:63,0
DA:64,0
DA:77,0
DA:78,0
DA:79,0
DA:89,0
DA:90,0
DA:91,0
DA:92,0
DA:93,0
DA:95,0
DA:96,0
DA:97,0
BRF:0
BRH:0
LF:15
LH:0
end_of_record
SF:/home/runner/_work/Gestion-inmobiliaria/Gestion-inmobiliaria/backend/src/metrics.rs
FN:9,_RINvNtCsjO1mwjW04O1_18realestate_backend7metrics13unwrap_metricINtNtCshue8KQCqB7X_10prometheus3vec9MetricVecINtNtB14_7counter17CounterVecBuilderNtNtB14_8atomic649AtomicU64EENtNtB14_6errors5ErrorEB4_
FN:9,_RINvNtCsjO1mwjW04O1_18realestate_backend7metrics13unwrap_metricINtNtCshue8KQCqB7X_10prometheus3vec9MetricVecNtNtB14_9histogram19HistogramVecBuilderENtNtB14_6errors5ErrorEB4_
FN:9,_RINvNtCsjO1mwjW04O1_18realestate_backend7metrics13unwrap_metricINtNtCshue8KQCqB7X_10prometheus5gauge12GenericGaugeNtNtB14_8atomic649AtomicI64ENtNtB14_6errors5ErrorEB4_
FN:9,_RINvNtCsjO1mwjW04O1_18realestate_backend7metrics13unwrap_metricINtNtCshue8KQCqB7X_10prometheus7counter14GenericCounterNtNtB14_8atomic649AtomicU64ENtNtB14_6errors5ErrorEB4_
FN:9,_RINvNtCsjO1mwjW04O1_18realestate_backend7metrics13unwrap_metricNtNtCshue8KQCqB7X_10prometheus9histogram9HistogramNtNtB13_6errors5ErrorEB4_
FN:121,_RNCNvNtCsjO1mwjW04O1_18realestate_backend7metrics11AI_REQUESTS0B5_
FN:171,_RNCNvNtCsjO1mwjW04O1_18realestate_backend7metrics15AUTH_REJECTIONS0B5_
FN:39,_RNCNvNtCsjO1mwjW04O1_18realestate_backend7metrics15PAGOS_ATRASADOS0B5_
FN:29,_RNCNvNtCsjO1mwjW04O1_18realestate_backend7metrics16PAGOS_PROCESADOS0B5_
FN:161,_RNCNvNtCsjO1mwjW04O1_18realestate_backend7metrics16USUARIOS_ACTIVOS0B5_
FN:46,_RNCNvNtCsjO1mwjW04O1_18realestate_backend7metrics17CONTRATOS_ACTIVOS0B5_
FN:92,_RNCNvNtCsjO1mwjW04O1_18realestate_backend7metrics17DB_QUERY_DURATION0B5_
FN:181,_RNCNvNtCsjO1mwjW04O1_18realestate_backend7metrics18COLD_START_RETRIES0B5_
FN:151,_RNCNvNtCsjO1mwjW04O1_18realestate_backend7metrics18GASTOS_REGISTRADOS0B5_
FN:131,_RNCNvNtCsjO1mwjW04O1_18realestate_backend7metrics19AI_REQUEST_ATTEMPTS0B5_
FN:19,_RNCNvNtCsjO1mwjW04O1_18realestate_backend7metrics19AUTH_LOGIN_ATTEMPTS0B5_
FN:191,_RNCNvNtCsjO1mwjW04O1_18realestate_backend7metrics19COLD_START_OUTCOMES0B5_
FN:108,_RNCNvNtCsjO1mwjW04O1_18realestate_backend7metrics21AI_INFERENCE_DURATION0B5_
FN:79,_RNCNvNtCsjO1mwjW04O1_18realestate_backend7metrics21MANTENIMIENTO_CREADAS0B5_
FN:56,_RNCNvNtCsjO1mwjW04O1_18realestate_backend7metrics22CONTRATOS_TRANSICIONES0B5_
FN:69,_RNCNvNtCsjO1mwjW04O1_18realestate_backend7metrics23MANTENIMIENTO_PENDIENTE0B5_
FN:141,_RNCNvNtCsjO1mwjW04O1_18realestate_backend7metrics23NOTIFICACIONES_ENVIADAS0B5_
FN:204,_RNvNtCsjO1mwjW04O1_18realestate_backend7metrics4init
FN:9,_RINvNtCshWAJ4lei3LP_18realestate_backend7metrics13unwrap_metricINtNtCshue8KQCqB7X_10prometheus3vec9MetricVecINtNtB14_7counter17CounterVecBuilderNtNtB14_8atomic649AtomicU64EENtNtB14_6errors5ErrorEB4_
FN:9,_RINvNtCshWAJ4lei3LP_18realestate_backend7metrics13unwrap_metricINtNtCshue8KQCqB7X_10prometheus3vec9MetricVecNtNtB14_9histogram19HistogramVecBuilderENtNtB14_6errors5ErrorEB4_
FN:9,_RINvNtCshWAJ4lei3LP_18realestate_backend7metrics13unwrap_metricINtNtCshue8KQCqB7X_10prometheus5gauge12GenericGaugeNtNtB14_8atomic649AtomicI64ENtNtB14_6errors5ErrorEB4_
FN:9,_RINvNtCshWAJ4lei3LP_18realestate_backend7metrics13unwrap_metricINtNtCshue8KQCqB7X_10prometheus7counter14GenericCounterNtNtB14_8atomic649AtomicU64ENtNtB14_6errors5ErrorEB4_
FN:9,_RINvNtCshWAJ4lei3LP_18realestate_backend7metrics13unwrap_metricNtNtCshue8KQCqB7X_10prometheus9histogram9HistogramNtNtB13_6errors5ErrorEB4_
FN:121,_RNCNvNtCshWAJ4lei3LP_18realestate_backend7metrics11AI_REQUESTS0B5_
FN:171,_RNCNvNtCshWAJ4lei3LP_18realestate_backend7metrics15AUTH_REJECTIONS0B5_
FN:39,_RNCNvNtCshWAJ4lei3LP_18realestate_backend7metrics15PAGOS_ATRASADOS0B5_
FN:29,_RNCNvNtCshWAJ4lei3LP_18realestate_backend7metrics16PAGOS_PROCESADOS0B5_
FN:161,_RNCNvNtCshWAJ4lei3LP_18realestate_backend7metrics16USUARIOS_ACTIVOS0B5_
FN:46,_RNCNvNtCshWAJ4lei3LP_18realestate_backend7metrics17CONTRATOS_ACTIVOS0B5_
FN:92,_RNCNvNtCshWAJ4lei3LP_18realestate_backend7metrics17DB_QUERY_DURATION0B5_
FN:181,_RNCNvNtCshWAJ4lei3LP_18realestate_backend7metrics18COLD_START_RETRIES0B5_
FN:151,_RNCNvNtCshWAJ4lei3LP_18realestate_backend7metrics18GASTOS_REGISTRADOS0B5_
FN:131,_RNCNvNtCshWAJ4lei3LP_18realestate_backend7metrics19AI_REQUEST_ATTEMPTS0B5_
FN:19,_RNCNvNtCshWAJ4lei3LP_18realestate_backend7metrics19AUTH_LOGIN_ATTEMPTS0B5_
FN:191,_RNCNvNtCshWAJ4lei3LP_18realestate_backend7metrics19COLD_START_OUTCOMES0B5_
FN:108,_RNCNvNtCshWAJ4lei3LP_18realestate_backend7metrics21AI_INFERENCE_DURATION0B5_
FN:79,_RNCNvNtCshWAJ4lei3LP_18realestate_backend7metrics21MANTENIMIENTO_CREADAS0B5_
FN:56,_RNCNvNtCshWAJ4lei3LP_18realestate_backend7metrics22CONTRATOS_TRANSICIONES0B5_
FN:69,_RNCNvNtCshWAJ4lei3LP_18realestate_backend7metrics23MANTENIMIENTO_PENDIENTE0B5_
FN:141,_RNCNvNtCshWAJ4lei3LP_18realestate_backend7metrics23NOTIFICACIONES_ENVIADAS0B5_
FN:204,_RNvNtCshWAJ4lei3LP_18realestate_backend7metrics4init
FNDA:0,_RINvNtCsjO1mwjW04O1_18realestate_backend7metrics13unwrap_metricINtNtCshue8KQCqB7X_10prometheus3vec9MetricVecINtNtB14_7counter17CounterVecBuilderNtNtB14_8atomic649AtomicU64EENtNtB14_6errors5ErrorEB4_
FNDA:0,_RINvNtCsjO1mwjW04O1_18realestate_backend7metrics13unwrap_metricINtNtCshue8KQCqB7X_10prometheus3vec9MetricVecNtNtB14_9histogram19HistogramVecBuilderENtNtB14_6errors5ErrorEB4_
FNDA:0,_RINvNtCsjO1mwjW04O1_18realestate_backend7metrics13unwrap_metricINtNtCshue8KQCqB7X_10prometheus5gauge12GenericGaugeNtNtB14_8atomic649AtomicI64ENtNtB14_6errors5ErrorEB4_
FNDA:0,_RINvNtCsjO1mwjW04O1_18realestate_backend7metrics13unwrap_metricINtNtCshue8KQCqB7X_10prometheus7counter14GenericCounterNtNtB14_8atomic649AtomicU64ENtNtB14_6errors5ErrorEB4_
FNDA:0,_RINvNtCsjO1mwjW04O1_18realestate_backend7metrics13unwrap_metricNtNtCshue8KQCqB7X_10prometheus9histogram9HistogramNtNtB13_6errors5ErrorEB4_
FNDA:0,_RNCNvNtCsjO1mwjW04O1_18realestate_backend7metrics11AI_REQUESTS0B5_
FNDA:0,_RNCNvNtCsjO1mwjW04O1_18realestate_backend7metrics15AUTH_REJECTIONS0B5_
FNDA:0,_RNCNvNtCsjO1mwjW04O1_18realestate_backend7metrics15PAGOS_ATRASADOS0B5_
FNDA:0,_RNCNvNtCsjO1mwjW04O1_18realestate_backend7metrics16PAGOS_PROCESADOS0B5_
FNDA:0,_RNCNvNtCsjO1mwjW04O1_18realestate_backend7metrics16USUARIOS_ACTIVOS0B5_
FNDA:0,_RNCNvNtCsjO1mwjW04O1_18realestate_backend7metrics17CONTRATOS_ACTIVOS0B5_
FNDA:0,_RNCNvNtCsjO1mwjW04O1_18realestate_backend7metrics17DB_QUERY_DURATION0B5_
FNDA:0,_RNCNvNtCsjO1mwjW04O1_18realestate_backend7metrics18COLD_START_RETRIES0B5_
FNDA:0,_RNCNvNtCsjO1mwjW04O1_18realestate_backend7metrics18GASTOS_REGISTRADOS0B5_
FNDA:0,_RNCNvNtCsjO1mwjW04O1_18realestate_backend7metrics19AI_REQUEST_ATTEMPTS0B5_
FNDA:0,_RNCNvNtCsjO1mwjW04O1_18realestate_backend7metrics19AUTH_LOGIN_ATTEMPTS0B5_
FNDA:0,_RNCNvNtCsjO1mwjW04O1_18realestate_backend7metrics19COLD_START_OUTCOMES0B5_
FNDA:0,_RNCNvNtCsjO1mwjW04O1_18realestate_backend7metrics21AI_INFERENCE_DURATION0B5_
FNDA:0,_RNCNvNtCsjO1mwjW04O1_18realestate_backend7metrics21MANTENIMIENTO_CREADAS0B5_
FNDA:0,_RNCNvNtCsjO1mwjW04O1_18realestate_backend7metrics22CONTRATOS_TRANSICIONES0B5_
FNDA:0,_RNCNvNtCsjO1mwjW04O1_18realestate_backend7metrics23MANTENIMIENTO_PENDIENTE0B5_
FNDA:0,_RNCNvNtCsjO1mwjW04O1_18realestate_backend7metrics23NOTIFICACIONES_ENVIADAS0B5_
FNDA:0,_RNvNtCsjO1mwjW04O1_18realestate_backend7metrics4init
FNDA:0,_RINvNtCshWAJ4lei3LP_18realestate_backend7metrics13unwrap_metricINtNtCshue8KQCqB7X_10prometheus3vec9MetricVecINtNtB14_7counter17CounterVecBuilderNtNtB14_8atomic649AtomicU64EENtNtB14_6errors5ErrorEB4_
FNDA:0,_RINvNtCshWAJ4lei3LP_18realestate_backend7metrics13unwrap_metricINtNtCshue8KQCqB7X_10prometheus3vec9MetricVecNtNtB14_9histogram19HistogramVecBuilderENtNtB14_6errors5ErrorEB4_
FNDA:0,_RINvNtCshWAJ4lei3LP_18realestate_backend7metrics13unwrap_metricINtNtCshue8KQCqB7X_10prometheus5gauge12GenericGaugeNtNtB14_8atomic649AtomicI64ENtNtB14_6errors5ErrorEB4_
FNDA:0,_RINvNtCshWAJ4lei3LP_18realestate_backend7metrics13unwrap_metricINtNtCshue8KQCqB7X_10prometheus7counter14GenericCounterNtNtB14_8atomic649AtomicU64ENtNtB14_6errors5ErrorEB4_
FNDA:0,_RINvNtCshWAJ4lei3LP_18realestate_backend7metrics13unwrap_metricNtNtCshue8KQCqB7X_10prometheus9histogram9HistogramNtNtB13_6errors5ErrorEB4_
FNDA:0,_RNCNvNtCshWAJ4lei3LP_18realestate_backend7metrics11AI_REQUESTS0B5_
FNDA:0,_RNCNvNtCshWAJ4lei3LP_18realestate_backend7metrics15AUTH_REJECTIONS0B5_
FNDA:0,_RNCNvNtCshWAJ4lei3LP_18realestate_backend7metrics15PAGOS_ATRASADOS0B5_
FNDA:0,_RNCNvNtCshWAJ4lei3LP_18realestate_backend7metrics16PAGOS_PROCESADOS0B5_
FNDA:0,_RNCNvNtCshWAJ4lei3LP_18realestate_backend7metrics16USUARIOS_ACTIVOS0B5_
FNDA:0,_RNCNvNtCshWAJ4lei3LP_18realestate_backend7metrics17CONTRATOS_ACTIVOS0B5_
FNDA:0,_RNCNvNtCshWAJ4lei3LP_18realestate_backend7metrics17DB_QUERY_DURATION0B5_
FNDA:0,_RNCNvNtCshWAJ4lei3LP_18realestate_backend7metrics18COLD_START_RETRIES0B5_
FNDA:0,_RNCNvNtCshWAJ4lei3LP_18realestate_backend7metrics18GASTOS_REGISTRADOS0B5_
FNDA:0,_RNCNvNtCshWAJ4lei3LP_18realestate_backend7metrics19AI_REQUEST_ATTEMPTS0B5_
FNDA:0,_RNCNvNtCshWAJ4lei3LP_18realestate_backend7metrics19AUTH_LOGIN_ATTEMPTS0B5_
FNDA:0,_RNCNvNtCshWAJ4lei3LP_18realestate_backend7metrics19COLD_START_OUTCOMES0B5_
FNDA:0,_RNCNvNtCshWAJ4lei3LP_18realestate_backend7metrics21AI_INFERENCE_DURATION0B5_
FNDA:0,_RNCNvNtCshWAJ4lei3LP_18realestate_backend7metrics21MANTENIMIENTO_CREADAS0B5_
FNDA:0,_RNCNvNtCshWAJ4lei3LP_18realestate_backend7metrics22CONTRATOS_TRANSICIONES0B5_
FNDA:0,_RNCNvNtCshWAJ4lei3LP_18realestate_backend7metrics23MANTENIMIENTO_PENDIENTE0B5_
FNDA:0,_RNCNvNtCshWAJ4lei3LP_18realestate_backend7metrics23NOTIFICACIONES_ENVIADAS0B5_
FNDA:0,_RNvNtCshWAJ4lei3LP_18realestate_backend7metrics4init
FNF:19
FNH:0
DA:9,0
DA:10,0
DA:11,0
DA:12,0
DA:13,0
DA:14,0
DA:17,0
DA:19,0
DA:20,0
DA:21,0
DA:22,0
DA:23,0
DA:25,0
DA:27,0
DA:29,0
DA:30,0
DA:31,0
DA:32,0
DA:33,0
DA:35,0
DA:37,0
DA:39,0
DA:40,0
DA:41,0
DA:42,0
DA:44,0
DA:46,0
DA:47,0
DA:48,0
DA:52,0
DA:54,0
DA:56,0
DA:57,0
DA:58,0
DA:59,0
DA:63,0
DA:65,0
DA:67,0
DA:69,0
DA:70,0
DA:71,0
DA:75,0
DA:77,0
DA:79,0
DA:80,0
DA:81,0
DA:82,0
DA:86,0
DA:88,0
DA:90,0
DA:92,0
DA:93,0
DA:94,0
DA:95,0
DA:99,0
DA:102,0
DA:104,0
DA:106,0
DA:108,0
DA:109,0
DA:110,0
DA:111,0
DA:115,0
DA:117,0
DA:119,0
DA:121,0
DA:122,0
DA:123,0
DA:124,0
DA:125,0
DA:127,0
DA:129,0
DA:131,0
DA:132,0
DA:133,0
DA:137,0
DA:139,0
DA:141,0
DA:142,0
DA:143,0
DA:144,0
DA:145,0
DA:147,0
DA:149,0
DA:151,0
DA:152,0
DA:153,0
DA:154,0
DA:155,0
DA:157,0
DA:159,0
DA:161,0
DA:162,0
DA:163,0
DA:167,0
DA:169,0
DA:171,0
DA:172,0
DA:173,0
DA:177,0
DA:179,0
DA:181,0
DA:182,0
DA:183,0
DA:187,0
DA:189,0
DA:191,0
DA:192,0
DA:193,0
DA:194,0
DA:198,0
DA:200,0
DA:202,0
DA:204,0
DA:205,0
DA:206,0
DA:207,0
DA:208,0
DA:209,0
DA:210,0
DA:211,0
DA:212,0
DA:213,0
DA:214,0
DA:215,0
DA:216,0
DA:217,0
DA:218,0
DA:219,0
DA:220,0
DA:221,0
DA:222,0
BRF:0
BRH:0
LF:132
LH:0
end_of_record
SF:/home/runner/_work/Gestion-inmobiliaria/Gestion-inmobiliaria/backend/src/middleware/auth.rs
FN:14,_RNvXNtNtCsjO1mwjW04O1_18realestate_backend10middleware4authNtNtNtB6_8services4auth6ClaimsNtNtCs6PNPVWoK2Gv_9actix_web7extract11FromRequest12from_request
FN:46,_RNCNvNtNtCsjO1mwjW04O1_18realestate_backend10middleware4auth14extract_claims0B7_
FN:19,_RNCNvXNtNtCsjO1mwjW04O1_18realestate_backend10middleware4authNtNtNtB8_8services4auth6ClaimsNtNtCs6PNPVWoK2Gv_9actix_web7extract11FromRequest12from_request0B8_
FN:36,_RNvNtNtCsjO1mwjW04O1_18realestate_backend10middleware4auth14extract_claims
FN:46,_RNCNvNtNtCshWAJ4lei3LP_18realestate_backend10middleware4auth14extract_claims0B7_
FN:19,_RNCNvXNtNtCshWAJ4lei3LP_18realestate_backend10middleware4authNtNtNtB8_8services4auth6ClaimsNtNtCs6PNPVWoK2Gv_9actix_web7extract11FromRequest12from_request0B8_
FN:36,_RNvNtNtCshWAJ4lei3LP_18realestate_backend10middleware4auth14extract_claims
FN:14,_RNvXNtNtCshWAJ4lei3LP_18realestate_backend10middleware4authNtNtNtB6_8services4auth6ClaimsNtNtCs6PNPVWoK2Gv_9actix_web7extract11FromRequest12from_request
FNDA:122,_RNvXNtNtCsjO1mwjW04O1_18realestate_backend10middleware4authNtNtNtB6_8services4auth6ClaimsNtNtCs6PNPVWoK2Gv_9actix_web7extract11FromRequest12from_request
FNDA:89,_RNCNvNtNtCsjO1mwjW04O1_18realestate_backend10middleware4auth14extract_claims0B7_
FNDA:122,_RNCNvXNtNtCsjO1mwjW04O1_18realestate_backend10middleware4authNtNtNtB8_8services4auth6ClaimsNtNtCs6PNPVWoK2Gv_9actix_web7extract11FromRequest12from_request0B8_
FNDA:122,_RNvNtNtCsjO1mwjW04O1_18realestate_backend10middleware4auth14extract_claims
FNDA:0,_RNCNvNtNtCshWAJ4lei3LP_18realestate_backend10middleware4auth14extract_claims0B7_
FNDA:0,_RNCNvXNtNtCshWAJ4lei3LP_18realestate_backend10middleware4authNtNtNtB8_8services4auth6ClaimsNtNtCs6PNPVWoK2Gv_9actix_web7extract11FromRequest12from_request0B8_
FNDA:0,_RNvNtNtCshWAJ4lei3LP_18realestate_backend10middleware4auth14extract_claims
FNDA:0,_RNvXNtNtCshWAJ4lei3LP_18realestate_backend10middleware4authNtNtNtB6_8services4auth6ClaimsNtNtCs6PNPVWoK2Gv_9actix_web7extract11FromRequest12from_request
FNF:4
FNH:4
DA:14,122
DA:15,122
DA:16,122
DA:17,122
DA:19,122
DA:20,122
DA:22,89
DA:23,0
DA:24,0
DA:25,0
DA:26,0
DA:27,0
DA:28,0
DA:29,89
DA:31,89
DA:32,122
DA:33,122
DA:36,122
DA:37,122
DA:38,122
DA:39,122
DA:40,122
DA:41,122
DA:43,122
DA:44,122
DA:45,122
DA:46,122
DA:47,122
DA:49,89
DA:50,89
DA:51,89
DA:53,89
DA:54,122
BRF:0
BRH:0
LF:35
LH:29
end_of_record
SF:/home/runner/_work/Gestion-inmobiliaria/Gestion-inmobiliaria/backend/src/middleware/rate_limit.rs
FN:27,_RNCNCNvNtNtCsjO1mwjW04O1_18realestate_backend10middleware10rate_limit17extract_client_ips0_00B9_
FN:28,_RNCNCNvNtNtCsjO1mwjW04O1_18realestate_backend10middleware10rate_limit17extract_client_ips0_0s_0B9_
FN:32,_RNCNCNvNtNtCsjO1mwjW04O1_18realestate_backend10middleware10rate_limit17extract_client_ips1_00B9_
FN:44,_RNCNCNvNtNtCsjO1mwjW04O1_18realestate_backend10middleware10rate_limit30extract_client_ip_from_requests0_00B9_
FN:45,_RNCNCNvNtNtCsjO1mwjW04O1_18realestate_backend10middleware10rate_limit30extract_client_ip_from_requests0_0s_0B9_
FN:49,_RNCNCNvNtNtCsjO1mwjW04O1_18realestate_backend10middleware10rate_limit30extract_client_ip_from_requests1_00B9_
FN:22,_RNCNvNtNtCsjO1mwjW04O1_18realestate_backend10middleware10rate_limit17extract_client_ip0B7_
FN:24,_RNCNvNtNtCsjO1mwjW04O1_18realestate_backend10middleware10rate_limit17extract_client_ips0_0B7_
FN:30,_RNCNvNtNtCsjO1mwjW04O1_18realestate_backend10middleware10rate_limit17extract_client_ips1_0B7_
FN:23,_RNCNvNtNtCsjO1mwjW04O1_18realestate_backend10middleware10rate_limit17extract_client_ips_0B7_
FN:39,_RNCNvNtNtCsjO1mwjW04O1_18realestate_backend10middleware10rate_limit30extract_client_ip_from_request0B7_
FN:41,_RNCNvNtNtCsjO1mwjW04O1_18realestate_backend10middleware10rate_limit30extract_client_ip_from_requests0_0B7_
FN:47,_RNCNvNtNtCsjO1mwjW04O1_18realestate_backend10middleware10rate_limit30extract_client_ip_from_requests1_0B7_
FN:40,_RNCNvNtNtCsjO1mwjW04O1_18realestate_backend10middleware10rate_limit30extract_client_ip_from_requests_0B7_
FN:53,_RNvNtNtCsjO1mwjW04O1_18realestate_backend10middleware10rate_limit14normalize_ipv6
FN:19,_RNvNtNtCsjO1mwjW04O1_18realestate_backend10middleware10rate_limit17extract_client_ip
FN:36,_RNvNtNtCsjO1mwjW04O1_18realestate_backend10middleware10rate_limit30extract_client_ip_from_request
FN:13,_RNvXNtNtCsjO1mwjW04O1_18realestate_backend10middleware10rate_limitNtB2_26FallbackPeerIpKeyExtractorNtNtCs9zbbrdB3ANJ_14actix_governor13key_extractor12KeyExtractor7extract
FN:160,_RNvNtNtNtCshWAJ4lei3LP_18realestate_backend10middleware10rate_limit5testss_20ipv4_is_not_modified
FN:147,_RNvNtNtNtCshWAJ4lei3LP_18realestate_backend10middleware10rate_limit5testss_31ipv6_is_normalized_to_56_subnet
FN:106,_RNvNtNtNtCshWAJ4lei3LP_18realestate_backend10middleware10rate_limit5testss_32x_forwarded_for_is_never_trusted
FN:95,_RNvNtNtNtCshWAJ4lei3LP_18realestate_backend10middleware10rate_limit5testss_38peer_addr_used_when_no_trusted_headers
FN:70,_RNvNtNtNtCshWAJ4lei3LP_18realestate_backend10middleware10rate_limit5testss_39cf_connecting_ip_takes_highest_priority
FN:83,_RNvNtNtNtCshWAJ4lei3LP_18realestate_backend10middleware10rate_limit5testss_43x_real_ip_used_when_cf_connecting_ip_absent
FN:136,_RNvNtNtNtCshWAJ4lei3LP_18realestate_backend10middleware10rate_limit5testss_44invalid_x_real_ip_falls_through_to_peer_addr
FN:117,_RNvNtNtNtCshWAJ4lei3LP_18realestate_backend10middleware10rate_limit5testss_46falls_back_to_localhost_when_nothing_available
FN:125,_RNvNtNtNtCshWAJ4lei3LP_18realestate_backend10middleware10rate_limit5testss_51invalid_cf_connecting_ip_falls_through_to_x_real_ip
FN:171,_RNvNtNtNtCshWAJ4lei3LP_18realestate_backend10middleware10rate_limit5testss_55extractor_uses_cf_connecting_ip_with_ipv6_normalization
FN:27,_RNCNCNvNtNtCshWAJ4lei3LP_18realestate_backend10middleware10rate_limit17extract_client_ips0_00B9_
FN:28,_RNCNCNvNtNtCshWAJ4lei3LP_18realestate_backend10middleware10rate_limit17extract_client_ips0_0s_0B9_
FN:32,_RNCNCNvNtNtCshWAJ4lei3LP_18realestate_backend10middleware10rate_limit17extract_client_ips1_00B9_
FN:44,_RNCNCNvNtNtCshWAJ4lei3LP_18realestate_backend10middleware10rate_limit30extract_client_ip_from_requests0_00B9_
FN:45,_RNCNCNvNtNtCshWAJ4lei3LP_18realestate_backend10middleware10rate_limit30extract_client_ip_from_requests0_0s_0B9_
FN:49,_RNCNCNvNtNtCshWAJ4lei3LP_18realestate_backend10middleware10rate_limit30extract_client_ip_from_requests1_00B9_
FN:22,_RNCNvNtNtCshWAJ4lei3LP_18realestate_backend10middleware10rate_limit17extract_client_ip0B7_
FN:24,_RNCNvNtNtCshWAJ4lei3LP_18realestate_backend10middleware10rate_limit17extract_client_ips0_0B7_
FN:30,_RNCNvNtNtCshWAJ4lei3LP_18realestate_backend10middleware10rate_limit17extract_client_ips1_0B7_
FN:23,_RNCNvNtNtCshWAJ4lei3LP_18realestate_backend10middleware10rate_limit17extract_client_ips_0B7_
FN:39,_RNCNvNtNtCshWAJ4lei3LP_18realestate_backend10middleware10rate_limit30extract_client_ip_from_request0B7_
FN:41,_RNCNvNtNtCshWAJ4lei3LP_18realestate_backend10middleware10rate_limit30extract_client_ip_from_requests0_0B7_
FN:47,_RNCNvNtNtCshWAJ4lei3LP_18realestate_backend10middleware10rate_limit30extract_client_ip_from_requests1_0B7_
FN:40,_RNCNvNtNtCshWAJ4lei3LP_18realestate_backend10middleware10rate_limit30extract_client_ip_from_requests_0B7_
FN:53,_RNvNtNtCshWAJ4lei3LP_18realestate_backend10middleware10rate_limit14normalize_ipv6
FN:19,_RNvNtNtCshWAJ4lei3LP_18realestate_backend10middleware10rate_limit17extract_client_ip
FN:36,_RNvNtNtCshWAJ4lei3LP_18realestate_backend10middleware10rate_limit30extract_client_ip_from_request
FN:13,_RNvXNtNtCshWAJ4lei3LP_18realestate_backend10middleware10rate_limitNtB2_26FallbackPeerIpKeyExtractorNtNtCs9zbbrdB3ANJ_14actix_governor13key_extractor12KeyExtractor7extract
FNDA:0,_RNCNCNvNtNtCsjO1mwjW04O1_18realestate_backend10middleware10rate_limit17extract_client_ips0_00B9_
FNDA:0,_RNCNCNvNtNtCsjO1mwjW04O1_18realestate_backend10middleware10rate_limit17extract_client_ips0_0s_0B9_
FNDA:0,_RNCNCNvNtNtCsjO1mwjW04O1_18realestate_backend10middleware10rate_limit17extract_client_ips1_00B9_
FNDA:0,_RNCNCNvNtNtCsjO1mwjW04O1_18realestate_backend10middleware10rate_limit30extract_client_ip_from_requests0_00B9_
FNDA:0,_RNCNCNvNtNtCsjO1mwjW04O1_18realestate_backend10middleware10rate_limit30extract_client_ip_from_requests0_0s_0B9_
FNDA:0,_RNCNCNvNtNtCsjO1mwjW04O1_18realestate_backend10middleware10rate_limit30extract_client_ip_from_requests1_00B9_
FNDA:0,_RNCNvNtNtCsjO1mwjW04O1_18realestate_backend10middleware10rate_limit17extract_client_ip0B7_
FNDA:0,_RNCNvNtNtCsjO1mwjW04O1_18realestate_backend10middleware10rate_limit17extract_client_ips0_0B7_
FNDA:0,_RNCNvNtNtCsjO1mwjW04O1_18realestate_backend10middleware10rate_limit17extract_client_ips1_0B7_
FNDA:0,_RNCNvNtNtCsjO1mwjW04O1_18realestate_backend10middleware10rate_limit17extract_client_ips_0B7_
FNDA:0,_RNCNvNtNtCsjO1mwjW04O1_18realestate_backend10middleware10rate_limit30extract_client_ip_from_request0B7_
FNDA:0,_RNCNvNtNtCsjO1mwjW04O1_18realestate_backend10middleware10rate_limit30extract_client_ip_from_requests0_0B7_
FNDA:0,_RNCNvNtNtCsjO1mwjW04O1_18realestate_backend10middleware10rate_limit30extract_client_ip_from_requests1_0B7_
FNDA:0,_RNCNvNtNtCsjO1mwjW04O1_18realestate_backend10middleware10rate_limit30extract_client_ip_from_requests_0B7_
FNDA:0,_RNvNtNtCsjO1mwjW04O1_18realestate_backend10middleware10rate_limit14normalize_ipv6
FNDA:0,_RNvNtNtCsjO1mwjW04O1_18realestate_backend10middleware10rate_limit17extract_client_ip
FNDA:0,_RNvNtNtCsjO1mwjW04O1_18realestate_backend10middleware10rate_limit30extract_client_ip_from_request
FNDA:0,_RNvXNtNtCsjO1mwjW04O1_18realestate_backend10middleware10rate_limitNtB2_26FallbackPeerIpKeyExtractorNtNtCs9zbbrdB3ANJ_14actix_governor13key_extractor12KeyExtractor7extract
FNDA:1,_RNvNtNtNtCshWAJ4lei3LP_18realestate_backend10middleware10rate_limit5testss_20ipv4_is_not_modified
FNDA:1,_RNvNtNtNtCshWAJ4lei3LP_18realestate_backend10middleware10rate_limit5testss_31ipv6_is_normalized_to_56_subnet
FNDA:1,_RNvNtNtNtCshWAJ4lei3LP_18realestate_backend10middleware10rate_limit5testss_32x_forwarded_for_is_never_trusted
FNDA:1,_RNvNtNtNtCshWAJ4lei3LP_18realestate_backend10middleware10rate_limit5testss_38peer_addr_used_when_no_trusted_headers
FNDA:1,_RNvNtNtNtCshWAJ4lei3LP_18realestate_backend10middleware10rate_limit5testss_39cf_connecting_ip_takes_highest_priority
FNDA:1,_RNvNtNtNtCshWAJ4lei3LP_18realestate_backend10middleware10rate_limit5testss_43x_real_ip_used_when_cf_connecting_ip_absent
FNDA:1,_RNvNtNtNtCshWAJ4lei3LP_18realestate_backend10middleware10rate_limit5testss_44invalid_x_real_ip_falls_through_to_peer_addr
FNDA:1,_RNvNtNtNtCshWAJ4lei3LP_18realestate_backend10middleware10rate_limit5testss_46falls_back_to_localhost_when_nothing_available
FNDA:1,_RNvNtNtNtCshWAJ4lei3LP_18realestate_backend10middleware10rate_limit5testss_51invalid_cf_connecting_ip_falls_through_to_x_real_ip
FNDA:1,_RNvNtNtNtCshWAJ4lei3LP_18realestate_backend10middleware10rate_limit5testss_55extractor_uses_cf_connecting_ip_with_ipv6_normalization
FNDA:3,_RNCNCNvNtNtCshWAJ4lei3LP_18realestate_backend10middleware10rate_limit17extract_client_ips0_00B9_
FNDA:3,_RNCNCNvNtNtCshWAJ4lei3LP_18realestate_backend10middleware10rate_limit17extract_client_ips0_0s_0B9_
FNDA:3,_RNCNCNvNtNtCshWAJ4lei3LP_18realestate_backend10middleware10rate_limit17extract_client_ips1_00B9_
FNDA:0,_RNCNCNvNtNtCshWAJ4lei3LP_18realestate_backend10middleware10rate_limit30extract_client_ip_from_requests0_00B9_
FNDA:0,_RNCNCNvNtNtCshWAJ4lei3LP_18realestate_backend10middleware10rate_limit30extract_client_ip_from_requests0_0s_0B9_
FNDA:0,_RNCNCNvNtNtCshWAJ4lei3LP_18realestate_backend10middleware10rate_limit30extract_client_ip_from_requests1_00B9_
FNDA:5,_RNCNvNtNtCshWAJ4lei3LP_18realestate_backend10middleware10rate_limit17extract_client_ip0B7_
FNDA:6,_RNCNvNtNtCshWAJ4lei3LP_18realestate_backend10middleware10rate_limit17extract_client_ips0_0B7_
FNDA:4,_RNCNvNtNtCshWAJ4lei3LP_18realestate_backend10middleware10rate_limit17extract_client_ips1_0B7_
FNDA:5,_RNCNvNtNtCshWAJ4lei3LP_18realestate_backend10middleware10rate_limit17extract_client_ips_0B7_
FNDA:0,_RNCNvNtNtCshWAJ4lei3LP_18realestate_backend10middleware10rate_limit30extract_client_ip_from_request0B7_
FNDA:0,_RNCNvNtNtCshWAJ4lei3LP_18realestate_backend10middleware10rate_limit30extract_client_ip_from_requests0_0B7_
FNDA:0,_RNCNvNtNtCshWAJ4lei3LP_18realestate_backend10middleware10rate_limit30extract_client_ip_from_requests1_0B7_
FNDA:0,_RNCNvNtNtCshWAJ4lei3LP_18realestate_backend10middleware10rate_limit30extract_client_ip_from_requests_0B7_
FNDA:3,_RNvNtNtCshWAJ4lei3LP_18realestate_backend10middleware10rate_limit14normalize_ipv6
FNDA:10,_RNvNtNtCshWAJ4lei3LP_18realestate_backend10middleware10rate_limit17extract_client_ip
FNDA:0,_RNvNtNtCshWAJ4lei3LP_18realestate_backend10middleware10rate_limit30extract_client_ip_from_request
FNDA:3,_RNvXNtNtCshWAJ4lei3LP_18realestate_backend10middleware10rate_limitNtB2_26FallbackPeerIpKeyExtractorNtNtCs9zbbrdB3ANJ_14actix_governor13key_extractor12KeyExtractor7extract
FNF:28
FNH:20
DA:13,3
DA:14,3
DA:15,3
DA:16,3
DA:19,10
DA:20,10
DA:21,10
DA:22,10
DA:23,10
DA:24,10
DA:25,6
DA:26,6
DA:27,6
DA:28,6
DA:29,6
DA:30,10
DA:31,4
DA:32,4
DA:33,4
DA:34,10
DA:36,0
DA:37,0
DA:38,0
DA:39,0
DA:40,0
DA:41,0
DA:42,0
DA:43,0
DA:44,0
DA:45,0
DA:46,0
DA:47,0
DA:48,0
DA:49,0
DA:50,0
DA:51,0
DA:53,3
DA:54,3
DA:55,2
DA:56,2
DA:57,2
DA:59,1
DA:61,3
DA:70,1
DA:71,1
DA:72,1
DA:73,1
DA:74,1
DA:75,1
DA:76,1
DA:78,1
DA:79,1
DA:80,1
DA:83,1
DA:84,1
DA:85,1
DA:86,1
DA:87,1
DA:88,1
DA:90,1
DA:91,1
DA:92,1
DA:95,1
DA:96,1
DA:97,1
DA:98,1
DA:99,1
DA:101,1
DA:102,1
DA:103,1
DA:106,1
DA:107,1
DA:108,1
DA:109,1
DA:110,1
DA:112,1
DA:113,1
DA:114,1
DA:117,1
DA:118,1
DA:120,1
DA:121,1
DA:122,1
DA:125,1
DA:126,1
DA:127,1
DA:128,1
DA:129,1
DA:131,1
DA:132,1
DA:133,1
DA:136,1
DA:137,1
DA:138,1
DA:139,1
DA:140,1
DA:142,1
DA:143,1
DA:144,1
DA:147,1
DA:148,1
DA:149,1
DA:150,1
DA:152,1
DA:153,1
DA:155,1
DA:156,1
DA:157,1
DA:160,1
DA:161,1
DA:162,1
DA:163,1
DA:165,1
DA:166,1
DA:167,1
DA:168,1
DA:171,1
DA:172,1
DA:173,1
DA:174,1
DA:176,1
DA:177,1
DA:179,1
DA:180,1
DA:181,1
BRF:0
BRH:0
LF:139
LH:116
end_of_record
SF:/home/runner/_work/Gestion-inmobiliaria/Gestion-inmobiliaria/backend/src/middleware/rbac.rs
FN:28,_RNCNvXNtNtCsjO1mwjW04O1_18realestate_backend10middleware4rbacNtB4_9AdminOnlyNtNtCs6PNPVWoK2Gv_9actix_web7extract11FromRequest12from_request0B8_
FN:48,_RNCNvXs_NtNtCsjO1mwjW04O1_18realestate_backend10middleware4rbacNtB6_11WriteAccessNtNtCs6PNPVWoK2Gv_9actix_web7extract11FromRequest12from_request0Ba_
FN:8,_RNvNtNtCsjO1mwjW04O1_18realestate_backend10middleware4rbac10check_role
FN:23,_RNvXNtNtCsjO1mwjW04O1_18realestate_backend10middleware4rbacNtB2_9AdminOnlyNtNtCs6PNPVWoK2Gv_9actix_web7extract11FromRequest12from_request
FN:43,_RNvXs_NtNtCsjO1mwjW04O1_18realestate_backend10middleware4rbacNtB4_11WriteAccessNtNtCs6PNPVWoK2Gv_9actix_web7extract11FromRequest12from_request
FN:64,_RNvNtNtNtCshWAJ4lei3LP_18realestate_backend10middleware4rbac5tests11make_claims
FN:79,_RNvNtNtNtCshWAJ4lei3LP_18realestate_backend10middleware4rbac5testss_31check_role_allows_matching_role
FN:97,_RNvNtNtNtCshWAJ4lei3LP_18realestate_backend10middleware4rbac5testss_31check_role_gerente_write_access
FN:91,_RNvNtNtNtCshWAJ4lei3LP_18realestate_backend10middleware4rbac5testss_32check_role_admin_has_full_access
FN:103,_RNvNtNtNtCshWAJ4lei3LP_18realestate_backend10middleware4rbac5testss_33check_role_visualizador_read_only
FN:85,_RNvNtNtNtCshWAJ4lei3LP_18realestate_backend10middleware4rbac5testss_35check_role_denies_non_matching_role
FN:28,_RNCNvXNtNtCshWAJ4lei3LP_18realestate_backend10middleware4rbacNtB4_9AdminOnlyNtNtCs6PNPVWoK2Gv_9actix_web7extract11FromRequest12from_request0B8_
FN:48,_RNCNvXs_NtNtCshWAJ4lei3LP_18realestate_backend10middleware4rbacNtB6_11WriteAccessNtNtCs6PNPVWoK2Gv_9actix_web7extract11FromRequest12from_request0Ba_
FN:23,_RNvXNtNtCshWAJ4lei3LP_18realestate_backend10middleware4rbacNtB2_9AdminOnlyNtNtCs6PNPVWoK2Gv_9actix_web7extract11FromRequest12from_request
FN:43,_RNvXs_NtNtCshWAJ4lei3LP_18realestate_backend10middleware4rbacNtB4_11WriteAccessNtNtCs6PNPVWoK2Gv_9actix_web7extract11FromRequest12from_request
FN:8,_RNvNtNtCshWAJ4lei3LP_18realestate_backend10middleware4rbac10check_role
FNDA:32,_RNCNvXNtNtCsjO1mwjW04O1_18realestate_backend10middleware4rbacNtB4_9AdminOnlyNtNtCs6PNPVWoK2Gv_9actix_web7extract11FromRequest12from_request0B8_
FNDA:57,_RNCNvXs_NtNtCsjO1mwjW04O1_18realestate_backend10middleware4rbacNtB6_11WriteAccessNtNtCs6PNPVWoK2Gv_9actix_web7extract11FromRequest12from_request0Ba_
FNDA:0,_RNvNtNtCsjO1mwjW04O1_18realestate_backend10middleware4rbac10check_role
FNDA:32,_RNvXNtNtCsjO1mwjW04O1_18realestate_backend10middleware4rbacNtB2_9AdminOnlyNtNtCs6PNPVWoK2Gv_9actix_web7extract11FromRequest12from_request
FNDA:57,_RNvXs_NtNtCsjO1mwjW04O1_18realestate_backend10middleware4rbacNtB4_11WriteAccessNtNtCs6PNPVWoK2Gv_9actix_web7extract11FromRequest12from_request
FNDA:5,_RNvNtNtNtCshWAJ4lei3LP_18realestate_backend10middleware4rbac5tests11make_claims
FNDA:1,_RNvNtNtNtCshWAJ4lei3LP_18realestate_backend10middleware4rbac5testss_31check_role_allows_matching_role
FNDA:1,_RNvNtNtNtCshWAJ4lei3LP_18realestate_backend10middleware4rbac5testss_31check_role_gerente_write_access
FNDA:1,_RNvNtNtNtCshWAJ4lei3LP_18realestate_backend10middleware4rbac5testss_32check_role_admin_has_full_access
FNDA:1,_RNvNtNtNtCshWAJ4lei3LP_18realestate_backend10middleware4rbac5testss_33check_role_visualizador_read_only
FNDA:1,_RNvNtNtNtCshWAJ4lei3LP_18realestate_backend10middleware4rbac5testss_35check_role_denies_non_matching_role
FNDA:0,_RNCNvXNtNtCshWAJ4lei3LP_18realestate_backend10middleware4rbacNtB4_9AdminOnlyNtNtCs6PNPVWoK2Gv_9actix_web7extract11FromRequest12from_request0B8_
FNDA:0,_RNCNvXs_NtNtCshWAJ4lei3LP_18realestate_backend10middleware4rbacNtB6_11WriteAccessNtNtCs6PNPVWoK2Gv_9actix_web7extract11FromRequest12from_request0Ba_
FNDA:0,_RNvXNtNtCshWAJ4lei3LP_18realestate_backend10middleware4rbacNtB2_9AdminOnlyNtNtCs6PNPVWoK2Gv_9actix_web7extract11FromRequest12from_request
FNDA:0,_RNvXs_NtNtCshWAJ4lei3LP_18realestate_backend10middleware4rbacNtB4_11WriteAccessNtNtCs6PNPVWoK2Gv_9actix_web7extract11FromRequest12from_request
FNDA:6,_RNvNtNtCshWAJ4lei3LP_18realestate_backend10middleware4rbac10check_role
FNF:11
FNH:11
DA:8,6
DA:9,6
DA:10,4
DA:12,2
DA:14,6
DA:23,32
DA:24,32
DA:25,32
DA:26,32
DA:27,32
DA:28,32
DA:29,32
DA:30,25
DA:31,9
DA:33,16
DA:35,32
DA:36,32
DA:43,57
DA:44,57
DA:45,57
DA:46,57
DA:47,57
DA:48,57
DA:49,57
DA:50,43
DA:51,28
DA:53,15
DA:55,57
DA:56,57
DA:64,5
DA:65,5
DA:66,5
DA:67,5
DA:68,5
DA:69,5
DA:70,5
DA:71,5
DA:72,5
DA:73,5
DA:74,5
DA:75,5
DA:76,5
DA:79,1
DA:80,1
DA:81,1
DA:82,1
DA:85,1
DA:86,1
DA:87,1
DA:88,1
DA:91,1
DA:92,1
DA:93,1
DA:94,1
DA:97,1
DA:98,1
DA:99,1
DA:100,1
DA:103,1
DA:104,1
DA:105,1
DA:106,1
DA:107,1
BRF:0
BRH:0
LF:65
LH:65
end_of_record
SF:/home/runner/_work/Gestion-inmobiliaria/Gestion-inmobiliaria/backend/src/middleware/security_headers.rs
FN:46,_RNCNvXs_NtNtCsjO1mwjW04O1_18realestate_backend10middleware16security_headersINtB6_25SecurityHeadersMiddlewareINtCsID1NLqf7PL_14actix_web_prom27PrometheusMetricsMiddlewareINtNtNtCs6PNPVWoK2Gv_9actix_web10middleware8compress18CompressMiddlewareNtNtB2P_11app_service10AppRoutingEEEINtCs8xkfikx9Ev2_13actix_service7ServiceNtNtB2P_7service14ServiceRequestE4call0CsdoSQ4L1W71_11integration
FN:20,_RNvXNtNtCsjO1mwjW04O1_18realestate_backend10middleware16security_headersNtB2_15SecurityHeadersINtNtCs8xkfikx9Ev2_13actix_service9transform9TransformINtCsID1NLqf7PL_14actix_web_prom27PrometheusMetricsMiddlewareINtNtNtCs6PNPVWoK2Gv_9actix_web10middleware8compress18CompressMiddlewareNtNtB3s_11app_service10AppRoutingEENtNtB3s_7service14ServiceRequestE13new_transformCsdoSQ4L1W71_11integration
FN:43,_RNvXs_NtNtCsjO1mwjW04O1_18realestate_backend10middleware16security_headersINtB4_25SecurityHeadersMiddlewareINtCsID1NLqf7PL_14actix_web_prom27PrometheusMetricsMiddlewareINtNtNtCs6PNPVWoK2Gv_9actix_web10middleware8compress18CompressMiddlewareNtNtB2N_11app_service10AppRoutingEEEINtCs8xkfikx9Ev2_13actix_service7ServiceNtNtB2N_7service14ServiceRequestE4callCsdoSQ4L1W71_11integration
FN:46,_RNCNvXININtNtCsjO1mwjW04O1_18realestate_backend10middleware16security_headerss_0ppEINtB7_25SecurityHeadersMiddlewarepEINtCs8xkfikx9Ev2_13actix_service7ServiceNtNtCs6PNPVWoK2Gv_9actix_web7service14ServiceRequestE4call0Bb_
FN:20,_RNvXININtNtCsjO1mwjW04O1_18realestate_backend10middleware16security_headers0ppENtB5_15SecurityHeadersINtNtCs8xkfikx9Ev2_13actix_service9transform9TransformpNtNtCs6PNPVWoK2Gv_9actix_web7service14ServiceRequestE13new_transformB9_
FN:39,_RNvXININtNtCsjO1mwjW04O1_18realestate_backend10middleware16security_headerss_0ppEINtB5_25SecurityHeadersMiddlewarepEINtCs8xkfikx9Ev2_13actix_service7ServiceNtNtCs6PNPVWoK2Gv_9actix_web7service14ServiceRequestE10poll_readyB9_
FN:43,_RNvXININtNtCsjO1mwjW04O1_18realestate_backend10middleware16security_headerss_0ppEINtB5_25SecurityHeadersMiddlewarepEINtCs8xkfikx9Ev2_13actix_service7ServiceNtNtCs6PNPVWoK2Gv_9actix_web7service14ServiceRequestE4callB9_
FN:46,_RNCNvXs_NtNtCsjO1mwjW04O1_18realestate_backend10middleware16security_headersINtB6_25SecurityHeadersMiddlewareINtCsID1NLqf7PL_14actix_web_prom27PrometheusMetricsMiddlewareINtNtNtCs6PNPVWoK2Gv_9actix_web10middleware8compress18CompressMiddlewareNtNtB2P_11app_service10AppRoutingEEEINtCs8xkfikx9Ev2_13actix_service7ServiceNtNtB2P_7service14ServiceRequestE4call0CsbgKgox7znE6_18realestate_backend
FN:20,_RNvXNtNtCsjO1mwjW04O1_18realestate_backend10middleware16security_headersNtB2_15SecurityHeadersINtNtCs8xkfikx9Ev2_13actix_service9transform9TransformINtCsID1NLqf7PL_14actix_web_prom27PrometheusMetricsMiddlewareINtNtNtCs6PNPVWoK2Gv_9actix_web10middleware8compress18CompressMiddlewareNtNtB3s_11app_service10AppRoutingEENtNtB3s_7service14ServiceRequestE13new_transformCsbgKgox7znE6_18realestate_backend
FN:39,_RNvXs_NtNtCsjO1mwjW04O1_18realestate_backend10middleware16security_headersINtB4_25SecurityHeadersMiddlewareINtCsID1NLqf7PL_14actix_web_prom27PrometheusMetricsMiddlewareINtNtNtCs6PNPVWoK2Gv_9actix_web10middleware8compress18CompressMiddlewareNtNtB2N_11app_service10AppRoutingEEEINtCs8xkfikx9Ev2_13actix_service7ServiceNtNtB2N_7service14ServiceRequestE10poll_readyCsbgKgox7znE6_18realestate_backend
FN:43,_RNvXs_NtNtCsjO1mwjW04O1_18realestate_backend10middleware16security_headersINtB4_25SecurityHeadersMiddlewareINtCsID1NLqf7PL_14actix_web_prom27PrometheusMetricsMiddlewareINtNtNtCs6PNPVWoK2Gv_9actix_web10middleware8compress18CompressMiddlewareNtNtB2N_11app_service10AppRoutingEEEINtCs8xkfikx9Ev2_13actix_service7ServiceNtNtB2N_7service14ServiceRequestE4callCsbgKgox7znE6_18realestate_backend
FN:46,_RNCNvXININtNtCshWAJ4lei3LP_18realestate_backend10middleware16security_headerss_0ppEINtB7_25SecurityHeadersMiddlewarepEINtCs8xkfikx9Ev2_13actix_service7ServiceNtNtCs6PNPVWoK2Gv_9actix_web7service14ServiceRequestE4call0Bb_
FN:20,_RNvXININtNtCshWAJ4lei3LP_18realestate_backend10middleware16security_headers0ppENtB5_15SecurityHeadersINtNtCs8xkfikx9Ev2_13actix_service9transform9TransformpNtNtCs6PNPVWoK2Gv_9actix_web7service14ServiceRequestE13new_transformB9_
FN:39,_RNvXININtNtCshWAJ4lei3LP_18realestate_backend10middleware16security_headerss_0ppEINtB5_25SecurityHeadersMiddlewarepEINtCs8xkfikx9Ev2_13actix_service7ServiceNtNtCs6PNPVWoK2Gv_9actix_web7service14ServiceRequestE10poll_readyB9_
FN:43,_RNvXININtNtCshWAJ4lei3LP_18realestate_backend10middleware16security_headerss_0ppEINtB5_25SecurityHeadersMiddlewarepEINtCs8xkfikx9Ev2_13actix_service7ServiceNtNtCs6PNPVWoK2Gv_9actix_web7service14ServiceRequestE4callB9_
FNDA:0,_RNCNvXs_NtNtCsjO1mwjW04O1_18realestate_backend10middleware16security_headersINtB6_25SecurityHeadersMiddlewareINtCsID1NLqf7PL_14actix_web_prom27PrometheusMetricsMiddlewareINtNtNtCs6PNPVWoK2Gv_9actix_web10middleware8compress18CompressMiddlewareNtNtB2P_11app_service10AppRoutingEEEINtCs8xkfikx9Ev2_13actix_service7ServiceNtNtB2P_7service14ServiceRequestE4call0CsdoSQ4L1W71_11integration
FNDA:0,_RNvXNtNtCsjO1mwjW04O1_18realestate_backend10middleware16security_headersNtB2_15SecurityHeadersINtNtCs8xkfikx9Ev2_13actix_service9transform9TransformINtCsID1NLqf7PL_14actix_web_prom27PrometheusMetricsMiddlewareINtNtNtCs6PNPVWoK2Gv_9actix_web10middleware8compress18CompressMiddlewareNtNtB3s_11app_service10AppRoutingEENtNtB3s_7service14ServiceRequestE13new_transformCsdoSQ4L1W71_11integration
FNDA:0,_RNvXs_NtNtCsjO1mwjW04O1_18realestate_backend10middleware16security_headersINtB4_25SecurityHeadersMiddlewareINtCsID1NLqf7PL_14actix_web_prom27PrometheusMetricsMiddlewareINtNtNtCs6PNPVWoK2Gv_9actix_web10middleware8compress18CompressMiddlewareNtNtB2N_11app_service10AppRoutingEEEINtCs8xkfikx9Ev2_13actix_service7ServiceNtNtB2N_7service14ServiceRequestE4callCsdoSQ4L1W71_11integration
FNDA:0,_RNCNvXININtNtCsjO1mwjW04O1_18realestate_backend10middleware16security_headerss_0ppEINtB7_25SecurityHeadersMiddlewarepEINtCs8xkfikx9Ev2_13actix_service7ServiceNtNtCs6PNPVWoK2Gv_9actix_web7service14ServiceRequestE4call0Bb_
FNDA:0,_RNvXININtNtCsjO1mwjW04O1_18realestate_backend10middleware16security_headers0ppENtB5_15SecurityHeadersINtNtCs8xkfikx9Ev2_13actix_service9transform9TransformpNtNtCs6PNPVWoK2Gv_9actix_web7service14ServiceRequestE13new_transformB9_
FNDA:0,_RNvXININtNtCsjO1mwjW04O1_18realestate_backend10middleware16security_headerss_0ppEINtB5_25SecurityHeadersMiddlewarepEINtCs8xkfikx9Ev2_13actix_service7ServiceNtNtCs6PNPVWoK2Gv_9actix_web7service14ServiceRequestE10poll_readyB9_
FNDA:0,_RNvXININtNtCsjO1mwjW04O1_18realestate_backend10middleware16security_headerss_0ppEINtB5_25SecurityHeadersMiddlewarepEINtCs8xkfikx9Ev2_13actix_service7ServiceNtNtCs6PNPVWoK2Gv_9actix_web7service14ServiceRequestE4callB9_
FNDA:0,_RNCNvXs_NtNtCsjO1mwjW04O1_18realestate_backend10middleware16security_headersINtB6_25SecurityHeadersMiddlewareINtCsID1NLqf7PL_14actix_web_prom27PrometheusMetricsMiddlewareINtNtNtCs6PNPVWoK2Gv_9actix_web10middleware8compress18CompressMiddlewareNtNtB2P_11app_service10AppRoutingEEEINtCs8xkfikx9Ev2_13actix_service7ServiceNtNtB2P_7service14ServiceRequestE4call0CsbgKgox7znE6_18realestate_backend
FNDA:0,_RNvXNtNtCsjO1mwjW04O1_18realestate_backend10middleware16security_headersNtB2_15SecurityHeadersINtNtCs8xkfikx9Ev2_13actix_service9transform9TransformINtCsID1NLqf7PL_14actix_web_prom27PrometheusMetricsMiddlewareINtNtNtCs6PNPVWoK2Gv_9actix_web10middleware8compress18CompressMiddlewareNtNtB3s_11app_service10AppRoutingEENtNtB3s_7service14ServiceRequestE13new_transformCsbgKgox7znE6_18realestate_backend
FNDA:0,_RNvXs_NtNtCsjO1mwjW04O1_18realestate_backend10middleware16security_headersINtB4_25SecurityHeadersMiddlewareINtCsID1NLqf7PL_14actix_web_prom27PrometheusMetricsMiddlewareINtNtNtCs6PNPVWoK2Gv_9actix_web10middleware8compress18CompressMiddlewareNtNtB2N_11app_service10AppRoutingEEEINtCs8xkfikx9Ev2_13actix_service7ServiceNtNtB2N_7service14ServiceRequestE10poll_readyCsbgKgox7znE6_18realestate_backend
FNDA:0,_RNvXs_NtNtCsjO1mwjW04O1_18realestate_backend10middleware16security_headersINtB4_25SecurityHeadersMiddlewareINtCsID1NLqf7PL_14actix_web_prom27PrometheusMetricsMiddlewareINtNtNtCs6PNPVWoK2Gv_9actix_web10middleware8compress18CompressMiddlewareNtNtB2N_11app_service10AppRoutingEEEINtCs8xkfikx9Ev2_13actix_service7ServiceNtNtB2N_7service14ServiceRequestE4callCsbgKgox7znE6_18realestate_backend
FNDA:0,_RNCNvXININtNtCshWAJ4lei3LP_18realestate_backend10middleware16security_headerss_0ppEINtB7_25SecurityHeadersMiddlewarepEINtCs8xkfikx9Ev2_13actix_service7ServiceNtNtCs6PNPVWoK2Gv_9actix_web7service14ServiceRequestE4call0Bb_
FNDA:0,_RNvXININtNtCshWAJ4lei3LP_18realestate_backend10middleware16security_headers0ppENtB5_15SecurityHeadersINtNtCs8xkfikx9Ev2_13actix_service9transform9TransformpNtNtCs6PNPVWoK2Gv_9actix_web7service14ServiceRequestE13new_transformB9_
FNDA:0,_RNvXININtNtCshWAJ4lei3LP_18realestate_backend10middleware16security_headerss_0ppEINtB5_25SecurityHeadersMiddlewarepEINtCs8xkfikx9Ev2_13actix_service7ServiceNtNtCs6PNPVWoK2Gv_9actix_web7service14ServiceRequestE10poll_readyB9_
FNDA:0,_RNvXININtNtCshWAJ4lei3LP_18realestate_backend10middleware16security_headerss_0ppEINtB5_25SecurityHeadersMiddlewarepEINtCs8xkfikx9Ev2_13actix_service7ServiceNtNtCs6PNPVWoK2Gv_9actix_web7service14ServiceRequestE4callB9_
FNF:4
FNH:0
DA:20,0
DA:21,0
DA:22,0
DA:39,0
DA:40,0
DA:41,0
DA:43,0
DA:44,0
DA:46,0
DA:49,0
DA:50,0
DA:51,0
DA:52,0
DA:53,0
DA:55,0
DA:56,0
DA:57,0
DA:59,0
DA:60,0
DA:61,0
DA:63,0
DA:64,0
DA:65,0
DA:67,0
DA:68,0
DA:69,0
DA:71,0
DA:72,0
DA:73,0
DA:75,0
DA:76,0
DA:77,0
DA:79,0
DA:80,0
DA:81,0
DA:83,0
DA:84,0
DA:85,0
BRF:0
BRH:0
LF:39
LH:0
end_of_record
SF:/home/runner/_work/Gestion-inmobiliaria/Gestion-inmobiliaria/backend/src/models/auditoria.rs
FN:36,_RNvNtNtNtCshWAJ4lei3LP_18realestate_backend6models9auditoria5testss_39auditoria_query_deserializes_all_fields
FN:67,_RNvNtNtNtCshWAJ4lei3LP_18realestate_backend6models9auditoria5testss_42auditoria_query_deserializes_empty_filters
FN:89,_RNvNtNtNtCshWAJ4lei3LP_18realestate_backend6models9auditoria5testss_43auditoria_response_serializes_to_camel_case
FN:80,_RNvNtNtNtCshWAJ4lei3LP_18realestate_backend6models9auditoria5testss_44auditoria_query_deserializes_partial_filters
FN:114,_RNvNtNtNtCshWAJ4lei3LP_18realestate_backend6models9auditoria5testss_45auditoria_response_serializes_complex_cambios
FNDA:1,_RNvNtNtNtCshWAJ4lei3LP_18realestate_backend6models9auditoria5testss_39auditoria_query_deserializes_all_fields
FNDA:1,_RNvNtNtNtCshWAJ4lei3LP_18realestate_backend6models9auditoria5testss_42auditoria_query_deserializes_empty_filters
FNDA:1,_RNvNtNtNtCshWAJ4lei3LP_18realestate_backend6models9auditoria5testss_43auditoria_response_serializes_to_camel_case
FNDA:1,_RNvNtNtNtCshWAJ4lei3LP_18realestate_backend6models9auditoria5testss_44auditoria_query_deserializes_partial_filters
FNDA:1,_RNvNtNtNtCshWAJ4lei3LP_18realestate_backend6models9auditoria5testss_45auditoria_response_serializes_complex_cambios
FNF:5
FNH:5
DA:36,1
DA:37,1
DA:38,1
DA:39,1
DA:50,1
DA:51,1
DA:52,1
DA:53,1
DA:54,1
DA:56,1
DA:58,1
DA:60,1
DA:62,1
DA:63,1
DA:64,1
DA:67,1
DA:68,1
DA:69,1
DA:70,1
DA:71,1
DA:72,1
DA:73,1
DA:74,1
DA:75,1
DA:76,1
DA:77,1
DA:80,1
DA:81,1
DA:82,1
DA:83,1
DA:84,1
DA:85,1
DA:86,1
DA:89,1
DA:90,1
DA:91,1
DA:92,1
DA:93,1
DA:94,1
DA:95,1
DA:96,1
DA:97,1
DA:98,1
DA:99,1
DA:100,1
DA:101,1
DA:102,1
DA:103,1
DA:104,1
DA:105,1
DA:106,1
DA:107,1
DA:108,1
DA:109,1
DA:110,1
DA:111,1
DA:114,1
DA:115,1
DA:116,1
DA:117,1
DA:118,1
DA:119,1
DA:120,1
DA:121,1
DA:122,1
DA:123,1
DA:124,1
DA:125,1
DA:126,1
DA:127,1
DA:128,1
DA:129,1
DA:130,1
BRF:0
BRH:0
LF:73
LH:73
end_of_record
SF:/home/runner/_work/Gestion-inmobiliaria/Gestion-inmobiliaria/backend/src/models/background_jobs.rs
FN:56,_RNvNtNtNtCshWAJ4lei3LP_18realestate_backend6models15background_jobs5testss_31historial_query_with_no_filters
FN:38,_RNvNtNtNtCshWAJ4lei3LP_18realestate_backend6models15background_jobs5testss_32historial_query_with_all_filters
FN:85,_RNvNtNtNtCshWAJ4lei3LP_18realestate_backend6models15background_jobs5testss_45ejecutar_tarea_response_serializes_camel_case
FN:66,_RNvNtNtNtCshWAJ4lei3LP_18realestate_backend6models15background_jobs5testss_46ejecucion_tarea_response_serializes_camel_case
FNDA:1,_RNvNtNtNtCshWAJ4lei3LP_18realestate_backend6models15background_jobs5testss_31historial_query_with_no_filters
FNDA:1,_RNvNtNtNtCshWAJ4lei3LP_18realestate_backend6models15background_jobs5testss_32historial_query_with_all_filters
FNDA:1,_RNvNtNtNtCshWAJ4lei3LP_18realestate_backend6models15background_jobs5testss_45ejecutar_tarea_response_serializes_camel_case
FNDA:1,_RNvNtNtNtCshWAJ4lei3LP_18realestate_backend6models15background_jobs5testss_46ejecucion_tarea_response_serializes_camel_case
FNF:4
FNH:4
DA:38,1
DA:39,1
DA:40,1
DA:41,1
DA:42,1
DA:43,1
DA:45,1
DA:46,1
DA:47,1
DA:50,1
DA:51,1
DA:52,1
DA:53,1
DA:56,1
DA:57,1
DA:58,1
DA:59,1
DA:60,1
DA:61,1
DA:62,1
DA:63,1
DA:66,1
DA:67,1
DA:68,1
DA:69,1
DA:70,1
DA:71,1
DA:72,1
DA:73,1
DA:74,1
DA:75,1
DA:76,1
DA:77,1
DA:78,1
DA:79,1
DA:80,1
DA:81,1
DA:82,1
DA:85,1
DA:86,1
DA:87,1
DA:88,1
DA:89,1
DA:90,1
DA:91,1
DA:92,1
DA:93,1
DA:94,1
DA:95,1
DA:96,1
DA:97,1
DA:98,1
DA:99,1
DA:100,1
DA:101,1
BRF:0
BRH:0
LF:55
LH:55
end_of_record
SF:/home/runner/_work/Gestion-inmobiliaria/Gestion-inmobiliaria/backend/src/models/chatbot.rs
FN:67,_RNCNvMs_NtNtCsjO1mwjW04O1_18realestate_backend6models7chatbotNtB6_11AgentConfig7resolve0Ba_
FN:68,_RNCNvMs_NtNtCsjO1mwjW04O1_18realestate_backend6models7chatbotNtB6_11AgentConfig7resolves_0Ba_
FN:42,_RNvMNtNtCsjO1mwjW04O1_18realestate_backend6models7chatbotNtB2_12Capabilities3all
FN:64,_RNvMs_NtNtCsjO1mwjW04O1_18realestate_backend6models7chatbotNtB4_11AgentConfig7resolve
FN:14,_RNvNtNtCsjO1mwjW04O1_18realestate_backend6models7chatbot14map_confidence
FN:308,_RNvNtNtCsjO1mwjW04O1_18realestate_backend6models7chatbot15format_currency
FN:339,_RNvNtNtCsjO1mwjW04O1_18realestate_backend6models7chatbot23add_thousands_separator
FN:95,_RNvXs0_NtNtCsjO1mwjW04O1_18realestate_backend6models7chatbotNtB5_18GuardrailOverridesNtNtCsgEmfK2I1SDS_4core7default7Default7default
FN:67,_RNCNvMs_NtNtCshWAJ4lei3LP_18realestate_backend6models7chatbotNtB6_11AgentConfig7resolve0Ba_
FN:68,_RNCNvMs_NtNtCshWAJ4lei3LP_18realestate_backend6models7chatbotNtB6_11AgentConfig7resolves_0Ba_
FN:42,_RNvMNtNtCshWAJ4lei3LP_18realestate_backend6models7chatbotNtB2_12Capabilities3all
FN:64,_RNvMs_NtNtCshWAJ4lei3LP_18realestate_backend6models7chatbotNtB4_11AgentConfig7resolve
FN:14,_RNvNtNtCshWAJ4lei3LP_18realestate_backend6models7chatbot14map_confidence
FN:308,_RNvNtNtCshWAJ4lei3LP_18realestate_backend6models7chatbot15format_currency
FN:339,_RNvNtNtCshWAJ4lei3LP_18realestate_backend6models7chatbot23add_thousands_separator
FN:95,_RNvXs0_NtNtCshWAJ4lei3LP_18realestate_backend6models7chatbotNtB5_18GuardrailOverridesNtNtCsgEmfK2I1SDS_4core7default7Default7default
FN:715,_RNvNtNtNtCshWAJ4lei3LP_18realestate_backend6models7chatbot5testss_27guardrail_overrides_default
FN:569,_RNvNtNtNtCshWAJ4lei3LP_18realestate_backend6models7chatbot5testss_29agent_config_resolve_defaults
FN:512,_RNvNtNtNtCshWAJ4lei3LP_18realestate_backend6models7chatbot5testss_30test_chat_request_deserializes
FN:670,_RNvNtNtNtCshWAJ4lei3LP_18realestate_backend6models7chatbot5testss_36agent_config_deserializes_camel_case
FN:558,_RNvNtNtNtCshWAJ4lei3LP_18realestate_backend6models7chatbot5testss_36receipt_confirm_request_deserializes
FN:583,_RNvNtNtNtCshWAJ4lei3LP_18realestate_backend6models7chatbot5testss_37agent_config_resolve_clamps_max_turns
FN:695,_RNvNtNtNtCshWAJ4lei3LP_18realestate_backend6models7chatbot5testss_38agent_config_deserializes_empty_object
FN:637,_RNvNtNtNtCshWAJ4lei3LP_18realestate_backend6models7chatbot5testss_39agent_config_resolve_filters_max_tokens
FN:604,_RNvNtNtNtCshWAJ4lei3LP_18realestate_backend6models7chatbot5testss_40agent_config_resolve_filters_temperature
FN:521,_RNvNtNtNtCshWAJ4lei3LP_18realestate_backend6models7chatbot5testss_40test_chat_response_serializes_camel_case
FN:545,_RNvNtNtNtCshWAJ4lei3LP_18realestate_backend6models7chatbot5testss_42send_message_request_serializes_camel_case
FN:455,_RNvNtNtNtCshWAJ4lei3LP_18realestate_backend6models7chatbot5testss_44chatbot_config_update_request_partial_fields
FN:469,_RNvNtNtNtCshWAJ4lei3LP_18realestate_backend6models7chatbot5testss_45chatbot_config_response_serializes_camel_case
FN:439,_RNvNtNtNtCshWAJ4lei3LP_18realestate_backend6models7chatbot5testss_47incoming_webhook_payload_with_image_and_caption
FN:532,_RNvNtNtNtCshWAJ4lei3LP_18realestate_backend6models7chatbot5testss_48connection_status_response_serializes_camel_case
FN:422,_RNvNtNtNtCshWAJ4lei3LP_18realestate_backend6models7chatbot5testss_48incoming_webhook_payload_deserializes_camel_case
FN:706,_RNvNtNtNtCshWAJ4lei3LP_18realestate_backend6models7chatbot5testss_48tool_registration_strategy_serializes_snake_case
FNDA:0,_RNCNvMs_NtNtCsjO1mwjW04O1_18realestate_backend6models7chatbotNtB6_11AgentConfig7resolve0Ba_
FNDA:0,_RNCNvMs_NtNtCsjO1mwjW04O1_18realestate_backend6models7chatbotNtB6_11AgentConfig7resolves_0Ba_
FNDA:0,_RNvMNtNtCsjO1mwjW04O1_18realestate_backend6models7chatbotNtB2_12Capabilities3all
FNDA:0,_RNvMs_NtNtCsjO1mwjW04O1_18realestate_backend6models7chatbotNtB4_11AgentConfig7resolve
FNDA:0,_RNvNtNtCsjO1mwjW04O1_18realestate_backend6models7chatbot14map_confidence
FNDA:0,_RNvNtNtCsjO1mwjW04O1_18realestate_backend6models7chatbot15format_currency
FNDA:0,_RNvNtNtCsjO1mwjW04O1_18realestate_backend6models7chatbot23add_thousands_separator
FNDA:0,_RNvXs0_NtNtCsjO1mwjW04O1_18realestate_backend6models7chatbotNtB5_18GuardrailOverridesNtNtCsgEmfK2I1SDS_4core7default7Default7default
FNDA:419,_RNCNvMs_NtNtCshWAJ4lei3LP_18realestate_backend6models7chatbotNtB6_11AgentConfig7resolve0Ba_
FNDA:412,_RNCNvMs_NtNtCshWAJ4lei3LP_18realestate_backend6models7chatbotNtB6_11AgentConfig7resolves_0Ba_
FNDA:0,_RNvMNtNtCshWAJ4lei3LP_18realestate_backend6models7chatbotNtB2_12Capabilities3all
FNDA:714,_RNvMs_NtNtCshWAJ4lei3LP_18realestate_backend6models7chatbotNtB4_11AgentConfig7resolve
FNDA:600,_RNvNtNtCshWAJ4lei3LP_18realestate_backend6models7chatbot14map_confidence
FNDA:500,_RNvNtNtCshWAJ4lei3LP_18realestate_backend6models7chatbot15format_currency
FNDA:500,_RNvNtNtCshWAJ4lei3LP_18realestate_backend6models7chatbot23add_thousands_separator
FNDA:372,_RNvXs0_NtNtCshWAJ4lei3LP_18realestate_backend6models7chatbotNtB5_18GuardrailOverridesNtNtCsgEmfK2I1SDS_4core7default7Default7default
FNDA:1,_RNvNtNtNtCshWAJ4lei3LP_18realestate_backend6models7chatbot5testss_27guardrail_overrides_default
FNDA:1,_RNvNtNtNtCshWAJ4lei3LP_18realestate_backend6models7chatbot5testss_29agent_config_resolve_defaults
FNDA:1,_RNvNtNtNtCshWAJ4lei3LP_18realestate_backend6models7chatbot5testss_30test_chat_request_deserializes
FNDA:1,_RNvNtNtNtCshWAJ4lei3LP_18realestate_backend6models7chatbot5testss_36agent_config_deserializes_camel_case
FNDA:1,_RNvNtNtNtCshWAJ4lei3LP_18realestate_backend6models7chatbot5testss_36receipt_confirm_request_deserializes
FNDA:1,_RNvNtNtNtCshWAJ4lei3LP_18realestate_backend6models7chatbot5testss_37agent_config_resolve_clamps_max_turns
FNDA:1,_RNvNtNtNtCshWAJ4lei3LP_18realestate_backend6models7chatbot5testss_38agent_config_deserializes_empty_object
FNDA:1,_RNvNtNtNtCshWAJ4lei3LP_18realestate_backend6models7chatbot5testss_39agent_config_resolve_filters_max_tokens
FNDA:1,_RNvNtNtNtCshWAJ4lei3LP_18realestate_backend6models7chatbot5testss_40agent_config_resolve_filters_temperature
FNDA:1,_RNvNtNtNtCshWAJ4lei3LP_18realestate_backend6models7chatbot5testss_40test_chat_response_serializes_camel_case
FNDA:1,_RNvNtNtNtCshWAJ4lei3LP_18realestate_backend6models7chatbot5testss_42send_message_request_serializes_camel_case
FNDA:1,_RNvNtNtNtCshWAJ4lei3LP_18realestate_backend6models7chatbot5testss_44chatbot_config_update_request_partial_fields
FNDA:1,_RNvNtNtNtCshWAJ4lei3LP_18realestate_backend6models7chatbot5testss_45chatbot_config_response_serializes_camel_case
FNDA:1,_RNvNtNtNtCshWAJ4lei3LP_18realestate_backend6models7chatbot5testss_47incoming_webhook_payload_with_image_and_caption
FNDA:1,_RNvNtNtNtCshWAJ4lei3LP_18realestate_backend6models7chatbot5testss_48connection_status_response_serializes_camel_case
FNDA:1,_RNvNtNtNtCshWAJ4lei3LP_18realestate_backend6models7chatbot5testss_48incoming_webhook_payload_deserializes_camel_case
FNDA:1,_RNvNtNtNtCshWAJ4lei3LP_18realestate_backend6models7chatbot5testss_48tool_registration_strategy_serializes_snake_case
FNF:25
FNH:24
DA:14,600
DA:15,600
DA:16,138
DA:17,462
DA:18,175
DA:20,287
DA:22,600
DA:42,0
DA:43,0
DA:44,0
DA:45,0
DA:46,0
DA:47,0
DA:48,0
DA:49,0
DA:50,0
DA:64,714
DA:66,714
DA:67,714
DA:68,714
DA:69,714
DA:70,714
DA:71,714
DA:72,714
DA:73,714
DA:75,714
DA:95,372
DA:96,372
DA:97,372
DA:98,372
DA:99,372
DA:100,372
DA:101,372
DA:102,372
DA:308,500
DA:309,500
DA:310,500
DA:311,258
DA:312,0
DA:315,500
DA:316,131
DA:318,369
DA:321,500
DA:322,500
DA:323,500
DA:324,500
DA:325,308
DA:327,192
DA:330,500
DA:332,500
DA:333,131
DA:335,369
DA:337,500
DA:339,500
DA:340,500
DA:341,500
DA:342,257
DA:343,243
DA:345,243
DA:346,1907
DA:347,1907
DA:348,477
DA:349,1430
DA:350,1907
DA:353,243
DA:354,500
DA:422,1
DA:423,1
DA:424,1
DA:425,1
DA:426,1
DA:427,1
DA:428,1
DA:429,1
DA:431,1
DA:432,1
DA:433,1
DA:434,1
DA:435,1
DA:436,1
DA:439,1
DA:440,1
DA:441,1
DA:442,1
DA:443,1
DA:444,1
DA:445,1
DA:446,1
DA:447,1
DA:449,1
DA:450,1
DA:451,1
DA:452,1
DA:455,1
DA:456,1
DA:457,1
DA:458,1
DA:460,1
DA:461,1
DA:462,1
DA:463,1
DA:464,1
DA:465,1
DA:466,1
DA:469,1
DA:470,1
DA:471,1
DA:472,1
DA:473,1
DA:474,1
DA:475,1
DA:476,1
DA:477,1
DA:478,1
DA:479,1
DA:480,1
DA:481,1
DA:482,1
DA:483,1
DA:484,1
DA:485,1
DA:486,1
DA:487,1
DA:488,1
DA:489,1
DA:490,1
DA:491,1
DA:492,1
DA:493,1
DA:494,1
DA:495,1
DA:496,1
DA:497,1
DA:498,1
DA:499,1
DA:500,1
DA:501,1
DA:502,1
DA:503,1
DA:504,1
DA:505,1
DA:506,1
DA:507,1
DA:508,1
DA:509,1
DA:512,1
DA:513,1
DA:514,1
DA:516,1
DA:517,1
DA:518,1
DA:521,1
DA:522,1
DA:523,1
DA:524,1
DA:525,1
DA:526,1
DA:527,1
DA:528,1
DA:529,1
DA:532,1
DA:533,1
DA:534,1
DA:535,1
DA:536,1
DA:537,1
DA:538,1
DA:539,1
DA:540,1
DA:541,1
DA:542,1
DA:545,1
DA:546,1
DA:547,1
DA:548,1
DA:549,1
DA:550,1
DA:551,1
DA:552,1
DA:553,1
DA:554,1
DA:555,1
DA:558,1
DA:559,1
DA:560,1
DA:561,1
DA:563,1
DA:564,1
DA:565,1
DA:566,1
DA:569,1
DA:570,1
DA:571,1
DA:572,1
DA:573,1
DA:574,1
DA:575,1
DA:579,1
DA:580,1
DA:583,1
DA:584,1
DA:585,1
DA:586,1
DA:587,1
DA:588,1
DA:590,1
DA:591,1
DA:592,1
DA:593,1
DA:594,1
DA:596,1
DA:597,1
DA:598,1
DA:599,1
DA:600,1
DA:601,1
DA:604,1
DA:605,1
DA:606,1
DA:607,1
DA:608,1
DA:609,1
DA:611,1
DA:612,1
DA:613,1
DA:614,1
DA:615,1
DA:617,1
DA:618,1
DA:619,1
DA:620,1
DA:621,1
DA:623,1
DA:624,1
DA:625,1
DA:626,1
DA:627,1
DA:629,1
DA:630,1
DA:631,1
DA:632,1
DA:633,1
DA:634,1
DA:637,1
DA:638,1
DA:639,1
DA:640,1
DA:641,1
DA:642,1
DA:644,1
DA:645,1
DA:646,1
DA:647,1
DA:648,1
DA:650,1
DA:651,1
DA:652,1
DA:653,1
DA:654,1
DA:656,1
DA:657,1
DA:658,1
DA:659,1
DA:660,1
DA:662,1
DA:663,1
DA:664,1
DA:665,1
DA:666,1
DA:667,1
DA:670,1
DA:671,1
DA:672,1
DA:673,1
DA:674,1
DA:675,1
DA:676,1
DA:677,1
DA:678,1
DA:681,1
DA:682,1
DA:683,1
DA:684,1
DA:685,1
DA:689,1
DA:690,1
DA:691,1
DA:692,1
DA:695,1
DA:696,1
DA:697,1
DA:698,1
DA:699,1
DA:700,1
DA:701,1
DA:702,1
DA:703,1
DA:706,1
DA:707,1
DA:708,1
DA:710,1
DA:711,1
DA:712,1
DA:715,1
DA:716,1
DA:717,1
DA:718,1
DA:719,1
DA:720,1
DA:721,1
BRF:0
BRH:0
LF:312
LH:302
end_of_record
SF:/home/runner/_work/Gestion-inmobiliaria/Gestion-inmobiliaria/backend/src/models/chatbot_pbt.rs
FN:182,_RNCNCNvNtNtCshWAJ4lei3LP_18realestate_backend6models11chatbot_pbts_58agent_config_resolve_max_tokens_outside_range_becomes_none00B9_
FN:131,_RNCNCNvNtNtCshWAJ4lei3LP_18realestate_backend6models11chatbot_pbts_59agent_config_resolve_temperature_outside_range_becomes_none00B9_
FN:129,_RNCNCNvNtNtCshWAJ4lei3LP_18realestate_backend6models11chatbot_pbts_59agent_config_resolve_temperature_outside_range_becomes_none0s0_0B9_
FN:128,_RNCNCNvNtNtCshWAJ4lei3LP_18realestate_backend6models11chatbot_pbts_59agent_config_resolve_temperature_outside_range_becomes_none0s_0B9_
FN:42,_RNCNvNtNtCshWAJ4lei3LP_18realestate_backend6models11chatbot_pbt16arb_agent_config0B7_
FN:24,_RNCNvNtNtCshWAJ4lei3LP_18realestate_backend6models11chatbot_pbt23arb_guardrail_overrides0B7_
FN:79,_RNCNvNtNtCshWAJ4lei3LP_18realestate_backend6models11chatbot_pbts_44agent_config_resolve_max_turns_defaults_to_50B7_
FN:85,_RNCNvNtNtCshWAJ4lei3LP_18realestate_backend6models11chatbot_pbts_44agent_config_resolve_max_turns_defaults_to_5s_0B7_
FN:59,_RNCNvNtNtCshWAJ4lei3LP_18realestate_backend6models11chatbot_pbts_46agent_config_resolve_max_turns_always_in_range0B7_
FN:160,_RNCNvNtNtCshWAJ4lei3LP_18realestate_backend6models11chatbot_pbts_52agent_config_resolve_max_tokens_always_valid_or_none0B7_
FN:105,_RNCNvNtNtCshWAJ4lei3LP_18realestate_backend6models11chatbot_pbts_53agent_config_resolve_temperature_always_valid_or_none0B7_
FN:181,_RNCNvNtNtCshWAJ4lei3LP_18realestate_backend6models11chatbot_pbts_58agent_config_resolve_max_tokens_outside_range_becomes_none0B7_
FN:190,_RNCNvNtNtCshWAJ4lei3LP_18realestate_backend6models11chatbot_pbts_58agent_config_resolve_max_tokens_outside_range_becomes_nones_0B7_
FN:126,_RNCNvNtNtCshWAJ4lei3LP_18realestate_backend6models11chatbot_pbts_59agent_config_resolve_temperature_outside_range_becomes_none0B7_
FN:139,_RNCNvNtNtCshWAJ4lei3LP_18realestate_backend6models11chatbot_pbts_59agent_config_resolve_temperature_outside_range_becomes_nones_0B7_
FN:210,_RNCNvNtNtCshWAJ4lei3LP_18realestate_backend6models11chatbot_pbts_60agent_config_resolve_tool_registration_defaults_to_selective0B7_
FN:216,_RNCNvNtNtCshWAJ4lei3LP_18realestate_backend6models11chatbot_pbts_60agent_config_resolve_tool_registration_defaults_to_selectives_0B7_
FN:32,_RNvNtNtCshWAJ4lei3LP_18realestate_backend6models11chatbot_pbt16arb_agent_config
FN:15,_RNvNtNtCshWAJ4lei3LP_18realestate_backend6models11chatbot_pbt23arb_guardrail_overrides
FN:8,_RNvNtNtCshWAJ4lei3LP_18realestate_backend6models11chatbot_pbt30arb_tool_registration_strategy
FN:73,_RNvNtNtCshWAJ4lei3LP_18realestate_backend6models11chatbot_pbts_44agent_config_resolve_max_turns_defaults_to_5
